
/home/rohan/core-v-verif/cv32e40p/tests/programs/custom/fibonacci/fibonacci.elf:     file format elf32-littleriscv


Disassembly of section .vectors:

00000000 <__vector_start>:
.section .vectors, "ax"
.option norvc
.global vector_table

vector_table:
	j u_sw_irq_handler
   0:	1ac0006f          	jal	x0,1ac <u_sw_irq_handler>
	j __no_irq_handler
   4:	1740006f          	jal	x0,178 <__no_irq_handler>
	j __no_irq_handler
   8:	1700006f          	jal	x0,178 <__no_irq_handler>
	j m_software_irq_handler
   c:	17a0006f          	jal	x0,186 <m_software_irq_handler>
	j __no_irq_handler
  10:	1680006f          	jal	x0,178 <__no_irq_handler>
	j __no_irq_handler
  14:	1640006f          	jal	x0,178 <__no_irq_handler>
	j __no_irq_handler
  18:	1600006f          	jal	x0,178 <__no_irq_handler>
	j m_timer_irq_handler
  1c:	16c0006f          	jal	x0,188 <m_timer_irq_handler>
	j __no_irq_handler
  20:	1580006f          	jal	x0,178 <__no_irq_handler>
	j __no_irq_handler
  24:	1540006f          	jal	x0,178 <__no_irq_handler>
	j __no_irq_handler
  28:	1500006f          	jal	x0,178 <__no_irq_handler>
	j m_external_irq_handler
  2c:	15e0006f          	jal	x0,18a <m_external_irq_handler>
	j __no_irq_handler
  30:	1480006f          	jal	x0,178 <__no_irq_handler>
	j __no_irq_handler
  34:	1440006f          	jal	x0,178 <__no_irq_handler>
	j __no_irq_handler
  38:	1400006f          	jal	x0,178 <__no_irq_handler>
	j __no_irq_handler
  3c:	13c0006f          	jal	x0,178 <__no_irq_handler>
	j m_fast0_irq_handler
  40:	14c0006f          	jal	x0,18c <m_fast0_irq_handler>
	j m_fast1_irq_handler
  44:	14a0006f          	jal	x0,18e <m_fast1_irq_handler>
	j m_fast2_irq_handler
  48:	1480006f          	jal	x0,190 <m_fast2_irq_handler>
	j m_fast3_irq_handler
  4c:	1460006f          	jal	x0,192 <m_fast3_irq_handler>
	j m_fast4_irq_handler
  50:	1440006f          	jal	x0,194 <m_fast4_irq_handler>
	j m_fast5_irq_handler
  54:	1420006f          	jal	x0,196 <m_fast5_irq_handler>
	j m_fast6_irq_handler
  58:	1400006f          	jal	x0,198 <m_fast6_irq_handler>
	j m_fast7_irq_handler
  5c:	13e0006f          	jal	x0,19a <m_fast7_irq_handler>
	j m_fast8_irq_handler
  60:	13c0006f          	jal	x0,19c <m_fast8_irq_handler>
	j m_fast9_irq_handler
  64:	13a0006f          	jal	x0,19e <m_fast9_irq_handler>
	j m_fast10_irq_handler
  68:	1380006f          	jal	x0,1a0 <m_fast10_irq_handler>
	j m_fast11_irq_handler
  6c:	1360006f          	jal	x0,1a2 <m_fast11_irq_handler>
	j m_fast12_irq_handler
  70:	1340006f          	jal	x0,1a4 <m_fast12_irq_handler>
	j m_fast13_irq_handler
  74:	1320006f          	jal	x0,1a6 <m_fast13_irq_handler>
	j m_fast14_irq_handler
  78:	1300006f          	jal	x0,1a8 <m_fast14_irq_handler>
	j m_fast15_irq_handler
  7c:	12e0006f          	jal	x0,1aa <m_fast15_irq_handler>

Disassembly of section .init:

00000080 <_start>:

_start:
/* initialize global pointer */
.option push
.option norelax
1:	auipc gp, %pcrel_hi(__global_pointer$)
  80:	0000e197          	auipc	x3,0xe
	addi  gp, gp, %pcrel_lo(1b)
  84:	23018193          	addi	x3,x3,560 # e2b0 <__global_pointer$>
.option pop

/* initialize stack pointer */
	la sp, __stack_end
  88:	00400117          	auipc	x2,0x400
  8c:	f7810113          	addi	x2,x2,-136 # 400000 <__heap_end>

/* set vector table address */
	la a0, __vector_start
  90:	00000517          	auipc	x10,0x0
  94:	f7050513          	addi	x10,x10,-144 # 0 <__vector_start>
	ori a0, a0, 1 /*vector mode = vectored */
  98:	00156513          	ori	x10,x10,1
	csrw mtvec, a0
  9c:	30551073          	csrrw	x0,mtvec,x10

/* clear the bss segment */
	la a0, _edata
  a0:	f1018513          	addi	x10,x3,-240 # e1c0 <errno>
	la a2, _end
  a4:	21c18613          	addi	x12,x3,540 # e4cc <__bss_end>
	sub a2, a2, a0
  a8:	8e09                	c.sub	x12,x10
	li a1, 0
  aa:	4581                	c.li	x11,0
	call memset
  ac:	235d                	c.jal	652 <memset>

/* new-style constructors and destructors */
	la a0, __libc_fini_array
  ae:	00001517          	auipc	x10,0x1
  b2:	c6a50513          	addi	x10,x10,-918 # d18 <__libc_fini_array>
	call atexit
  b6:	3a9000ef          	jal	x1,c5e <atexit>
	call __libc_init_array
  ba:	25d9                	c.jal	780 <__libc_init_array>
//	lw a0, 0(sp)                    /* a0 = argc */
//	addi a1, sp, __SIZEOF_POINTER__ /* a1 = argv */
//	li a2, 0                        /* a2 = envp = NULL */
// Initialize these variables to 0. Cannot use argc or argv
// since the stack is not initialized
	li a0, 0
  bc:	4501                	c.li	x10,0
	li a1, 0
  be:	4581                	c.li	x11,0
	li a2, 0
  c0:	4601                	c.li	x12,0

	call main
  c2:	2021                	c.jal	ca <main>
	tail exit
  c4:	2eb0006f          	jal	x0,bae <exit>

000000c8 <_fini>:
.type   _fini, @function
_init:
_fini:
 /* These don't have to do anything since we use init_array/fini_array. Prevent
    missing symbol error */
	ret
  c8:	8082                	c.jr	x1

Disassembly of section .text:

000000ca <main>:

static int fib(int i) {
    return (i>1) ? fib(i-1) + fib(i-2) : i;
}

int main(int argc, char *argv[]) {
      ca:	1141                	c.addi	x2,-16
      cc:	c422                	c.swsp	x8,8(x2)
      ce:	c606                	c.swsp	x1,12(x2)
      d0:	c226                	c.swsp	x9,4(x2)
      d2:	c04a                	c.swsp	x18,0(x2)

    int i;
    int num = (argc >= 2) ? atoi((const char *)argv[1]) : 15;
      d4:	4785                	c.li	x15,1
      d6:	443d                	c.li	x8,15
      d8:	00a7d563          	bge	x15,x10,e2 <main+0x18>
      dc:	41c8                	c.lw	x10,4(x11)
      de:	26dd                	c.jal	4c4 <atoi>
      e0:	842a                	c.mv	x8,x10

    printf("starting fib(%d)...\n", num);
      e2:	6535                	c.lui	x10,0xd
      e4:	85a2                	c.mv	x11,x8
      e6:	01050513          	addi	x10,x10,16 # d010 <__clzsi2+0x70>
      ea:	3a1000ef          	jal	x1,c8a <printf>

    for(i=0; i<num; i++) {
      ee:	4481                	c.li	x9,0
        printf("fib(%d) = %d\n", i, fib(i));
      f0:	6935                	c.lui	x18,0xd
    for(i=0; i<num; i++) {
      f2:	0084ce63          	blt	x9,x8,10e <main+0x44>
    }

    printf("finishing...\n");
      f6:	6535                	c.lui	x10,0xd
      f8:	03850513          	addi	x10,x10,56 # d038 <__clzsi2+0x98>
      fc:	76e000ef          	jal	x1,86a <puts>

    return 0;
}
     100:	40b2                	c.lwsp	x1,12(x2)
     102:	4422                	c.lwsp	x8,8(x2)
     104:	4492                	c.lwsp	x9,4(x2)
     106:	4902                	c.lwsp	x18,0(x2)
     108:	4501                	c.li	x10,0
     10a:	0141                	c.addi	x2,16
     10c:	8082                	c.jr	x1
        printf("fib(%d) = %d\n", i, fib(i));
     10e:	8526                	c.mv	x10,x9
     110:	201d                	c.jal	136 <fib>
     112:	862a                	c.mv	x12,x10
     114:	85a6                	c.mv	x11,x9
     116:	02890513          	addi	x10,x18,40 # d028 <__clzsi2+0x88>
     11a:	371000ef          	jal	x1,c8a <printf>
    for(i=0; i<num; i++) {
     11e:	0485                	c.addi	x9,1
     120:	bfc9                	c.j	f2 <main+0x28>

00000122 <register_fini>:
     122:	00000793          	addi	x15,x0,0
     126:	c799                	c.beqz	x15,134 <register_fini+0x12>
     128:	00001517          	auipc	x10,0x1
     12c:	bf050513          	addi	x10,x10,-1040 # d18 <__libc_fini_array>
     130:	32f0006f          	jal	x0,c5e <atexit>
     134:	8082                	c.jr	x1

00000136 <fib>:
static int fib(int i) {
     136:	1101                	c.addi	x2,-32
     138:	cc22                	c.swsp	x8,24(x2)
     13a:	ca26                	c.swsp	x9,20(x2)
     13c:	c84a                	c.swsp	x18,16(x2)
     13e:	c64e                	c.swsp	x19,12(x2)
     140:	ce06                	c.swsp	x1,28(x2)
     142:	842a                	c.mv	x8,x10
     144:	84aa                	c.mv	x9,x10
     146:	4901                	c.li	x18,0
    return (i>1) ? fib(i-1) + fib(i-2) : i;
     148:	4985                	c.li	x19,1
     14a:	0099d863          	bge	x19,x9,15a <fib+0x24>
     14e:	fff48513          	addi	x10,x9,-1
     152:	37d5                	c.jal	136 <fib>
     154:	14f9                	c.addi	x9,-2
     156:	992a                	c.add	x18,x10
     158:	bfcd                	c.j	14a <fib+0x14>
     15a:	00145793          	srli	x15,x8,0x1
     15e:	5779                	c.li	x14,-2
     160:	02e787b3          	mul	x15,x15,x14
}
     164:	40f2                	c.lwsp	x1,28(x2)
     166:	44d2                	c.lwsp	x9,20(x2)
     168:	49b2                	c.lwsp	x19,12(x2)
    return (i>1) ? fib(i-1) + fib(i-2) : i;
     16a:	00f40533          	add	x10,x8,x15
}
     16e:	4462                	c.lwsp	x8,24(x2)
     170:	954a                	c.add	x10,x18
     172:	4942                	c.lwsp	x18,16(x2)
     174:	6105                	c.addi16sp	x2,32
     176:	8082                	c.jr	x1

00000178 <__no_irq_handler>:
.weak m_fast15_irq_handler


/* exception handling */
__no_irq_handler:
	la a0, no_exception_handler_msg
     178:	0000d517          	auipc	x10,0xd
     17c:	0df50513          	addi	x10,x10,223 # d257 <no_exception_handler_msg>
	jal ra, puts
     180:	6ea000ef          	jal	x1,86a <puts>
	j __no_irq_handler
     184:	bfd5                	c.j	178 <__no_irq_handler>

00000186 <m_software_irq_handler>:

m_software_irq_handler:
	j __no_irq_handler
     186:	bfcd                	c.j	178 <__no_irq_handler>

00000188 <m_timer_irq_handler>:

m_timer_irq_handler:
	j __no_irq_handler
     188:	bfc5                	c.j	178 <__no_irq_handler>

0000018a <m_external_irq_handler>:

m_external_irq_handler:
	j __no_irq_handler
     18a:	b7fd                	c.j	178 <__no_irq_handler>

0000018c <m_fast0_irq_handler>:

m_fast0_irq_handler:
	j __no_irq_handler
     18c:	b7f5                	c.j	178 <__no_irq_handler>

0000018e <m_fast1_irq_handler>:

m_fast1_irq_handler:
	j __no_irq_handler
     18e:	b7ed                	c.j	178 <__no_irq_handler>

00000190 <m_fast2_irq_handler>:

m_fast2_irq_handler:
	j __no_irq_handler
     190:	b7e5                	c.j	178 <__no_irq_handler>

00000192 <m_fast3_irq_handler>:

m_fast3_irq_handler:
	j __no_irq_handler
     192:	b7dd                	c.j	178 <__no_irq_handler>

00000194 <m_fast4_irq_handler>:

m_fast4_irq_handler:
	j __no_irq_handler
     194:	b7d5                	c.j	178 <__no_irq_handler>

00000196 <m_fast5_irq_handler>:

m_fast5_irq_handler:
	j __no_irq_handler
     196:	b7cd                	c.j	178 <__no_irq_handler>

00000198 <m_fast6_irq_handler>:

m_fast6_irq_handler:
	j __no_irq_handler
     198:	b7c5                	c.j	178 <__no_irq_handler>

0000019a <m_fast7_irq_handler>:

m_fast7_irq_handler:
	j __no_irq_handler
     19a:	bff9                	c.j	178 <__no_irq_handler>

0000019c <m_fast8_irq_handler>:

m_fast8_irq_handler:
	j __no_irq_handler
     19c:	bff1                	c.j	178 <__no_irq_handler>

0000019e <m_fast9_irq_handler>:

m_fast9_irq_handler:
	j __no_irq_handler
     19e:	bfe9                	c.j	178 <__no_irq_handler>

000001a0 <m_fast10_irq_handler>:

m_fast10_irq_handler:
	j __no_irq_handler
     1a0:	bfe1                	c.j	178 <__no_irq_handler>

000001a2 <m_fast11_irq_handler>:

m_fast11_irq_handler:
	j __no_irq_handler
     1a2:	bfd9                	c.j	178 <__no_irq_handler>

000001a4 <m_fast12_irq_handler>:

m_fast12_irq_handler:
	j __no_irq_handler
     1a4:	bfd1                	c.j	178 <__no_irq_handler>

000001a6 <m_fast13_irq_handler>:

m_fast13_irq_handler:
	j __no_irq_handler
     1a6:	bfc9                	c.j	178 <__no_irq_handler>

000001a8 <m_fast14_irq_handler>:

m_fast14_irq_handler:
	j __no_irq_handler
     1a8:	bfc1                	c.j	178 <__no_irq_handler>

000001aa <m_fast15_irq_handler>:

m_fast15_irq_handler:
	j __no_irq_handler
     1aa:	b7f9                	c.j	178 <__no_irq_handler>

000001ac <u_sw_irq_handler>:

u_sw_irq_handler:
	/* While we are still using puts in handlers, save all caller saved
	   regs.  Eventually, some of these saves could be deferred.  */
	addi sp,sp,-64
     1ac:	7139                	c.addi16sp	x2,-64
	sw ra, 0(sp)
     1ae:	c006                	c.swsp	x1,0(x2)
	sw a0, 4(sp)
     1b0:	c22a                	c.swsp	x10,4(x2)
	sw a1, 8(sp)
     1b2:	c42e                	c.swsp	x11,8(x2)
	sw a2, 12(sp)
     1b4:	c632                	c.swsp	x12,12(x2)
	sw a3, 16(sp)
     1b6:	c836                	c.swsp	x13,16(x2)
	sw a4, 20(sp)
     1b8:	ca3a                	c.swsp	x14,20(x2)
	sw a5, 24(sp)
     1ba:	cc3e                	c.swsp	x15,24(x2)
	sw a6, 28(sp)
     1bc:	ce42                	c.swsp	x16,28(x2)
	sw a7, 32(sp)
     1be:	d046                	c.swsp	x17,32(x2)
	sw t0, 36(sp)
     1c0:	d216                	c.swsp	x5,36(x2)
	sw t1, 40(sp)
     1c2:	d41a                	c.swsp	x6,40(x2)
	sw t2, 44(sp)
     1c4:	d61e                	c.swsp	x7,44(x2)
	sw t3, 48(sp)
     1c6:	d872                	c.swsp	x28,48(x2)
	sw t4, 52(sp)
     1c8:	da76                	c.swsp	x29,52(x2)
	sw t5, 56(sp)
     1ca:	dc7a                	c.swsp	x30,56(x2)
	sw t6, 60(sp)
     1cc:	de7e                	c.swsp	x31,60(x2)
	csrr t0, mcause
     1ce:	342022f3          	csrrs	x5,mcause,x0
	li t1, EXCEPTION_ILLEGAL_INSN
     1d2:	4309                	c.li	x6,2
	beq t0, t1, handle_illegal_insn
     1d4:	02628363          	beq	x5,x6,1fa <handle_illegal_insn>
	li t1, EXCEPTION_ECALL_M
     1d8:	432d                	c.li	x6,11
	beq t0, t1, handle_ecall
     1da:	00628663          	beq	x5,x6,1e6 <handle_ecall>
	li t1, EXCEPTION_BREAKPOINT
     1de:	430d                	c.li	x6,3
	beq t0, t1, handle_ebreak
     1e0:	00628663          	beq	x5,x6,1ec <handle_ebreak>
	j handle_unknown
     1e4:	a015                	c.j	208 <handle_unknown>

000001e6 <handle_ecall>:

handle_ecall:
	jal ra, handle_syscall
     1e6:	204000ef          	jal	x1,3ea <handle_syscall>
	j end_handler_incr_mepc
     1ea:	a035                	c.j	216 <end_handler_incr_mepc>

000001ec <handle_ebreak>:

handle_ebreak:
	/* TODO support debug handling requirements.  */
	la a0, ebreak_msg
     1ec:	0000d517          	auipc	x10,0xd
     1f0:	00a50513          	addi	x10,x10,10 # d1f6 <ebreak_msg>
	jal ra, puts
     1f4:	676000ef          	jal	x1,86a <puts>
	j end_handler_incr_mepc
     1f8:	a839                	c.j	216 <end_handler_incr_mepc>

000001fa <handle_illegal_insn>:

handle_illegal_insn:
	la a0, illegal_insn_msg
     1fa:	0000d517          	auipc	x10,0xd
     1fe:	f9050513          	addi	x10,x10,-112 # d18a <illegal_insn_msg>
	jal ra, puts
     202:	668000ef          	jal	x1,86a <puts>
	j end_handler_incr_mepc
     206:	a801                	c.j	216 <end_handler_incr_mepc>

00000208 <handle_unknown>:

handle_unknown:
	la a0, unknown_msg
     208:	0000d517          	auipc	x10,0xd
     20c:	01e50513          	addi	x10,x10,30 # d226 <unknown_msg>
	jal ra, puts
     210:	65a000ef          	jal	x1,86a <puts>
	/* We don't know what interrupt/exception is being handled, so don't
	   increment mepc.  */
	j end_handler_ret
     214:	a831                	c.j	230 <end_handler_ret>

00000216 <end_handler_incr_mepc>:

end_handler_incr_mepc:
	csrr t0, mepc
     216:	341022f3          	csrrs	x5,mepc,x0
	lb t1, 0(t0)
     21a:	00028303          	lb	x6,0(x5)
	li a0, 0x3
     21e:	450d                	c.li	x10,3
	and t1, t1, a0
     220:	00a37333          	and	x6,x6,x10
	/* Increment mepc by 2 or 4 depending on whether the instruction at mepc
	   is compressed or not.  */
	bne t1, a0, end_handler_incr_mepc2
     224:	00a31363          	bne	x6,x10,22a <end_handler_incr_mepc2>
	addi t0, t0, 2
     228:	0289                	c.addi	x5,2

0000022a <end_handler_incr_mepc2>:
end_handler_incr_mepc2:
	addi t0, t0, 2
     22a:	0289                	c.addi	x5,2
	csrw mepc, t0
     22c:	34129073          	csrrw	x0,mepc,x5

00000230 <end_handler_ret>:
end_handler_ret:
	lw ra, 0(sp)
     230:	4082                	c.lwsp	x1,0(x2)
	lw a0, 4(sp)
     232:	4512                	c.lwsp	x10,4(x2)
	lw a1, 8(sp)
     234:	45a2                	c.lwsp	x11,8(x2)
	lw a2, 12(sp)
     236:	4632                	c.lwsp	x12,12(x2)
	lw a3, 16(sp)
     238:	46c2                	c.lwsp	x13,16(x2)
	lw a4, 20(sp)
     23a:	4752                	c.lwsp	x14,20(x2)
	lw a5, 24(sp)
     23c:	47e2                	c.lwsp	x15,24(x2)
	lw a6, 28(sp)
     23e:	4872                	c.lwsp	x16,28(x2)
	lw a7, 32(sp)
     240:	5882                	c.lwsp	x17,32(x2)
	lw t0, 36(sp)
     242:	5292                	c.lwsp	x5,36(x2)
	lw t1, 40(sp)
     244:	5322                	c.lwsp	x6,40(x2)
	lw t2, 44(sp)
     246:	53b2                	c.lwsp	x7,44(x2)
	lw t3, 48(sp)
     248:	5e42                	c.lwsp	x28,48(x2)
	lw t4, 52(sp)
     24a:	5ed2                	c.lwsp	x29,52(x2)
	lw t5, 56(sp)
     24c:	5f62                	c.lwsp	x30,56(x2)
	lw t6, 60(sp)
     24e:	5ff2                	c.lwsp	x31,60(x2)
	addi sp,sp,64
     250:	6121                	c.addi16sp	x2,64
	mret
     252:	30200073          	mret

00000256 <__syscall_error>:
#endif
/* Upstream newlib now defines this in libgloss/riscv/internal_syscall.h.  */
long
__syscall_error(long a0)
{
  errno = -a0;
     256:	40a00533          	sub	x10,x0,x10
     25a:	f0a1a823          	sw	x10,-240(x3) # e1c0 <errno>
  return -1;
}
     25e:	557d                	c.li	x10,-1
     260:	8082                	c.jr	x1

00000262 <unimplemented_syscall>:

void unimplemented_syscall()
{
  const char *p = "BSP: Unimplemented system call called!\n";
     262:	67b5                	c.lui	x15,0xd
     264:	04878793          	addi	x15,x15,72 # d048 <__clzsi2+0xa8>
  while (*p)
    *(volatile int *)STDOUT_REG = *(p++);
     268:	100006b7          	lui	x13,0x10000
  while (*p)
     26c:	0007c703          	lbu	x14,0(x15)
     270:	e311                	c.bnez	x14,274 <unimplemented_syscall+0x12>
}
     272:	8082                	c.jr	x1
    *(volatile int *)STDOUT_REG = *(p++);
     274:	0785                	c.addi	x15,1
     276:	c298                	c.sw	x14,0(x13)
     278:	bfd5                	c.j	26c <unimplemented_syscall+0xa>

0000027a <nanosleep>:

int nanosleep(const struct timespec *rqtp, struct timespec *rmtp)
{
  errno = ENOSYS;
     27a:	05800713          	addi	x14,x0,88
     27e:	f0e1a823          	sw	x14,-240(x3) # e1c0 <errno>
  return -1;
}
     282:	557d                	c.li	x10,-1
     284:	8082                	c.jr	x1

00000286 <_access>:

int _access(const char *file, int mode)
{
  errno = ENOSYS;
     286:	05800713          	addi	x14,x0,88
     28a:	f0e1a823          	sw	x14,-240(x3) # e1c0 <errno>
  return -1;
}
     28e:	557d                	c.li	x10,-1
     290:	8082                	c.jr	x1

00000292 <_chdir>:

int _chdir(const char *path)
{
  errno = ENOSYS;
     292:	05800713          	addi	x14,x0,88
     296:	f0e1a823          	sw	x14,-240(x3) # e1c0 <errno>
  return -1;
}
     29a:	557d                	c.li	x10,-1
     29c:	8082                	c.jr	x1

0000029e <_chmod>:

int _chmod(const char *path, mode_t mode)
{
  errno = ENOSYS;
     29e:	05800713          	addi	x14,x0,88
     2a2:	f0e1a823          	sw	x14,-240(x3) # e1c0 <errno>
  return -1;
}
     2a6:	557d                	c.li	x10,-1
     2a8:	8082                	c.jr	x1

000002aa <_chown>:

int _chown(const char *path, uid_t owner, gid_t group)
{
  errno = ENOSYS;
     2aa:	05800713          	addi	x14,x0,88
     2ae:	f0e1a823          	sw	x14,-240(x3) # e1c0 <errno>
  return -1;
}
     2b2:	557d                	c.li	x10,-1
     2b4:	8082                	c.jr	x1

000002b6 <_close>:

int _close(int file)
{
  return -1;
}
     2b6:	557d                	c.li	x10,-1
     2b8:	8082                	c.jr	x1

000002ba <_execve>:

int _execve(const char *name, char *const argv[], char *const env[])
{
  errno = ENOMEM;
     2ba:	4731                	c.li	x14,12
     2bc:	f0e1a823          	sw	x14,-240(x3) # e1c0 <errno>
  return -1;
}
     2c0:	557d                	c.li	x10,-1
     2c2:	8082                	c.jr	x1

000002c4 <_exit>:

void _exit(int exit_status)
{
  *(volatile int *)EXIT_REG = exit_status;
     2c4:	200007b7          	lui	x15,0x20000
     2c8:	c3c8                	c.sw	x10,4(x15)
  asm volatile("wfi");
     2ca:	10500073          	wfi
  /* _exit should not return */
  while (1) {};
     2ce:	a001                	c.j	2ce <_exit+0xa>

000002d0 <_faccessat>:
}

int _faccessat(int dirfd, const char *file, int mode, int flags)
{
  errno = ENOSYS;
     2d0:	05800713          	addi	x14,x0,88
     2d4:	f0e1a823          	sw	x14,-240(x3) # e1c0 <errno>
  return -1;
}
     2d8:	557d                	c.li	x10,-1
     2da:	8082                	c.jr	x1

000002dc <_fork>:

int _fork(void)
{
  errno = EAGAIN;
     2dc:	472d                	c.li	x14,11
     2de:	f0e1a823          	sw	x14,-240(x3) # e1c0 <errno>
  return -1;
}
     2e2:	557d                	c.li	x10,-1
     2e4:	8082                	c.jr	x1

000002e6 <_fstat>:

int _fstat(int file, struct stat *st)
{
  st->st_mode = S_IFCHR;
     2e6:	6789                	c.lui	x15,0x2
     2e8:	c1dc                	c.sw	x15,4(x11)
  return 0;
  // errno = -ENOSYS;
  // return -1;
}
     2ea:	4501                	c.li	x10,0
     2ec:	8082                	c.jr	x1

000002ee <_fstatat>:

int _fstatat(int dirfd, const char *file, struct stat *st, int flags)
{
  errno = ENOSYS;
     2ee:	05800713          	addi	x14,x0,88
     2f2:	f0e1a823          	sw	x14,-240(x3) # e1c0 <errno>
  return -1;
}
     2f6:	557d                	c.li	x10,-1
     2f8:	8082                	c.jr	x1

000002fa <_ftime>:

int _ftime(struct timeb *tp)
     2fa:	05800713          	addi	x14,x0,88
     2fe:	f0e1a823          	sw	x14,-240(x3) # e1c0 <errno>
     302:	557d                	c.li	x10,-1
     304:	8082                	c.jr	x1

00000306 <_getcwd>:
  return -1;
}

char *_getcwd(char *buf, size_t size)
{
  errno = -ENOSYS;
     306:	fa800713          	addi	x14,x0,-88
     30a:	f0e1a823          	sw	x14,-240(x3) # e1c0 <errno>
  return NULL;
}
     30e:	4501                	c.li	x10,0
     310:	8082                	c.jr	x1

00000312 <_getpid>:

int _getpid()
{
  return 1;
}
     312:	4505                	c.li	x10,1
     314:	8082                	c.jr	x1

00000316 <_gettimeofday>:

int _gettimeofday(struct timeval *tp, void *tzp)
{
  errno = -ENOSYS;
     316:	fa800713          	addi	x14,x0,-88
     31a:	f0e1a823          	sw	x14,-240(x3) # e1c0 <errno>
  return -1;
}
     31e:	557d                	c.li	x10,-1
     320:	8082                	c.jr	x1

00000322 <_isatty>:

int _isatty(int file)
{
  return (file == STDOUT_FILENO);
     322:	157d                	c.addi	x10,-1
}
     324:	00153513          	sltiu	x10,x10,1
     328:	8082                	c.jr	x1

0000032a <_kill>:

int _kill(int pid, int sig)
{
  errno = EINVAL;
     32a:	4759                	c.li	x14,22
     32c:	f0e1a823          	sw	x14,-240(x3) # e1c0 <errno>
  return -1;
}
     330:	557d                	c.li	x10,-1
     332:	8082                	c.jr	x1

00000334 <_link>:

int _link(const char *old_name, const char *new_name)
{
  errno = EMLINK;
     334:	477d                	c.li	x14,31
     336:	f0e1a823          	sw	x14,-240(x3) # e1c0 <errno>
  return -1;
}
     33a:	557d                	c.li	x10,-1
     33c:	8082                	c.jr	x1

0000033e <_lseek>:

off_t _lseek(int file, off_t ptr, int dir)
{
  return 0;
}
     33e:	4501                	c.li	x10,0
     340:	8082                	c.jr	x1

00000342 <_lstat>:

int _lstat(const char *file, struct stat *st)
     342:	05800713          	addi	x14,x0,88
     346:	f0e1a823          	sw	x14,-240(x3) # e1c0 <errno>
     34a:	557d                	c.li	x10,-1
     34c:	8082                	c.jr	x1

0000034e <_open>:
}

int _open(const char *name, int flags, int mode)
{
  return -1;
}
     34e:	557d                	c.li	x10,-1
     350:	8082                	c.jr	x1

00000352 <_openat>:

int _openat(int dirfd, const char *name, int flags, int mode)
     352:	05800713          	addi	x14,x0,88
     356:	f0e1a823          	sw	x14,-240(x3) # e1c0 <errno>
     35a:	557d                	c.li	x10,-1
     35c:	8082                	c.jr	x1

0000035e <_read>:
}

ssize_t _read(int file, void *ptr, size_t len)
{
  return 0;
}
     35e:	4501                	c.li	x10,0
     360:	8082                	c.jr	x1

00000362 <_stat>:

int _stat(const char *file, struct stat *st)
{
  st->st_mode = S_IFCHR;
     362:	6789                	c.lui	x15,0x2
     364:	c1dc                	c.sw	x15,4(x11)
  return 0;
  // errno = ENOSYS;
  // return -1;
}
     366:	4501                	c.li	x10,0
     368:	8082                	c.jr	x1

0000036a <_sysconf>:

long _sysconf(int name)
     36a:	557d                	c.li	x10,-1
     36c:	8082                	c.jr	x1

0000036e <_times>:
}

clock_t _times(struct tms *buf)
{
  return -1;
}
     36e:	557d                	c.li	x10,-1
     370:	8082                	c.jr	x1

00000372 <_unlink>:

int _unlink(const char *name)
{
  errno = ENOENT;
     372:	4709                	c.li	x14,2
     374:	f0e1a823          	sw	x14,-240(x3) # e1c0 <errno>
  return -1;
}
     378:	557d                	c.li	x10,-1
     37a:	8082                	c.jr	x1

0000037c <_utime>:

int _utime(const char *path, const struct utimbuf *times)
     37c:	05800713          	addi	x14,x0,88
     380:	f0e1a823          	sw	x14,-240(x3) # e1c0 <errno>
     384:	557d                	c.li	x10,-1
     386:	8082                	c.jr	x1

00000388 <_wait>:
  return -1;
}

int _wait(int *status)
{
  errno = ECHILD;
     388:	4729                	c.li	x14,10
     38a:	f0e1a823          	sw	x14,-240(x3) # e1c0 <errno>
  return -1;
}
     38e:	557d                	c.li	x10,-1
     390:	8082                	c.jr	x1

00000392 <_write>:

ssize_t _write(int file, const void *ptr, size_t len)
{
  const char *cptr = (char *)ptr;
  if (file != STDOUT_FILENO)
     392:	4685                	c.li	x13,1
    {
      errno = ENOSYS;
      return -1;
    }

  const void *eptr = cptr + len;
     394:	00c587b3          	add	x15,x11,x12
  while (cptr != eptr)
    *(volatile int *)STDOUT_REG = *cptr++;
     398:	10000737          	lui	x14,0x10000
  if (file != STDOUT_FILENO)
     39c:	00d50c63          	beq	x10,x13,3b4 <_write+0x22>
      errno = ENOSYS;
     3a0:	05800713          	addi	x14,x0,88
     3a4:	f0e1a823          	sw	x14,-240(x3) # e1c0 <errno>
      return -1;
     3a8:	557d                	c.li	x10,-1
     3aa:	8082                	c.jr	x1
    *(volatile int *)STDOUT_REG = *cptr++;
     3ac:	0005c683          	lbu	x13,0(x11)
     3b0:	0585                	c.addi	x11,1
     3b2:	c314                	c.sw	x13,0(x14)
  while (cptr != eptr)
     3b4:	fef59ce3          	bne	x11,x15,3ac <_write+0x1a>
  return len;
     3b8:	8532                	c.mv	x10,x12
}
     3ba:	8082                	c.jr	x1

000003bc <_brk>:
extern char __heap_end[];
static char *brk = __heap_start;

int _brk(void *addr)
{
  brk = addr;
     3bc:	f0a1a023          	sw	x10,-256(x3) # e1b0 <brk>
  return 0;
}
     3c0:	4501                	c.li	x10,0
     3c2:	8082                	c.jr	x1

000003c4 <_sbrk>:

void *_sbrk(ptrdiff_t incr)
{
     3c4:	87aa                	c.mv	x15,x10
  char *old_brk = brk;
     3c6:	f001a503          	lw	x10,-256(x3) # e1b0 <brk>
  register long sp asm("sp");

  char *new_brk = brk += incr;
     3ca:	97aa                	c.add	x15,x10
     3cc:	f0f1a023          	sw	x15,-256(x3) # e1b0 <brk>
  if (new_brk < (char *) sp && new_brk < __heap_end)
     3d0:	0027f863          	bgeu	x15,x2,3e0 <_sbrk+0x1c>
     3d4:	00400737          	lui	x14,0x400
     3d8:	00070713          	addi	x14,x14,0 # 400000 <__heap_end>
     3dc:	00e7e663          	bltu	x15,x14,3e8 <_sbrk+0x24>

      return old_brk;
    }
  else
    {
      errno = ENOMEM;
     3e0:	4731                	c.li	x14,12
     3e2:	f0e1a823          	sw	x14,-240(x3) # e1c0 <errno>
      return (void *) -1;
     3e6:	557d                	c.li	x10,-1
    }
}
     3e8:	8082                	c.jr	x1

000003ea <handle_syscall>:
    register long syscall_id asm("t0");
  #else
    long syscall_id = a7;
  #endif

  switch (syscall_id) {
     3ea:	08100793          	addi	x15,x0,129
     3ee:	0af88c63          	beq	x17,x15,4a6 <handle_syscall+0xbc>
     3f2:	0717c763          	blt	x15,x17,460 <handle_syscall+0x76>
     3f6:	04000793          	addi	x15,x0,64
     3fa:	0517c663          	blt	x15,x17,446 <handle_syscall+0x5c>
     3fe:	02f00793          	addi	x15,x0,47
     402:	0317c563          	blt	x15,x17,42c <handle_syscall+0x42>
     406:	47c5                	c.li	x15,17
     408:	04f89b63          	bne	x17,x15,45e <handle_syscall+0x74>
  errno = -ENOSYS;
     40c:	fa800713          	addi	x14,x0,-88
     410:	a861                	c.j	4a8 <handle_syscall+0xbe>
  switch (syscall_id) {
     412:	c0088893          	addi	x17,x17,-1024
     416:	47bd                	c.li	x15,15
     418:	0517e363          	bltu	x15,x17,45e <handle_syscall+0x74>
     41c:	67b5                	c.lui	x15,0xd
     41e:	28878793          	addi	x15,x15,648 # d288 <no_exception_handler_msg+0x31>
     422:	088a                	c.slli	x17,0x2
     424:	98be                	c.add	x17,x15
     426:	0008a783          	lw	x15,0(x17)
     42a:	8782                	c.jr	x15
     42c:	fd088893          	addi	x17,x17,-48
     430:	47c1                	c.li	x15,16
     432:	0317e663          	bltu	x15,x17,45e <handle_syscall+0x74>
     436:	67b5                	c.lui	x15,0xd
     438:	2c878793          	addi	x15,x15,712 # d2c8 <no_exception_handler_msg+0x71>
     43c:	088a                	c.slli	x17,0x2
     43e:	98be                	c.add	x17,x15
     440:	0008a783          	lw	x15,0(x17)
     444:	8782                	c.jr	x15
     446:	05000793          	addi	x15,x0,80
     44a:	06f88963          	beq	x17,x15,4bc <handle_syscall+0xd2>
     44e:	05d00793          	addi	x15,x0,93
     452:	04f88363          	beq	x17,x15,498 <handle_syscall+0xae>
     456:	04f00793          	addi	x15,x0,79
     45a:	04f88a63          	beq	x17,x15,4ae <handle_syscall+0xc4>
      break;
    case SYS_times:
      _times ((struct tms *) a0);
      break;
    default:
      unimplemented_syscall ();
     45e:	b511                	c.j	262 <unimplemented_syscall>
  switch (syscall_id) {
     460:	40f00793          	addi	x15,x0,1039
     464:	ff17cde3          	blt	x15,x17,45e <handle_syscall+0x74>
     468:	3ff00793          	addi	x15,x0,1023
     46c:	fb17c3e3          	blt	x15,x17,412 <handle_syscall+0x28>
     470:	0ac00793          	addi	x15,x0,172
     474:	04f88763          	beq	x17,x15,4c2 <handle_syscall+0xd8>
     478:	0117c963          	blt	x15,x17,48a <handle_syscall+0xa0>
     47c:	09900793          	addi	x15,x0,153
     480:	04f88163          	beq	x17,x15,4c2 <handle_syscall+0xd8>
     484:	0a900793          	addi	x15,x0,169
     488:	b741                	c.j	408 <handle_syscall+0x1e>
     48a:	0d600793          	addi	x15,x0,214
     48e:	fcf898e3          	bne	x17,x15,45e <handle_syscall+0x74>
  brk = addr;
     492:	f0a1a023          	sw	x10,-256(x3) # e1b0 <brk>
  return 0;
     496:	8082                	c.jr	x1
  *(volatile int *)EXIT_REG = exit_status;
     498:	200007b7          	lui	x15,0x20000
     49c:	c3c8                	c.sw	x10,4(x15)
  asm volatile("wfi");
     49e:	10500073          	wfi
  while (1) {};
     4a2:	a001                	c.j	4a2 <handle_syscall+0xb8>
      _write (a0, (const void *) a1, a2);
     4a4:	b5fd                	c.j	392 <_write>
  errno = EINVAL;
     4a6:	4759                	c.li	x14,22
  errno = ENOSYS;
     4a8:	f0e1a823          	sw	x14,-240(x3) # e1c0 <errno>
  return -1;
     4ac:	8082                	c.jr	x1
  errno = ENOSYS;
     4ae:	05800713          	addi	x14,x0,88
     4b2:	bfdd                	c.j	4a8 <handle_syscall+0xbe>
  errno = EMLINK;
     4b4:	477d                	c.li	x14,31
     4b6:	bfcd                	c.j	4a8 <handle_syscall+0xbe>
  errno = ENOENT;
     4b8:	4709                	c.li	x14,2
     4ba:	b7fd                	c.j	4a8 <handle_syscall+0xbe>
  st->st_mode = S_IFCHR;
     4bc:	6789                	c.lui	x15,0x2
     4be:	c1dc                	c.sw	x15,4(x11)
  return 0;
     4c0:	8082                	c.jr	x1
      break;
  }
}
     4c2:	8082                	c.jr	x1

000004c4 <atoi>:
     4c4:	4629                	c.li	x12,10
     4c6:	4581                	c.li	x11,0
     4c8:	aaad                	c.j	642 <strtol>

000004ca <_atoi_r>:
     4ca:	46a9                	c.li	x13,10
     4cc:	4601                	c.li	x12,0
     4ce:	a28d                	c.j	630 <_strtol_r>

000004d0 <_strtol_l.isra.0>:
     4d0:	1141                	c.addi	x2,-16
     4d2:	c606                	c.swsp	x1,12(x2)
     4d4:	02400793          	addi	x15,x0,36
     4d8:	08d7ee63          	bltu	x15,x13,574 <_strtol_l.isra.0+0xa4>
     4dc:	4705                	c.li	x14,1
     4de:	82b6                	c.mv	x5,x13
     4e0:	87ae                	c.mv	x15,x11
     4e2:	0000d897          	auipc	x17,0xd
     4e6:	e2b88893          	addi	x17,x17,-469 # d30d <_ctype_+0x1>
     4ea:	08e68563          	beq	x13,x14,574 <_strtol_l.isra.0+0xa4>
     4ee:	c422                	c.swsp	x8,8(x2)
     4f0:	c226                	c.swsp	x9,4(x2)
     4f2:	833e                	c.mv	x6,x15
     4f4:	0007c803          	lbu	x16,0(x15) # 2000 <_vfprintf_r+0x12b0>
     4f8:	01088733          	add	x14,x17,x16
     4fc:	00074703          	lbu	x14,0(x14)
     500:	8b21                	c.andi	x14,8
     502:	0785                	c.addi	x15,1
     504:	f77d                	c.bnez	x14,4f2 <_strtol_l.isra.0+0x22>
     506:	02d00713          	addi	x14,x0,45
     50a:	0ee80e63          	beq	x16,x14,606 <_strtol_l.isra.0+0x136>
     50e:	02b00713          	addi	x14,x0,43
     512:	800003b7          	lui	x7,0x80000
     516:	06e80763          	beq	x16,x14,584 <_strtol_l.isra.0+0xb4>
     51a:	13fd                	c.addi	x7,-1 # 7fffffff <__heap_end+0x7fbfffff>
     51c:	4481                	c.li	x9,0
     51e:	eab5                	c.bnez	x13,592 <_strtol_l.isra.0+0xc2>
     520:	42a9                	c.li	x5,10
     522:	03000713          	addi	x14,x0,48
     526:	8696                	c.mv	x13,x5
     528:	0ee80763          	beq	x16,x14,616 <_strtol_l.isra.0+0x146>
     52c:	0253f433          	remu	x8,x7,x5
     530:	4301                	c.li	x6,0
     532:	4881                	c.li	x17,0
     534:	4e25                	c.li	x28,9
     536:	4fe5                	c.li	x31,25
     538:	5efd                	c.li	x29,-1
     53a:	0253df33          	divu	x30,x7,x5
     53e:	fd080713          	addi	x14,x16,-48
     542:	00ee7863          	bgeu	x28,x14,552 <_strtol_l.isra.0+0x82>
     546:	fbf80713          	addi	x14,x16,-65
     54a:	06efea63          	bltu	x31,x14,5be <_strtol_l.isra.0+0xee>
     54e:	fc980713          	addi	x14,x16,-55
     552:	06d75e63          	bge	x14,x13,5ce <_strtol_l.isra.0+0xfe>
     556:	01d30b63          	beq	x6,x29,56c <_strtol_l.isra.0+0x9c>
     55a:	537d                	c.li	x6,-1
     55c:	011f6863          	bltu	x30,x17,56c <_strtol_l.isra.0+0x9c>
     560:	091f0763          	beq	x30,x17,5ee <_strtol_l.isra.0+0x11e>
     564:	4305                	c.li	x6,1
     566:	025888b3          	mul	x17,x17,x5
     56a:	98ba                	c.add	x17,x14
     56c:	0785                	c.addi	x15,1
     56e:	fff7c803          	lbu	x16,-1(x15)
     572:	b7f1                	c.j	53e <_strtol_l.isra.0+0x6e>
     574:	7e3020ef          	jal	x1,3556 <__errno>
     578:	47d9                	c.li	x15,22
     57a:	c11c                	c.sw	x15,0(x10)
     57c:	40b2                	c.lwsp	x1,12(x2)
     57e:	4501                	c.li	x10,0
     580:	0141                	c.addi	x2,16
     582:	8082                	c.jr	x1
     584:	0007c803          	lbu	x16,0(x15)
     588:	13fd                	c.addi	x7,-1
     58a:	00230793          	addi	x15,x6,2
     58e:	4481                	c.li	x9,0
     590:	dac1                	c.beqz	x13,520 <_strtol_l.isra.0+0x50>
     592:	4741                	c.li	x14,16
     594:	f8e69ce3          	bne	x13,x14,52c <_strtol_l.isra.0+0x5c>
     598:	03000713          	addi	x14,x0,48
     59c:	82b6                	c.mv	x5,x13
     59e:	f8e817e3          	bne	x16,x14,52c <_strtol_l.isra.0+0x5c>
     5a2:	0007c703          	lbu	x14,0(x15)
     5a6:	0df77713          	andi	x14,x14,223
     5aa:	05800893          	addi	x17,x0,88
     5ae:	f7171fe3          	bne	x14,x17,52c <_strtol_l.isra.0+0x5c>
     5b2:	42c1                	c.li	x5,16
     5b4:	0017c803          	lbu	x16,1(x15)
     5b8:	8696                	c.mv	x13,x5
     5ba:	0789                	c.addi	x15,2
     5bc:	bf85                	c.j	52c <_strtol_l.isra.0+0x5c>
     5be:	f9f80713          	addi	x14,x16,-97
     5c2:	00efe663          	bltu	x31,x14,5ce <_strtol_l.isra.0+0xfe>
     5c6:	fa980713          	addi	x14,x16,-87
     5ca:	f8d746e3          	blt	x14,x13,556 <_strtol_l.isra.0+0x86>
     5ce:	577d                	c.li	x14,-1
     5d0:	02e30263          	beq	x6,x14,5f4 <_strtol_l.isra.0+0x124>
     5d4:	c099                	c.beqz	x9,5da <_strtol_l.isra.0+0x10a>
     5d6:	411008b3          	sub	x17,x0,x17
     5da:	c601                	c.beqz	x12,5e2 <_strtol_l.isra.0+0x112>
     5dc:	04031863          	bne	x6,x0,62c <_strtol_l.isra.0+0x15c>
     5e0:	c20c                	c.sw	x11,0(x12)
     5e2:	4422                	c.lwsp	x8,8(x2)
     5e4:	40b2                	c.lwsp	x1,12(x2)
     5e6:	4492                	c.lwsp	x9,4(x2)
     5e8:	8546                	c.mv	x10,x17
     5ea:	0141                	c.addi	x2,16
     5ec:	8082                	c.jr	x1
     5ee:	f6e44fe3          	blt	x8,x14,56c <_strtol_l.isra.0+0x9c>
     5f2:	bf8d                	c.j	564 <_strtol_l.isra.0+0x94>
     5f4:	02200713          	addi	x14,x0,34
     5f8:	c118                	c.sw	x14,0(x10)
     5fa:	889e                	c.mv	x17,x7
     5fc:	d27d                	c.beqz	x12,5e2 <_strtol_l.isra.0+0x112>
     5fe:	fff78593          	addi	x11,x15,-1
     602:	889e                	c.mv	x17,x7
     604:	bff1                	c.j	5e0 <_strtol_l.isra.0+0x110>
     606:	0007c803          	lbu	x16,0(x15)
     60a:	800003b7          	lui	x7,0x80000
     60e:	00230793          	addi	x15,x6,2
     612:	4485                	c.li	x9,1
     614:	b729                	c.j	51e <_strtol_l.isra.0+0x4e>
     616:	0007c703          	lbu	x14,0(x15)
     61a:	0df77713          	andi	x14,x14,223
     61e:	05800693          	addi	x13,x0,88
     622:	f8d708e3          	beq	x14,x13,5b2 <_strtol_l.isra.0+0xe2>
     626:	42a1                	c.li	x5,8
     628:	8696                	c.mv	x13,x5
     62a:	b709                	c.j	52c <_strtol_l.isra.0+0x5c>
     62c:	83c6                	c.mv	x7,x17
     62e:	bfc1                	c.j	5fe <_strtol_l.isra.0+0x12e>

00000630 <_strtol_r>:
     630:	b545                	c.j	4d0 <_strtol_l.isra.0>

00000632 <strtol_l>:
     632:	872a                	c.mv	x14,x10
     634:	f041a503          	lw	x10,-252(x3) # e1b4 <_impure_ptr>
     638:	87ae                	c.mv	x15,x11
     63a:	86b2                	c.mv	x13,x12
     63c:	85ba                	c.mv	x11,x14
     63e:	863e                	c.mv	x12,x15
     640:	bd41                	c.j	4d0 <_strtol_l.isra.0>

00000642 <strtol>:
     642:	872a                	c.mv	x14,x10
     644:	f041a503          	lw	x10,-252(x3) # e1b4 <_impure_ptr>
     648:	87ae                	c.mv	x15,x11
     64a:	86b2                	c.mv	x13,x12
     64c:	85ba                	c.mv	x11,x14
     64e:	863e                	c.mv	x12,x15
     650:	b541                	c.j	4d0 <_strtol_l.isra.0>

00000652 <memset>:
     652:	433d                	c.li	x6,15
     654:	872a                	c.mv	x14,x10
     656:	02c37363          	bgeu	x6,x12,67c <memset+0x2a>
     65a:	00f77793          	andi	x15,x14,15
     65e:	efbd                	c.bnez	x15,6dc <memset+0x8a>
     660:	e5ad                	c.bnez	x11,6ca <memset+0x78>
     662:	ff067693          	andi	x13,x12,-16
     666:	8a3d                	c.andi	x12,15
     668:	96ba                	c.add	x13,x14
     66a:	c30c                	c.sw	x11,0(x14)
     66c:	c34c                	c.sw	x11,4(x14)
     66e:	c70c                	c.sw	x11,8(x14)
     670:	c74c                	c.sw	x11,12(x14)
     672:	0741                	c.addi	x14,16
     674:	fed76be3          	bltu	x14,x13,66a <memset+0x18>
     678:	e211                	c.bnez	x12,67c <memset+0x2a>
     67a:	8082                	c.jr	x1
     67c:	40c306b3          	sub	x13,x6,x12
     680:	068a                	c.slli	x13,0x2
     682:	00000297          	auipc	x5,0x0
     686:	9696                	c.add	x13,x5
     688:	00a68067          	jalr	x0,10(x13) # 1000000a <__heap_end+0xfc0000a>
     68c:	00b70723          	sb	x11,14(x14)
     690:	00b706a3          	sb	x11,13(x14)
     694:	00b70623          	sb	x11,12(x14)
     698:	00b705a3          	sb	x11,11(x14)
     69c:	00b70523          	sb	x11,10(x14)
     6a0:	00b704a3          	sb	x11,9(x14)
     6a4:	00b70423          	sb	x11,8(x14)
     6a8:	00b703a3          	sb	x11,7(x14)
     6ac:	00b70323          	sb	x11,6(x14)
     6b0:	00b702a3          	sb	x11,5(x14)
     6b4:	00b70223          	sb	x11,4(x14)
     6b8:	00b701a3          	sb	x11,3(x14)
     6bc:	00b70123          	sb	x11,2(x14)
     6c0:	00b700a3          	sb	x11,1(x14)
     6c4:	00b70023          	sb	x11,0(x14)
     6c8:	8082                	c.jr	x1
     6ca:	0ff5f593          	andi	x11,x11,255
     6ce:	00859693          	slli	x13,x11,0x8
     6d2:	8dd5                	c.or	x11,x13
     6d4:	01059693          	slli	x13,x11,0x10
     6d8:	8dd5                	c.or	x11,x13
     6da:	b761                	c.j	662 <memset+0x10>
     6dc:	00279693          	slli	x13,x15,0x2
     6e0:	00000297          	auipc	x5,0x0
     6e4:	9696                	c.add	x13,x5
     6e6:	8286                	c.mv	x5,x1
     6e8:	fa8680e7          	jalr	x1,-88(x13)
     6ec:	8096                	c.mv	x1,x5
     6ee:	17c1                	c.addi	x15,-16
     6f0:	8f1d                	c.sub	x14,x15
     6f2:	963e                	c.add	x12,x15
     6f4:	f8c374e3          	bgeu	x6,x12,67c <memset+0x2a>
     6f8:	b7a5                	c.j	660 <memset+0xe>

000006fa <_reclaim_reent>:
     6fa:	f041a783          	lw	x15,-252(x3) # e1b4 <_impure_ptr>
     6fe:	08a78063          	beq	x15,x10,77e <_reclaim_reent+0x84>
     702:	1101                	c.addi	x2,-32
     704:	ca26                	c.swsp	x9,20(x2)
     706:	ce06                	c.swsp	x1,28(x2)
     708:	cc22                	c.swsp	x8,24(x2)
     70a:	416c                	c.lw	x11,68(x10)
     70c:	84aa                	c.mv	x9,x10
     70e:	c98d                	c.beqz	x11,740 <_reclaim_reent+0x46>
     710:	c84a                	c.swsp	x18,16(x2)
     712:	c64e                	c.swsp	x19,12(x2)
     714:	4901                	c.li	x18,0
     716:	08000993          	addi	x19,x0,128
     71a:	012587b3          	add	x15,x11,x18
     71e:	4380                	c.lw	x8,0(x15)
     720:	c801                	c.beqz	x8,730 <_reclaim_reent+0x36>
     722:	85a2                	c.mv	x11,x8
     724:	8526                	c.mv	x10,x9
     726:	4000                	c.lw	x8,0(x8)
     728:	5d8030ef          	jal	x1,3d00 <_free_r>
     72c:	f87d                	c.bnez	x8,722 <_reclaim_reent+0x28>
     72e:	40ec                	c.lw	x11,68(x9)
     730:	0911                	c.addi	x18,4
     732:	ff3914e3          	bne	x18,x19,71a <_reclaim_reent+0x20>
     736:	8526                	c.mv	x10,x9
     738:	5c8030ef          	jal	x1,3d00 <_free_r>
     73c:	4942                	c.lwsp	x18,16(x2)
     73e:	49b2                	c.lwsp	x19,12(x2)
     740:	5c8c                	c.lw	x11,56(x9)
     742:	c581                	c.beqz	x11,74a <_reclaim_reent+0x50>
     744:	8526                	c.mv	x10,x9
     746:	5ba030ef          	jal	x1,3d00 <_free_r>
     74a:	40a0                	c.lw	x8,64(x9)
     74c:	c419                	c.beqz	x8,75a <_reclaim_reent+0x60>
     74e:	85a2                	c.mv	x11,x8
     750:	8526                	c.mv	x10,x9
     752:	4000                	c.lw	x8,0(x8)
     754:	5ac030ef          	jal	x1,3d00 <_free_r>
     758:	f87d                	c.bnez	x8,74e <_reclaim_reent+0x54>
     75a:	44ec                	c.lw	x11,76(x9)
     75c:	c581                	c.beqz	x11,764 <_reclaim_reent+0x6a>
     75e:	8526                	c.mv	x10,x9
     760:	5a0030ef          	jal	x1,3d00 <_free_r>
     764:	58dc                	c.lw	x15,52(x9)
     766:	c799                	c.beqz	x15,774 <_reclaim_reent+0x7a>
     768:	4462                	c.lwsp	x8,24(x2)
     76a:	40f2                	c.lwsp	x1,28(x2)
     76c:	8526                	c.mv	x10,x9
     76e:	44d2                	c.lwsp	x9,20(x2)
     770:	6105                	c.addi16sp	x2,32
     772:	8782                	c.jr	x15
     774:	40f2                	c.lwsp	x1,28(x2)
     776:	4462                	c.lwsp	x8,24(x2)
     778:	44d2                	c.lwsp	x9,20(x2)
     77a:	6105                	c.addi16sp	x2,32
     77c:	8082                	c.jr	x1
     77e:	8082                	c.jr	x1

00000780 <__libc_init_array>:
     780:	1141                	c.addi	x2,-16
     782:	c422                	c.swsp	x8,8(x2)
     784:	c04a                	c.swsp	x18,0(x2)
     786:	0000d797          	auipc	x15,0xd
     78a:	32678793          	addi	x15,x15,806 # daac <__init_array_start>
     78e:	0000d417          	auipc	x8,0xd
     792:	31e40413          	addi	x8,x8,798 # daac <__init_array_start>
     796:	c606                	c.swsp	x1,12(x2)
     798:	c226                	c.swsp	x9,4(x2)
     79a:	40878933          	sub	x18,x15,x8
     79e:	00878b63          	beq	x15,x8,7b4 <__libc_init_array+0x34>
     7a2:	40295913          	srai	x18,x18,0x2
     7a6:	4481                	c.li	x9,0
     7a8:	401c                	c.lw	x15,0(x8)
     7aa:	0485                	c.addi	x9,1
     7ac:	9782                	c.jalr	x15
     7ae:	0411                	c.addi	x8,4
     7b0:	ff24ece3          	bltu	x9,x18,7a8 <__libc_init_array+0x28>
     7b4:	0000d797          	auipc	x15,0xd
     7b8:	2fc78793          	addi	x15,x15,764 # dab0 <_impure_data>
     7bc:	0000d417          	auipc	x8,0xd
     7c0:	2f040413          	addi	x8,x8,752 # daac <__init_array_start>
     7c4:	40878933          	sub	x18,x15,x8
     7c8:	40295913          	srai	x18,x18,0x2
     7cc:	00878963          	beq	x15,x8,7de <__libc_init_array+0x5e>
     7d0:	4481                	c.li	x9,0
     7d2:	401c                	c.lw	x15,0(x8)
     7d4:	0485                	c.addi	x9,1
     7d6:	9782                	c.jalr	x15
     7d8:	0411                	c.addi	x8,4
     7da:	ff24ece3          	bltu	x9,x18,7d2 <__libc_init_array+0x52>
     7de:	40b2                	c.lwsp	x1,12(x2)
     7e0:	4422                	c.lwsp	x8,8(x2)
     7e2:	4492                	c.lwsp	x9,4(x2)
     7e4:	4902                	c.lwsp	x18,0(x2)
     7e6:	0141                	c.addi	x2,16
     7e8:	8082                	c.jr	x1

000007ea <_puts_r>:
     7ea:	7139                	c.addi16sp	x2,-64
     7ec:	dc22                	c.swsp	x8,56(x2)
     7ee:	842a                	c.mv	x8,x10
     7f0:	852e                	c.mv	x10,x11
     7f2:	da26                	c.swsp	x9,52(x2)
     7f4:	de06                	c.swsp	x1,60(x2)
     7f6:	84ae                	c.mv	x9,x11
     7f8:	2975                	c.jal	cb4 <strlen>
     7fa:	00150593          	addi	x11,x10,1
     7fe:	4789                	c.li	x15,2
     800:	0000d617          	auipc	x12,0xd
     804:	83460613          	addi	x12,x12,-1996 # d034 <__clzsi2+0x94>
     808:	4685                	c.li	x13,1
     80a:	1018                	c.addi4spn	x14,x2,32
     80c:	ce2e                	c.swsp	x11,28(x2)
     80e:	cc3e                	c.swsp	x15,24(x2)
     810:	d026                	c.swsp	x9,32(x2)
     812:	d22a                	c.swsp	x10,36(x2)
     814:	d432                	c.swsp	x12,40(x2)
     816:	d636                	c.swsp	x13,44(x2)
     818:	ca3a                	c.swsp	x14,20(x2)
     81a:	585c                	c.lw	x15,52(x8)
     81c:	440c                	c.lw	x11,8(x8)
     81e:	c3a1                	c.beqz	x15,85e <_puts_r+0x74>
     820:	00c59783          	lh	x15,12(x11)
     824:	51f8                	c.lw	x14,100(x11)
     826:	6609                	c.lui	x12,0x2
     828:	01279693          	slli	x13,x15,0x12
     82c:	0206c363          	blt	x13,x0,852 <_puts_r+0x68>
     830:	76f9                	c.lui	x13,0xffffe
     832:	16fd                	c.addi	x13,-1 # ffffdfff <__heap_end+0xffbfdfff>
     834:	8fd1                	c.or	x15,x12
     836:	8f75                	c.and	x14,x13
     838:	00f59623          	sh	x15,12(x11)
     83c:	d1f8                	c.sw	x14,100(x11)
     83e:	8522                	c.mv	x10,x8
     840:	0850                	c.addi4spn	x12,x2,20
     842:	2805                	c.jal	872 <__sfvwrite_r>
     844:	e919                	c.bnez	x10,85a <_puts_r+0x70>
     846:	4529                	c.li	x10,10
     848:	50f2                	c.lwsp	x1,60(x2)
     84a:	5462                	c.lwsp	x8,56(x2)
     84c:	54d2                	c.lwsp	x9,52(x2)
     84e:	6121                	c.addi16sp	x2,64
     850:	8082                	c.jr	x1
     852:	01271793          	slli	x15,x14,0x12
     856:	fe07d4e3          	bge	x15,x0,83e <_puts_r+0x54>
     85a:	557d                	c.li	x10,-1
     85c:	b7f5                	c.j	848 <_puts_r+0x5e>
     85e:	8522                	c.mv	x10,x8
     860:	c62e                	c.swsp	x11,12(x2)
     862:	4d8050ef          	jal	x1,5d3a <__sinit>
     866:	45b2                	c.lwsp	x11,12(x2)
     868:	bf65                	c.j	820 <_puts_r+0x36>

0000086a <puts>:
     86a:	85aa                	c.mv	x11,x10
     86c:	f041a503          	lw	x10,-252(x3) # e1b4 <_impure_ptr>
     870:	bfad                	c.j	7ea <_puts_r>

00000872 <__sfvwrite_r>:
     872:	461c                	c.lw	x15,8(x12)
     874:	18078763          	beq	x15,x0,a02 <__sfvwrite_r+0x190>
     878:	00c59703          	lh	x14,12(x11)
     87c:	7179                	c.addi16sp	x2,-48
     87e:	d422                	c.swsp	x8,40(x2)
     880:	cc52                	c.swsp	x20,24(x2)
     882:	ca56                	c.swsp	x21,20(x2)
     884:	d606                	c.swsp	x1,44(x2)
     886:	00877793          	andi	x15,x14,8
     88a:	8a32                	c.mv	x20,x12
     88c:	8aaa                	c.mv	x21,x10
     88e:	842e                	c.mv	x8,x11
     890:	c7ad                	c.beqz	x15,8fa <__sfvwrite_r+0x88>
     892:	499c                	c.lw	x15,16(x11)
     894:	c3bd                	c.beqz	x15,8fa <__sfvwrite_r+0x88>
     896:	d04a                	c.swsp	x18,32(x2)
     898:	d226                	c.swsp	x9,36(x2)
     89a:	ce4e                	c.swsp	x19,28(x2)
     89c:	c85a                	c.swsp	x22,16(x2)
     89e:	00277793          	andi	x15,x14,2
     8a2:	000a2903          	lw	x18,0(x20)
     8a6:	cbbd                	c.beqz	x15,91c <__sfvwrite_r+0xaa>
     8a8:	80000b37          	lui	x22,0x80000
     8ac:	c00b0b13          	addi	x22,x22,-1024 # 7ffffc00 <__heap_end+0x7fbffc00>
     8b0:	4981                	c.li	x19,0
     8b2:	4481                	c.li	x9,0
     8b4:	864e                	c.mv	x12,x19
     8b6:	8556                	c.mv	x10,x21
     8b8:	12048f63          	beq	x9,x0,9f6 <__sfvwrite_r+0x184>
     8bc:	800007b7          	lui	x15,0x80000
     8c0:	86a6                	c.mv	x13,x9
     8c2:	009b7463          	bgeu	x22,x9,8ca <__sfvwrite_r+0x58>
     8c6:	c0078693          	addi	x13,x15,-1024 # 7ffffc00 <__heap_end+0x7fbffc00>
     8ca:	505c                	c.lw	x15,36(x8)
     8cc:	4c4c                	c.lw	x11,28(x8)
     8ce:	9782                	c.jalr	x15
     8d0:	2ca05363          	bge	x0,x10,b96 <__sfvwrite_r+0x324>
     8d4:	008a2783          	lw	x15,8(x20)
     8d8:	8f89                	c.sub	x15,x10
     8da:	00fa2423          	sw	x15,8(x20)
     8de:	99aa                	c.add	x19,x10
     8e0:	8c89                	c.sub	x9,x10
     8e2:	fbe9                	c.bnez	x15,8b4 <__sfvwrite_r+0x42>
     8e4:	4501                	c.li	x10,0
     8e6:	5492                	c.lwsp	x9,36(x2)
     8e8:	5902                	c.lwsp	x18,32(x2)
     8ea:	49f2                	c.lwsp	x19,28(x2)
     8ec:	4b42                	c.lwsp	x22,16(x2)
     8ee:	50b2                	c.lwsp	x1,44(x2)
     8f0:	5422                	c.lwsp	x8,40(x2)
     8f2:	4a62                	c.lwsp	x20,24(x2)
     8f4:	4ad2                	c.lwsp	x21,20(x2)
     8f6:	6145                	c.addi16sp	x2,48
     8f8:	8082                	c.jr	x1
     8fa:	85a2                	c.mv	x11,x8
     8fc:	8556                	c.mv	x10,x21
     8fe:	21a030ef          	jal	x1,3b18 <__swsetup_r>
     902:	1a051c63          	bne	x10,x0,aba <__sfvwrite_r+0x248>
     906:	00c41703          	lh	x14,12(x8)
     90a:	d04a                	c.swsp	x18,32(x2)
     90c:	d226                	c.swsp	x9,36(x2)
     90e:	ce4e                	c.swsp	x19,28(x2)
     910:	c85a                	c.swsp	x22,16(x2)
     912:	00277793          	andi	x15,x14,2
     916:	000a2903          	lw	x18,0(x20)
     91a:	f7d9                	c.bnez	x15,8a8 <__sfvwrite_r+0x36>
     91c:	c65e                	c.swsp	x23,12(x2)
     91e:	c462                	c.swsp	x24,8(x2)
     920:	00177793          	andi	x15,x14,1
     924:	e3ed                	c.bnez	x15,a06 <__sfvwrite_r+0x194>
     926:	80000b37          	lui	x22,0x80000
     92a:	c266                	c.swsp	x25,4(x2)
     92c:	1b7d                	c.addi	x22,-1 # 7fffffff <__heap_end+0x7fbfffff>
     92e:	4b81                	c.li	x23,0
     930:	4981                	c.li	x19,0
     932:	0a098c63          	beq	x19,x0,9ea <__sfvwrite_r+0x178>
     936:	20077793          	andi	x15,x14,512
     93a:	4008                	c.lw	x10,0(x8)
     93c:	4404                	c.lw	x9,8(x8)
     93e:	18078063          	beq	x15,x0,abe <__sfvwrite_r+0x24c>
     942:	8c26                	c.mv	x24,x9
     944:	1e99e963          	bltu	x19,x9,b36 <__sfvwrite_r+0x2c4>
     948:	48077793          	andi	x15,x14,1152
     94c:	c7bd                	c.beqz	x15,9ba <__sfvwrite_r+0x148>
     94e:	4854                	c.lw	x13,20(x8)
     950:	00169793          	slli	x15,x13,0x1
     954:	97b6                	c.add	x15,x13
     956:	480c                	c.lw	x11,16(x8)
     958:	01f7d493          	srli	x9,x15,0x1f
     95c:	40b50c33          	sub	x24,x10,x11
     960:	94be                	c.add	x9,x15
     962:	001c0793          	addi	x15,x24,1
     966:	8485                	c.srai	x9,0x1
     968:	97ce                	c.add	x15,x19
     96a:	8626                	c.mv	x12,x9
     96c:	00f4f463          	bgeu	x9,x15,974 <__sfvwrite_r+0x102>
     970:	84be                	c.mv	x9,x15
     972:	863e                	c.mv	x12,x15
     974:	40077713          	andi	x14,x14,1024
     978:	1e070663          	beq	x14,x0,b64 <__sfvwrite_r+0x2f2>
     97c:	85b2                	c.mv	x11,x12
     97e:	8556                	c.mv	x10,x21
     980:	3dd020ef          	jal	x1,355c <_malloc_r>
     984:	8caa                	c.mv	x25,x10
     986:	20050b63          	beq	x10,x0,b9c <__sfvwrite_r+0x32a>
     98a:	8662                	c.mv	x12,x24
     98c:	480c                	c.lw	x11,16(x8)
     98e:	650020ef          	jal	x1,2fde <memcpy>
     992:	00c45783          	lhu	x15,12(x8)
     996:	b7f7f793          	andi	x15,x15,-1153
     99a:	0807e793          	ori	x15,x15,128
     99e:	00f41623          	sh	x15,12(x8)
     9a2:	018c8533          	add	x10,x25,x24
     9a6:	41848c33          	sub	x24,x9,x24
     9aa:	01842423          	sw	x24,8(x8)
     9ae:	c844                	c.sw	x9,20(x8)
     9b0:	01942823          	sw	x25,16(x8)
     9b4:	c008                	c.sw	x10,0(x8)
     9b6:	84ce                	c.mv	x9,x19
     9b8:	8c4e                	c.mv	x24,x19
     9ba:	85de                	c.mv	x11,x23
     9bc:	8662                	c.mv	x12,x24
     9be:	05a050ef          	jal	x1,5a18 <memmove>
     9c2:	401c                	c.lw	x15,0(x8)
     9c4:	4418                	c.lw	x14,8(x8)
     9c6:	97e2                	c.add	x15,x24
     9c8:	8f05                	c.sub	x14,x9
     9ca:	c01c                	c.sw	x15,0(x8)
     9cc:	84ce                	c.mv	x9,x19
     9ce:	008a2783          	lw	x15,8(x20)
     9d2:	c418                	c.sw	x14,8(x8)
     9d4:	8f85                	c.sub	x15,x9
     9d6:	00fa2423          	sw	x15,8(x20)
     9da:	4981                	c.li	x19,0
     9dc:	9ba6                	c.add	x23,x9
     9de:	10078f63          	beq	x15,x0,afc <__sfvwrite_r+0x28a>
     9e2:	00c41703          	lh	x14,12(x8)
     9e6:	f40998e3          	bne	x19,x0,936 <__sfvwrite_r+0xc4>
     9ea:	00092b83          	lw	x23,0(x18)
     9ee:	00492983          	lw	x19,4(x18)
     9f2:	0921                	c.addi	x18,8
     9f4:	bf3d                	c.j	932 <__sfvwrite_r+0xc0>
     9f6:	00092983          	lw	x19,0(x18)
     9fa:	00492483          	lw	x9,4(x18)
     9fe:	0921                	c.addi	x18,8
     a00:	bd55                	c.j	8b4 <__sfvwrite_r+0x42>
     a02:	4501                	c.li	x10,0
     a04:	8082                	c.jr	x1
     a06:	4b01                	c.li	x22,0
     a08:	4501                	c.li	x10,0
     a0a:	4c01                	c.li	x24,0
     a0c:	4981                	c.li	x19,0
     a0e:	04098c63          	beq	x19,x0,a66 <__sfvwrite_r+0x1f4>
     a12:	c135                	c.beqz	x10,a76 <__sfvwrite_r+0x204>
     a14:	87da                	c.mv	x15,x22
     a16:	8bce                	c.mv	x23,x19
     a18:	0137f363          	bgeu	x15,x19,a1e <__sfvwrite_r+0x1ac>
     a1c:	8bbe                	c.mv	x23,x15
     a1e:	4008                	c.lw	x10,0(x8)
     a20:	481c                	c.lw	x15,16(x8)
     a22:	4854                	c.lw	x13,20(x8)
     a24:	00a7f663          	bgeu	x15,x10,a30 <__sfvwrite_r+0x1be>
     a28:	4404                	c.lw	x9,8(x8)
     a2a:	94b6                	c.add	x9,x13
     a2c:	0574cf63          	blt	x9,x23,a8a <__sfvwrite_r+0x218>
     a30:	10dbcd63          	blt	x23,x13,b4a <__sfvwrite_r+0x2d8>
     a34:	505c                	c.lw	x15,36(x8)
     a36:	8662                	c.mv	x12,x24
     a38:	4c4c                	c.lw	x11,28(x8)
     a3a:	8556                	c.mv	x10,x21
     a3c:	9782                	c.jalr	x15
     a3e:	84aa                	c.mv	x9,x10
     a40:	06a05163          	bge	x0,x10,aa2 <__sfvwrite_r+0x230>
     a44:	409b0b33          	sub	x22,x22,x9
     a48:	4505                	c.li	x10,1
     a4a:	0e0b0963          	beq	x22,x0,b3c <__sfvwrite_r+0x2ca>
     a4e:	008a2783          	lw	x15,8(x20)
     a52:	8f85                	c.sub	x15,x9
     a54:	00fa2423          	sw	x15,8(x20)
     a58:	9c26                	c.add	x24,x9
     a5a:	409989b3          	sub	x19,x19,x9
     a5e:	fbc5                	c.bnez	x15,a0e <__sfvwrite_r+0x19c>
     a60:	4bb2                	c.lwsp	x23,12(x2)
     a62:	4c22                	c.lwsp	x24,8(x2)
     a64:	b541                	c.j	8e4 <__sfvwrite_r+0x72>
     a66:	00492983          	lw	x19,4(x18)
     a6a:	87ca                	c.mv	x15,x18
     a6c:	0921                	c.addi	x18,8
     a6e:	fe098ce3          	beq	x19,x0,a66 <__sfvwrite_r+0x1f4>
     a72:	0007ac03          	lw	x24,0(x15)
     a76:	864e                	c.mv	x12,x19
     a78:	45a9                	c.li	x11,10
     a7a:	8562                	c.mv	x10,x24
     a7c:	22b9                	c.jal	bca <memchr>
     a7e:	10050863          	beq	x10,x0,b8e <__sfvwrite_r+0x31c>
     a82:	0505                	c.addi	x10,1
     a84:	41850b33          	sub	x22,x10,x24
     a88:	b771                	c.j	a14 <__sfvwrite_r+0x1a2>
     a8a:	85e2                	c.mv	x11,x24
     a8c:	8626                	c.mv	x12,x9
     a8e:	78b040ef          	jal	x1,5a18 <memmove>
     a92:	401c                	c.lw	x15,0(x8)
     a94:	97a6                	c.add	x15,x9
     a96:	c01c                	c.sw	x15,0(x8)
     a98:	85a2                	c.mv	x11,x8
     a9a:	8556                	c.mv	x10,x21
     a9c:	233020ef          	jal	x1,34ce <_fflush_r>
     aa0:	d155                	c.beqz	x10,a44 <__sfvwrite_r+0x1d2>
     aa2:	00c41783          	lh	x15,12(x8)
     aa6:	4bb2                	c.lwsp	x23,12(x2)
     aa8:	4c22                	c.lwsp	x24,8(x2)
     aaa:	0407e793          	ori	x15,x15,64
     aae:	00f41623          	sh	x15,12(x8)
     ab2:	5492                	c.lwsp	x9,36(x2)
     ab4:	5902                	c.lwsp	x18,32(x2)
     ab6:	49f2                	c.lwsp	x19,28(x2)
     ab8:	4b42                	c.lwsp	x22,16(x2)
     aba:	557d                	c.li	x10,-1
     abc:	bd0d                	c.j	8ee <__sfvwrite_r+0x7c>
     abe:	481c                	c.lw	x15,16(x8)
     ac0:	04a7e263          	bltu	x15,x10,b04 <__sfvwrite_r+0x292>
     ac4:	485c                	c.lw	x15,20(x8)
     ac6:	02f9ef63          	bltu	x19,x15,b04 <__sfvwrite_r+0x292>
     aca:	86ce                	c.mv	x13,x19
     acc:	013b7363          	bgeu	x22,x19,ad2 <__sfvwrite_r+0x260>
     ad0:	86da                	c.mv	x13,x22
     ad2:	02f6e7b3          	rem	x15,x13,x15
     ad6:	5058                	c.lw	x14,36(x8)
     ad8:	865e                	c.mv	x12,x23
     ada:	4c4c                	c.lw	x11,28(x8)
     adc:	8556                	c.mv	x10,x21
     ade:	8e9d                	c.sub	x13,x15
     ae0:	9702                	c.jalr	x14
     ae2:	84aa                	c.mv	x9,x10
     ae4:	04a05363          	bge	x0,x10,b2a <__sfvwrite_r+0x2b8>
     ae8:	008a2783          	lw	x15,8(x20)
     aec:	8f85                	c.sub	x15,x9
     aee:	00fa2423          	sw	x15,8(x20)
     af2:	409989b3          	sub	x19,x19,x9
     af6:	9ba6                	c.add	x23,x9
     af8:	ee0795e3          	bne	x15,x0,9e2 <__sfvwrite_r+0x170>
     afc:	4bb2                	c.lwsp	x23,12(x2)
     afe:	4c22                	c.lwsp	x24,8(x2)
     b00:	4c92                	c.lwsp	x25,4(x2)
     b02:	b3cd                	c.j	8e4 <__sfvwrite_r+0x72>
     b04:	0099f363          	bgeu	x19,x9,b0a <__sfvwrite_r+0x298>
     b08:	84ce                	c.mv	x9,x19
     b0a:	8626                	c.mv	x12,x9
     b0c:	85de                	c.mv	x11,x23
     b0e:	70b040ef          	jal	x1,5a18 <memmove>
     b12:	4018                	c.lw	x14,0(x8)
     b14:	441c                	c.lw	x15,8(x8)
     b16:	9726                	c.add	x14,x9
     b18:	8f85                	c.sub	x15,x9
     b1a:	c018                	c.sw	x14,0(x8)
     b1c:	c41c                	c.sw	x15,8(x8)
     b1e:	f7e9                	c.bnez	x15,ae8 <__sfvwrite_r+0x276>
     b20:	85a2                	c.mv	x11,x8
     b22:	8556                	c.mv	x10,x21
     b24:	1ab020ef          	jal	x1,34ce <_fflush_r>
     b28:	d161                	c.beqz	x10,ae8 <__sfvwrite_r+0x276>
     b2a:	00c41783          	lh	x15,12(x8)
     b2e:	4bb2                	c.lwsp	x23,12(x2)
     b30:	4c22                	c.lwsp	x24,8(x2)
     b32:	4c92                	c.lwsp	x25,4(x2)
     b34:	bf9d                	c.j	aaa <__sfvwrite_r+0x238>
     b36:	84ce                	c.mv	x9,x19
     b38:	8c4e                	c.mv	x24,x19
     b3a:	b541                	c.j	9ba <__sfvwrite_r+0x148>
     b3c:	85a2                	c.mv	x11,x8
     b3e:	8556                	c.mv	x10,x21
     b40:	18f020ef          	jal	x1,34ce <_fflush_r>
     b44:	f00505e3          	beq	x10,x0,a4e <__sfvwrite_r+0x1dc>
     b48:	bfa9                	c.j	aa2 <__sfvwrite_r+0x230>
     b4a:	865e                	c.mv	x12,x23
     b4c:	85e2                	c.mv	x11,x24
     b4e:	6cb040ef          	jal	x1,5a18 <memmove>
     b52:	4418                	c.lw	x14,8(x8)
     b54:	401c                	c.lw	x15,0(x8)
     b56:	41770733          	sub	x14,x14,x23
     b5a:	97de                	c.add	x15,x23
     b5c:	c418                	c.sw	x14,8(x8)
     b5e:	c01c                	c.sw	x15,0(x8)
     b60:	84de                	c.mv	x9,x23
     b62:	b5cd                	c.j	a44 <__sfvwrite_r+0x1d2>
     b64:	8556                	c.mv	x10,x21
     b66:	2bb040ef          	jal	x1,5620 <_realloc_r>
     b6a:	8caa                	c.mv	x25,x10
     b6c:	e2051be3          	bne	x10,x0,9a2 <__sfvwrite_r+0x130>
     b70:	480c                	c.lw	x11,16(x8)
     b72:	8556                	c.mv	x10,x21
     b74:	18c030ef          	jal	x1,3d00 <_free_r>
     b78:	00c41783          	lh	x15,12(x8)
     b7c:	4731                	c.li	x14,12
     b7e:	00eaa023          	sw	x14,0(x21)
     b82:	f7f7f793          	andi	x15,x15,-129
     b86:	4bb2                	c.lwsp	x23,12(x2)
     b88:	4c22                	c.lwsp	x24,8(x2)
     b8a:	4c92                	c.lwsp	x25,4(x2)
     b8c:	bf39                	c.j	aaa <__sfvwrite_r+0x238>
     b8e:	00198793          	addi	x15,x19,1
     b92:	8b3e                	c.mv	x22,x15
     b94:	b549                	c.j	a16 <__sfvwrite_r+0x1a4>
     b96:	00c41783          	lh	x15,12(x8)
     b9a:	bf01                	c.j	aaa <__sfvwrite_r+0x238>
     b9c:	47b1                	c.li	x15,12
     b9e:	00faa023          	sw	x15,0(x21)
     ba2:	4bb2                	c.lwsp	x23,12(x2)
     ba4:	00c41783          	lh	x15,12(x8)
     ba8:	4c22                	c.lwsp	x24,8(x2)
     baa:	4c92                	c.lwsp	x25,4(x2)
     bac:	bdfd                	c.j	aaa <__sfvwrite_r+0x238>

00000bae <exit>:
     bae:	1141                	c.addi	x2,-16
     bb0:	4581                	c.li	x11,0
     bb2:	c422                	c.swsp	x8,8(x2)
     bb4:	c606                	c.swsp	x1,12(x2)
     bb6:	842a                	c.mv	x8,x10
     bb8:	12f040ef          	jal	x1,54e6 <__call_exitprocs>
     bbc:	f241a783          	lw	x15,-220(x3) # e1d4 <__stdio_exit_handler>
     bc0:	c391                	c.beqz	x15,bc4 <exit+0x16>
     bc2:	9782                	c.jalr	x15
     bc4:	8522                	c.mv	x10,x8
     bc6:	efeff0ef          	jal	x1,2c4 <_exit>

00000bca <memchr>:
     bca:	00357713          	andi	x14,x10,3
     bce:	87aa                	c.mv	x15,x10
     bd0:	0ff5f813          	andi	x16,x11,255
     bd4:	832a                	c.mv	x6,x10
     bd6:	c70d                	c.beqz	x14,c00 <memchr+0x36>
     bd8:	00c508b3          	add	x17,x10,x12
     bdc:	a039                	c.j	bea <memchr+0x20>
     bde:	0007c683          	lbu	x13,0(x15)
     be2:	07068c63          	beq	x13,x16,c5a <memchr+0x90>
     be6:	cb11                	c.beqz	x14,bfa <memchr+0x30>
     be8:	87aa                	c.mv	x15,x10
     bea:	00178513          	addi	x10,x15,1
     bee:	00357713          	andi	x14,x10,3
     bf2:	fef896e3          	bne	x17,x15,bde <memchr+0x14>
     bf6:	4501                	c.li	x10,0
     bf8:	8082                	c.jr	x1
     bfa:	167d                	c.addi	x12,-1 # 1fff <_vfprintf_r+0x12af>
     bfc:	961a                	c.add	x12,x6
     bfe:	8e1d                	c.sub	x12,x15
     c00:	478d                	c.li	x15,3
     c02:	04c7f163          	bgeu	x15,x12,c44 <memchr+0x7a>
     c06:	0ff5f593          	andi	x11,x11,255
     c0a:	00859693          	slli	x13,x11,0x8
     c0e:	96ae                	c.add	x13,x11
     c10:	01069713          	slli	x14,x13,0x10
     c14:	feff0337          	lui	x6,0xfeff0
     c18:	808088b7          	lui	x17,0x80808
     c1c:	85be                	c.mv	x11,x15
     c1e:	96ba                	c.add	x13,x14
     c20:	eff30313          	addi	x6,x6,-257 # fefefeff <__heap_end+0xfebefeff>
     c24:	08088893          	addi	x17,x17,128 # 80808080 <__heap_end+0x80408080>
     c28:	411c                	c.lw	x15,0(x10)
     c2a:	8fb5                	c.xor	x15,x13
     c2c:	00678733          	add	x14,x15,x6
     c30:	fff7c793          	xori	x15,x15,-1
     c34:	8ff9                	c.and	x15,x14
     c36:	0117f7b3          	and	x15,x15,x17
     c3a:	e791                	c.bnez	x15,c46 <memchr+0x7c>
     c3c:	1671                	c.addi	x12,-4
     c3e:	0511                	c.addi	x10,4
     c40:	fec5e4e3          	bltu	x11,x12,c28 <memchr+0x5e>
     c44:	da4d                	c.beqz	x12,bf6 <memchr+0x2c>
     c46:	962a                	c.add	x12,x10
     c48:	a021                	c.j	c50 <memchr+0x86>
     c4a:	0505                	c.addi	x10,1
     c4c:	faa605e3          	beq	x12,x10,bf6 <memchr+0x2c>
     c50:	00054783          	lbu	x15,0(x10)
     c54:	ff079be3          	bne	x15,x16,c4a <memchr+0x80>
     c58:	8082                	c.jr	x1
     c5a:	853e                	c.mv	x10,x15
     c5c:	8082                	c.jr	x1

00000c5e <atexit>:
     c5e:	85aa                	c.mv	x11,x10
     c60:	4681                	c.li	x13,0
     c62:	4601                	c.li	x12,0
     c64:	4501                	c.li	x10,0
     c66:	1530406f          	jal	x0,55b8 <__register_exitproc>

00000c6a <_printf_r>:
     c6a:	7139                	c.addi16sp	x2,-64
     c6c:	d432                	c.swsp	x12,40(x2)
     c6e:	d636                	c.swsp	x13,44(x2)
     c70:	d83a                	c.swsp	x14,48(x2)
     c72:	da3e                	c.swsp	x15,52(x2)
     c74:	dc42                	c.swsp	x16,56(x2)
     c76:	de46                	c.swsp	x17,60(x2)
     c78:	1034                	c.addi4spn	x13,x2,40
     c7a:	862e                	c.mv	x12,x11
     c7c:	450c                	c.lw	x11,8(x10)
     c7e:	ce06                	c.swsp	x1,28(x2)
     c80:	c636                	c.swsp	x13,12(x2)
     c82:	20f9                	c.jal	d50 <_vfprintf_r>
     c84:	40f2                	c.lwsp	x1,28(x2)
     c86:	6121                	c.addi16sp	x2,64
     c88:	8082                	c.jr	x1

00000c8a <printf>:
     c8a:	f041a303          	lw	x6,-252(x3) # e1b4 <_impure_ptr>
     c8e:	7139                	c.addi16sp	x2,-64
     c90:	d432                	c.swsp	x12,40(x2)
     c92:	d636                	c.swsp	x13,44(x2)
     c94:	d22e                	c.swsp	x11,36(x2)
     c96:	d83a                	c.swsp	x14,48(x2)
     c98:	da3e                	c.swsp	x15,52(x2)
     c9a:	dc42                	c.swsp	x16,56(x2)
     c9c:	de46                	c.swsp	x17,60(x2)
     c9e:	1054                	c.addi4spn	x13,x2,36
     ca0:	862a                	c.mv	x12,x10
     ca2:	00832583          	lw	x11,8(x6)
     ca6:	851a                	c.mv	x10,x6
     ca8:	ce06                	c.swsp	x1,28(x2)
     caa:	c636                	c.swsp	x13,12(x2)
     cac:	2055                	c.jal	d50 <_vfprintf_r>
     cae:	40f2                	c.lwsp	x1,28(x2)
     cb0:	6121                	c.addi16sp	x2,64
     cb2:	8082                	c.jr	x1

00000cb4 <strlen>:
     cb4:	00357793          	andi	x15,x10,3
     cb8:	872a                	c.mv	x14,x10
     cba:	ef9d                	c.bnez	x15,cf8 <strlen+0x44>
     cbc:	7f7f86b7          	lui	x13,0x7f7f8
     cc0:	f7f68693          	addi	x13,x13,-129 # 7f7f7f7f <__heap_end+0x7f3f7f7f>
     cc4:	55fd                	c.li	x11,-1
     cc6:	4310                	c.lw	x12,0(x14)
     cc8:	00d677b3          	and	x15,x12,x13
     ccc:	97b6                	c.add	x15,x13
     cce:	8fd1                	c.or	x15,x12
     cd0:	8fd5                	c.or	x15,x13
     cd2:	0711                	c.addi	x14,4
     cd4:	feb789e3          	beq	x15,x11,cc6 <strlen+0x12>
     cd8:	ffc74683          	lbu	x13,-4(x14)
     cdc:	40a707b3          	sub	x15,x14,x10
     ce0:	ca8d                	c.beqz	x13,d12 <strlen+0x5e>
     ce2:	ffd74683          	lbu	x13,-3(x14)
     ce6:	c29d                	c.beqz	x13,d0c <strlen+0x58>
     ce8:	ffe74503          	lbu	x10,-2(x14)
     cec:	00a03533          	sltu	x10,x0,x10
     cf0:	953e                	c.add	x10,x15
     cf2:	1579                	c.addi	x10,-2
     cf4:	8082                	c.jr	x1
     cf6:	d2f9                	c.beqz	x13,cbc <strlen+0x8>
     cf8:	00074783          	lbu	x15,0(x14)
     cfc:	0705                	c.addi	x14,1
     cfe:	00377693          	andi	x13,x14,3
     d02:	fbf5                	c.bnez	x15,cf6 <strlen+0x42>
     d04:	8f09                	c.sub	x14,x10
     d06:	fff70513          	addi	x10,x14,-1
     d0a:	8082                	c.jr	x1
     d0c:	ffd78513          	addi	x10,x15,-3
     d10:	8082                	c.jr	x1
     d12:	ffc78513          	addi	x10,x15,-4
     d16:	8082                	c.jr	x1

00000d18 <__libc_fini_array>:
     d18:	1141                	c.addi	x2,-16
     d1a:	c422                	c.swsp	x8,8(x2)
     d1c:	0000d797          	auipc	x15,0xd
     d20:	d9478793          	addi	x15,x15,-620 # dab0 <_impure_data>
     d24:	0000d417          	auipc	x8,0xd
     d28:	d8c40413          	addi	x8,x8,-628 # dab0 <_impure_data>
     d2c:	8c1d                	c.sub	x8,x15
     d2e:	c226                	c.swsp	x9,4(x2)
     d30:	c606                	c.swsp	x1,12(x2)
     d32:	40245493          	srai	x9,x8,0x2
     d36:	c881                	c.beqz	x9,d46 <__libc_fini_array+0x2e>
     d38:	1471                	c.addi	x8,-4
     d3a:	943e                	c.add	x8,x15
     d3c:	401c                	c.lw	x15,0(x8)
     d3e:	14fd                	c.addi	x9,-1
     d40:	9782                	c.jalr	x15
     d42:	1471                	c.addi	x8,-4
     d44:	fce5                	c.bnez	x9,d3c <__libc_fini_array+0x24>
     d46:	40b2                	c.lwsp	x1,12(x2)
     d48:	4422                	c.lwsp	x8,8(x2)
     d4a:	4492                	c.lwsp	x9,4(x2)
     d4c:	0141                	c.addi	x2,16
     d4e:	8082                	c.jr	x1

00000d50 <_vfprintf_r>:
     d50:	7145                	c.addi16sp	x2,-464
     d52:	1c112623          	sw	x1,460(x2)
     d56:	1c812423          	sw	x8,456(x2)
     d5a:	1b912223          	sw	x25,420(x2)
     d5e:	c432                	c.swsp	x12,8(x2)
     d60:	8cae                	c.mv	x25,x11
     d62:	ca36                	c.swsp	x13,20(x2)
     d64:	842a                	c.mv	x8,x10
     d66:	c22a                	c.swsp	x10,4(x2)
     d68:	190060ef          	jal	x1,6ef8 <_localeconv_r>
     d6c:	411c                	c.lw	x15,0(x10)
     d6e:	853e                	c.mv	x10,x15
     d70:	d63e                	c.swsp	x15,44(x2)
     d72:	3789                	c.jal	cb4 <strlen>
     d74:	d22a                	c.swsp	x10,36(x2)
     d76:	c982                	c.swsp	x0,208(x2)
     d78:	cb82                	c.swsp	x0,212(x2)
     d7a:	cd82                	c.swsp	x0,216(x2)
     d7c:	cf82                	c.swsp	x0,220(x2)
     d7e:	47a2                	c.lwsp	x15,8(x2)
     d80:	c409                	c.beqz	x8,d8a <_vfprintf_r+0x3a>
     d82:	5858                	c.lw	x14,52(x8)
     d84:	e319                	c.bnez	x14,d8a <_vfprintf_r+0x3a>
     d86:	2fc0106f          	jal	x0,2082 <_vfprintf_r+0x1332>
     d8a:	00cc9703          	lh	x14,12(x25)
     d8e:	064ca683          	lw	x13,100(x25)
     d92:	6589                	c.lui	x11,0x2
     d94:	01271613          	slli	x12,x14,0x12
     d98:	26064963          	blt	x12,x0,100a <_vfprintf_r+0x2ba>
     d9c:	7679                	c.lui	x12,0xffffe
     d9e:	8f4d                	c.or	x14,x11
     da0:	167d                	c.addi	x12,-1 # ffffdfff <__heap_end+0xffbfdfff>
     da2:	8ef1                	c.and	x13,x12
     da4:	00ec9623          	sh	x14,12(x25)
     da8:	0742                	c.slli	x14,0x10
     daa:	8741                	c.srai	x14,0x10
     dac:	06dca223          	sw	x13,100(x25)
     db0:	00877693          	andi	x13,x14,8
     db4:	1e068a63          	beq	x13,x0,fa8 <_vfprintf_r+0x258>
     db8:	010ca683          	lw	x13,16(x25)
     dbc:	1e068663          	beq	x13,x0,fa8 <_vfprintf_r+0x258>
     dc0:	8b69                	c.andi	x14,26
     dc2:	46a9                	c.li	x13,10
     dc4:	1ed70f63          	beq	x14,x13,fc2 <_vfprintf_r+0x272>
     dc8:	1d212023          	sw	x18,448(x2)
     dcc:	1b312e23          	sw	x19,444(x2)
     dd0:	1b412c23          	sw	x20,440(x2)
     dd4:	1b512a23          	sw	x21,436(x2)
     dd8:	0ec10a13          	addi	x20,x2,236
     ddc:	1c912223          	sw	x9,452(x2)
     de0:	1b612823          	sw	x22,432(x2)
     de4:	1b712623          	sw	x23,428(x2)
     de8:	1b812423          	sw	x24,424(x2)
     dec:	1ba12023          	sw	x26,416(x2)
     df0:	19b12e23          	sw	x27,412(x2)
     df4:	8abe                	c.mv	x21,x15
     df6:	c782                	c.swsp	x0,204(x2)
     df8:	c582                	c.swsp	x0,200(x2)
     dfa:	c3d2                	c.swsp	x20,196(x2)
     dfc:	cc02                	c.swsp	x0,24(x2)
     dfe:	da02                	c.swsp	x0,52(x2)
     e00:	d402                	c.swsp	x0,40(x2)
     e02:	c082                	c.swsp	x0,64(x2)
     e04:	dc02                	c.swsp	x0,56(x2)
     e06:	c602                	c.swsp	x0,12(x2)
     e08:	c466                	c.swsp	x25,8(x2)
     e0a:	000ac783          	lbu	x15,0(x21)
     e0e:	8452                	c.mv	x8,x20
     e10:	02500913          	addi	x18,x0,37
     e14:	49c1                	c.li	x19,16
     e16:	16078e63          	beq	x15,x0,f92 <_vfprintf_r+0x242>
     e1a:	84d6                	c.mv	x9,x21
     e1c:	1d278863          	beq	x15,x18,fec <_vfprintf_r+0x29c>
     e20:	0014c783          	lbu	x15,1(x9)
     e24:	0485                	c.addi	x9,1
     e26:	fbfd                	c.bnez	x15,e1c <_vfprintf_r+0xcc>
     e28:	41548d33          	sub	x26,x9,x21
     e2c:	17548363          	beq	x9,x21,f92 <_vfprintf_r+0x242>
     e30:	47be                	c.lwsp	x15,204(x2)
     e32:	46ae                	c.lwsp	x13,200(x2)
     e34:	97ea                	c.add	x15,x26
     e36:	0685                	c.addi	x13,1
     e38:	01542023          	sw	x21,0(x8)
     e3c:	01a42223          	sw	x26,4(x8)
     e40:	c7be                	c.swsp	x15,204(x2)
     e42:	c5b6                	c.swsp	x13,200(x2)
     e44:	479d                	c.li	x15,7
     e46:	0421                	c.addi	x8,8
     e48:	1ad7c763          	blt	x15,x13,ff6 <_vfprintf_r+0x2a6>
     e4c:	47b2                	c.lwsp	x15,12(x2)
     e4e:	97ea                	c.add	x15,x26
     e50:	c63e                	c.swsp	x15,12(x2)
     e52:	0004c783          	lbu	x15,0(x9)
     e56:	12078e63          	beq	x15,x0,f92 <_vfprintf_r+0x242>
     e5a:	4301                	c.li	x6,0
     e5c:	00148c13          	addi	x24,x9,1
     e60:	0014c883          	lbu	x17,1(x9)
     e64:	0a0103a3          	sb	x0,167(x2)
     e68:	54fd                	c.li	x9,-1
     e6a:	4b81                	c.li	x23,0
     e6c:	05a00d13          	addi	x26,x0,90
     e70:	8b1a                	c.mv	x22,x6
     e72:	0c05                	c.addi	x24,1
     e74:	fe088793          	addi	x15,x17,-32
     e78:	04fd6163          	bltu	x26,x15,eba <_vfprintf_r+0x16a>
     e7c:	0000c717          	auipc	x14,0xc
     e80:	59470713          	addi	x14,x14,1428 # d410 <_ctype_+0x104>
     e84:	078a                	c.slli	x15,0x2
     e86:	97ba                	c.add	x15,x14
     e88:	439c                	c.lw	x15,0(x15)
     e8a:	97ba                	c.add	x15,x14
     e8c:	8782                	c.jr	x15
     e8e:	fd088793          	addi	x15,x17,-48
     e92:	4b01                	c.li	x22,0
     e94:	46a5                	c.li	x13,9
     e96:	002b1713          	slli	x14,x22,0x2
     e9a:	01670333          	add	x6,x14,x22
     e9e:	0306                	c.slli	x6,0x1
     ea0:	000c4883          	lbu	x17,0(x24)
     ea4:	00678b33          	add	x22,x15,x6
     ea8:	fd088793          	addi	x15,x17,-48
     eac:	0c05                	c.addi	x24,1
     eae:	fef6f4e3          	bgeu	x13,x15,e96 <_vfprintf_r+0x146>
     eb2:	fe088793          	addi	x15,x17,-32
     eb6:	fcfd73e3          	bgeu	x26,x15,e7c <_vfprintf_r+0x12c>
     eba:	835a                	c.mv	x6,x22
     ebc:	0c088b63          	beq	x17,x0,f92 <_vfprintf_r+0x242>
     ec0:	4d85                	c.li	x27,1
     ec2:	13110623          	sb	x17,300(x2)
     ec6:	0a0103a3          	sb	x0,167(x2)
     eca:	8d6e                	c.mv	x26,x27
     ecc:	c802                	c.swsp	x0,16(x2)
     ece:	4481                	c.li	x9,0
     ed0:	d002                	c.swsp	x0,32(x2)
     ed2:	ce02                	c.swsp	x0,28(x2)
     ed4:	4b01                	c.li	x22,0
     ed6:	12c10a93          	addi	x21,x2,300
     eda:	463e                	c.lwsp	x12,204(x2)
     edc:	084bfc93          	andi	x25,x23,132
     ee0:	85b2                	c.mv	x11,x12
     ee2:	3c0c8663          	beq	x25,x0,12ae <_vfprintf_r+0x55e>
     ee6:	0a714783          	lbu	x15,167(x2)
     eea:	cf95                	c.beqz	x15,f26 <_vfprintf_r+0x1d6>
     eec:	452e                	c.lwsp	x10,200(x2)
     eee:	4781                	c.li	x15,0
     ef0:	4685                	c.li	x13,1
     ef2:	0605                	c.addi	x12,1
     ef4:	0505                	c.addi	x10,1
     ef6:	0a710593          	addi	x11,x2,167
     efa:	c054                	c.sw	x13,4(x8)
     efc:	c00c                	c.sw	x11,0(x8)
     efe:	c7b2                	c.swsp	x12,204(x2)
     f00:	c5aa                	c.swsp	x10,200(x2)
     f02:	469d                	c.li	x13,7
     f04:	0421                	c.addi	x8,8
     f06:	1ea6c363          	blt	x13,x10,10ec <_vfprintf_r+0x39c>
     f0a:	cf91                	c.beqz	x15,f26 <_vfprintf_r+0x1d6>
     f0c:	452e                	c.lwsp	x10,200(x2)
     f0e:	4789                	c.li	x15,2
     f10:	0609                	c.addi	x12,2
     f12:	0505                	c.addi	x10,1
     f14:	1134                	c.addi4spn	x13,x2,168
     f16:	c05c                	c.sw	x15,4(x8)
     f18:	c014                	c.sw	x13,0(x8)
     f1a:	c7b2                	c.swsp	x12,204(x2)
     f1c:	c5aa                	c.swsp	x10,200(x2)
     f1e:	479d                	c.li	x15,7
     f20:	0421                	c.addi	x8,8
     f22:	2ea7c1e3          	blt	x15,x10,1a04 <_vfprintf_r+0xcb4>
     f26:	08000793          	addi	x15,x0,128
     f2a:	1cfc87e3          	beq	x25,x15,18f8 <_vfprintf_r+0xba8>
     f2e:	41b484b3          	sub	x9,x9,x27
     f32:	38904a63          	blt	x0,x9,12c6 <_vfprintf_r+0x576>
     f36:	100bf793          	andi	x15,x23,256
     f3a:	42079263          	bne	x15,x0,135e <_vfprintf_r+0x60e>
     f3e:	47ae                	c.lwsp	x15,200(x2)
     f40:	966e                	c.add	x12,x27
     f42:	0785                	c.addi	x15,1
     f44:	c7b2                	c.swsp	x12,204(x2)
     f46:	01542023          	sw	x21,0(x8)
     f4a:	01b42223          	sw	x27,4(x8)
     f4e:	c5be                	c.swsp	x15,200(x2)
     f50:	469d                	c.li	x13,7
     f52:	26f6c163          	blt	x13,x15,11b4 <_vfprintf_r+0x464>
     f56:	0421                	c.addi	x8,8
     f58:	004bfe13          	andi	x28,x23,4
     f5c:	000e0663          	beq	x28,x0,f68 <_vfprintf_r+0x218>
     f60:	41a304b3          	sub	x9,x6,x26
     f64:	26904463          	blt	x0,x9,11cc <_vfprintf_r+0x47c>
     f68:	01a35363          	bge	x6,x26,f6e <_vfprintf_r+0x21e>
     f6c:	836a                	c.mv	x6,x26
     f6e:	47b2                	c.lwsp	x15,12(x2)
     f70:	979a                	c.add	x15,x6
     f72:	c63e                	c.swsp	x15,12(x2)
     f74:	220616e3          	bne	x12,x0,19a0 <_vfprintf_r+0xc50>
     f78:	c582                	c.swsp	x0,200(x2)
     f7a:	47c2                	c.lwsp	x15,16(x2)
     f7c:	c789                	c.beqz	x15,f86 <_vfprintf_r+0x236>
     f7e:	45c2                	c.lwsp	x11,16(x2)
     f80:	4512                	c.lwsp	x10,4(x2)
     f82:	57f020ef          	jal	x1,3d00 <_free_r>
     f86:	8452                	c.mv	x8,x20
     f88:	8ae2                	c.mv	x21,x24
     f8a:	000ac783          	lbu	x15,0(x21)
     f8e:	e80796e3          	bne	x15,x0,e1a <_vfprintf_r+0xca>
     f92:	47be                	c.lwsp	x15,204(x2)
     f94:	4ca2                	c.lwsp	x25,8(x2)
     f96:	220784e3          	beq	x15,x0,19be <_vfprintf_r+0xc6e>
     f9a:	4512                	c.lwsp	x10,4(x2)
     f9c:	01d0                	c.addi4spn	x12,x2,196
     f9e:	85e6                	c.mv	x11,x25
     fa0:	1c6050ef          	jal	x1,6166 <__sprint_r>
     fa4:	21b0006f          	jal	x0,19be <_vfprintf_r+0xc6e>
     fa8:	85e6                	c.mv	x11,x25
     faa:	4512                	c.lwsp	x10,4(x2)
     fac:	c43e                	c.swsp	x15,8(x2)
     fae:	36b020ef          	jal	x1,3b18 <__swsetup_r>
     fb2:	e125                	c.bnez	x10,1012 <_vfprintf_r+0x2c2>
     fb4:	00cc9703          	lh	x14,12(x25)
     fb8:	46a9                	c.li	x13,10
     fba:	47a2                	c.lwsp	x15,8(x2)
     fbc:	8b69                	c.andi	x14,26
     fbe:	e0d715e3          	bne	x14,x13,dc8 <_vfprintf_r+0x78>
     fc2:	00ec9703          	lh	x14,14(x25)
     fc6:	e00741e3          	blt	x14,x0,dc8 <_vfprintf_r+0x78>
     fca:	46d2                	c.lwsp	x13,20(x2)
     fcc:	863e                	c.mv	x12,x15
     fce:	85e6                	c.mv	x11,x25
     fd0:	4512                	c.lwsp	x10,4(x2)
     fd2:	777010ef          	jal	x1,2f48 <__sbprintf>
     fd6:	c62a                	c.swsp	x10,12(x2)
     fd8:	21b0006f          	jal	x0,19f2 <_vfprintf_r+0xca2>
     fdc:	000c4883          	lbu	x17,0(x24)
     fe0:	bd49                	c.j	e72 <_vfprintf_r+0x122>
     fe2:	020beb93          	ori	x23,x23,32
     fe6:	000c4883          	lbu	x17,0(x24)
     fea:	b561                	c.j	e72 <_vfprintf_r+0x122>
     fec:	41548d33          	sub	x26,x9,x21
     ff0:	e75481e3          	beq	x9,x21,e52 <_vfprintf_r+0x102>
     ff4:	bd35                	c.j	e30 <_vfprintf_r+0xe0>
     ff6:	01d0                	c.addi4spn	x12,x2,196
     ff8:	45a2                	c.lwsp	x11,8(x2)
     ffa:	4512                	c.lwsp	x10,4(x2)
     ffc:	16a050ef          	jal	x1,6166 <__sprint_r>
    1000:	c119                	c.beqz	x10,1006 <_vfprintf_r+0x2b6>
    1002:	6650106f          	jal	x0,2e66 <_vfprintf_r+0x2116>
    1006:	8452                	c.mv	x8,x20
    1008:	b591                	c.j	e4c <_vfprintf_r+0xfc>
    100a:	01269613          	slli	x12,x13,0x12
    100e:	da0651e3          	bge	x12,x0,db0 <_vfprintf_r+0x60>
    1012:	57fd                	c.li	x15,-1
    1014:	c63e                	c.swsp	x15,12(x2)
    1016:	1dd0006f          	jal	x0,19f2 <_vfprintf_r+0xca2>
    101a:	008bf793          	andi	x15,x23,8
    101e:	835a                	c.mv	x6,x22
    1020:	44079ae3          	bne	x15,x0,1c74 <_vfprintf_r+0xf24>
    1024:	47d2                	c.lwsp	x15,20(x2)
    1026:	079d                	c.addi	x15,7
    1028:	9be1                	c.andi	x15,-8
    102a:	43d0                	c.lw	x12,4(x15)
    102c:	438c                	c.lw	x11,0(x15)
    102e:	0908                	c.addi4spn	x10,x2,144
    1030:	07a1                	c.addi	x15,8
    1032:	ce46                	c.swsp	x17,28(x2)
    1034:	ca3e                	c.swsp	x15,20(x2)
    1036:	c85a                	c.swsp	x22,16(x2)
    1038:	5d50b0ef          	jal	x1,ce0c <__extenddftf2>
    103c:	464a                	c.lwsp	x12,144(x2)
    103e:	46da                	c.lwsp	x13,148(x2)
    1040:	476a                	c.lwsp	x14,152(x2)
    1042:	47fa                	c.lwsp	x15,156(x2)
    1044:	48f2                	c.lwsp	x17,28(x2)
    1046:	4342                	c.lwsp	x6,16(x2)
    1048:	0988                	c.addi4spn	x10,x2,208
    104a:	ce46                	c.swsp	x17,28(x2)
    104c:	c81a                	c.swsp	x6,16(x2)
    104e:	cfbe                	c.swsp	x15,220(x2)
    1050:	c9b2                	c.swsp	x12,208(x2)
    1052:	cbb6                	c.swsp	x13,212(x2)
    1054:	cdba                	c.swsp	x14,216(x2)
    1056:	232020ef          	jal	x1,3288 <_ldcheck>
    105a:	d72a                	c.swsp	x10,172(x2)
    105c:	4789                	c.li	x15,2
    105e:	4342                	c.lwsp	x6,16(x2)
    1060:	48f2                	c.lwsp	x17,28(x2)
    1062:	00f51463          	bne	x10,x15,106a <_vfprintf_r+0x31a>
    1066:	06a0106f          	jal	x0,20d0 <_vfprintf_r+0x1380>
    106a:	4785                	c.li	x15,1
    106c:	00f51463          	bne	x10,x15,1074 <_vfprintf_r+0x324>
    1070:	1a20106f          	jal	x0,2212 <_vfprintf_r+0x14c2>
    1074:	06100713          	addi	x14,x0,97
    1078:	00e89463          	bne	x17,x14,1080 <_vfprintf_r+0x330>
    107c:	3150106f          	jal	x0,2b90 <_vfprintf_r+0x1e40>
    1080:	04100713          	addi	x14,x0,65
    1084:	00e89463          	bne	x17,x14,108c <_vfprintf_r+0x33c>
    1088:	6160106f          	jal	x0,269e <_vfprintf_r+0x194e>
    108c:	577d                	c.li	x14,-1
    108e:	00e49463          	bne	x9,x14,1096 <_vfprintf_r+0x346>
    1092:	4f70106f          	jal	x0,2d88 <_vfprintf_r+0x2038>
    1096:	fdf8f713          	andi	x14,x17,-33
    109a:	04700693          	addi	x13,x0,71
    109e:	c802                	c.swsp	x0,16(x2)
    10a0:	00d71463          	bne	x14,x13,10a8 <_vfprintf_r+0x358>
    10a4:	4d90106f          	jal	x0,2d7c <_vfprintf_r+0x202c>
    10a8:	100be793          	ori	x15,x23,256
    10ac:	4f7e                	c.lwsp	x30,220(x2)
    10ae:	de3e                	c.swsp	x15,60(x2)
    10b0:	d802                	c.swsp	x0,48(x2)
    10b2:	43ce                	c.lwsp	x7,208(x2)
    10b4:	42de                	c.lwsp	x5,212(x2)
    10b6:	4fee                	c.lwsp	x31,216(x2)
    10b8:	000f5963          	bge	x30,x0,10ca <_vfprintf_r+0x37a>
    10bc:	800007b7          	lui	x15,0x80000
    10c0:	00ff4f33          	xor	x30,x30,x15
    10c4:	02d00793          	addi	x15,x0,45
    10c8:	d83e                	c.swsp	x15,48(x2)
    10ca:	fbf88793          	addi	x15,x17,-65
    10ce:	02500713          	addi	x14,x0,37
    10d2:	00f77463          	bgeu	x14,x15,10da <_vfprintf_r+0x38a>
    10d6:	4140106f          	jal	x0,24ea <_vfprintf_r+0x179a>
    10da:	0000c717          	auipc	x14,0xc
    10de:	4a270713          	addi	x14,x14,1186 # d57c <_ctype_+0x270>
    10e2:	078a                	c.slli	x15,0x2
    10e4:	97ba                	c.add	x15,x14
    10e6:	439c                	c.lw	x15,0(x15)
    10e8:	97ba                	c.add	x15,x14
    10ea:	8782                	c.jr	x15
    10ec:	01d0                	c.addi4spn	x12,x2,196
    10ee:	45a2                	c.lwsp	x11,8(x2)
    10f0:	4512                	c.lwsp	x10,4(x2)
    10f2:	c2c6                	c.swsp	x17,68(x2)
    10f4:	de3e                	c.swsp	x15,60(x2)
    10f6:	d81a                	c.swsp	x6,48(x2)
    10f8:	06e050ef          	jal	x1,6166 <__sprint_r>
    10fc:	0a0519e3          	bne	x10,x0,19ae <_vfprintf_r+0xc5e>
    1100:	463e                	c.lwsp	x12,204(x2)
    1102:	8452                	c.mv	x8,x20
    1104:	4896                	c.lwsp	x17,68(x2)
    1106:	57f2                	c.lwsp	x15,60(x2)
    1108:	5342                	c.lwsp	x6,48(x2)
    110a:	b501                	c.j	f0a <_vfprintf_r+0x1ba>
    110c:	47ae                	c.lwsp	x15,200(x2)
    110e:	4585                	c.li	x11,1
    1110:	00b784b3          	add	x9,x15,x11
    1114:	47e2                	c.lwsp	x15,24(x2)
    1116:	00b60db3          	add	x27,x12,x11
    111a:	00840693          	addi	x13,x8,8
    111e:	28f5dfe3          	bge	x11,x15,1bbc <_vfprintf_r+0xe6c>
    1122:	4785                	c.li	x15,1
    1124:	c05c                	c.sw	x15,4(x8)
    1126:	01542023          	sw	x21,0(x8)
    112a:	c7ee                	c.swsp	x27,204(x2)
    112c:	c5a6                	c.swsp	x9,200(x2)
    112e:	479d                	c.li	x15,7
    1130:	6497c3e3          	blt	x15,x9,1f76 <_vfprintf_r+0x1226>
    1134:	5792                	c.lwsp	x15,36(x2)
    1136:	9dbe                	c.add	x27,x15
    1138:	0485                	c.addi	x9,1
    113a:	5732                	c.lwsp	x14,44(x2)
    113c:	c2dc                	c.sw	x15,4(x13)
    113e:	c298                	c.sw	x14,0(x13)
    1140:	c7ee                	c.swsp	x27,204(x2)
    1142:	c5a6                	c.swsp	x9,200(x2)
    1144:	479d                	c.li	x15,7
    1146:	06a1                	c.addi	x13,8
    1148:	6497c5e3          	blt	x15,x9,1f92 <_vfprintf_r+0x1242>
    114c:	454e                	c.lwsp	x10,208(x2)
    114e:	45de                	c.lwsp	x11,212(x2)
    1150:	47fe                	c.lwsp	x15,220(x2)
    1152:	466e                	c.lwsp	x12,216(x2)
    1154:	c92a                	c.swsp	x10,144(x2)
    1156:	cb2e                	c.swsp	x11,148(x2)
    1158:	cf3e                	c.swsp	x15,156(x2)
    115a:	010c                	c.addi4spn	x11,x2,128
    115c:	47e2                	c.lwsp	x15,24(x2)
    115e:	0908                	c.addi4spn	x10,x2,144
    1160:	d036                	c.swsp	x13,32(x2)
    1162:	ce1a                	c.swsp	x6,28(x2)
    1164:	c102                	c.swsp	x0,128(x2)
    1166:	c302                	c.swsp	x0,132(x2)
    1168:	c502                	c.swsp	x0,136(x2)
    116a:	c702                	c.swsp	x0,140(x2)
    116c:	cd32                	c.swsp	x12,152(x2)
    116e:	fff78413          	addi	x8,x15,-1 # 7fffffff <__heap_end+0x7fbfffff>
    1172:	1d1090ef          	jal	x1,ab42 <__eqtf2>
    1176:	4372                	c.lwsp	x6,28(x2)
    1178:	5682                	c.lwsp	x13,32(x2)
    117a:	26050be3          	beq	x10,x0,1bf0 <_vfprintf_r+0xea0>
    117e:	0485                	c.addi	x9,1
    1180:	9da2                	c.add	x27,x8
    1182:	0a85                	c.addi	x21,1
    1184:	c5a6                	c.swsp	x9,200(x2)
    1186:	c7ee                	c.swsp	x27,204(x2)
    1188:	0156a023          	sw	x21,0(x13)
    118c:	c2c0                	c.sw	x8,4(x13)
    118e:	479d                	c.li	x15,7
    1190:	2497c2e3          	blt	x15,x9,1bd4 <_vfprintf_r+0xe84>
    1194:	06a1                	c.addi	x13,8
    1196:	5752                	c.lwsp	x14,52(x2)
    1198:	194c                	c.addi4spn	x11,x2,180
    119a:	01b70633          	add	x12,x14,x27
    119e:	00148793          	addi	x15,x9,1
    11a2:	c28c                	c.sw	x11,0(x13)
    11a4:	c7b2                	c.swsp	x12,204(x2)
    11a6:	c5be                	c.swsp	x15,200(x2)
    11a8:	c2d8                	c.sw	x14,4(x13)
    11aa:	459d                	c.li	x11,7
    11ac:	00868413          	addi	x8,x13,8
    11b0:	daf5d4e3          	bge	x11,x15,f58 <_vfprintf_r+0x208>
    11b4:	01d0                	c.addi4spn	x12,x2,196
    11b6:	45a2                	c.lwsp	x11,8(x2)
    11b8:	4512                	c.lwsp	x10,4(x2)
    11ba:	ce1a                	c.swsp	x6,28(x2)
    11bc:	7ab040ef          	jal	x1,6166 <__sprint_r>
    11c0:	7e051763          	bne	x10,x0,19ae <_vfprintf_r+0xc5e>
    11c4:	463e                	c.lwsp	x12,204(x2)
    11c6:	8452                	c.mv	x8,x20
    11c8:	4372                	c.lwsp	x6,28(x2)
    11ca:	b379                	c.j	f58 <_vfprintf_r+0x208>
    11cc:	4ac1                	c.li	x21,16
    11ce:	47ae                	c.lwsp	x15,200(x2)
    11d0:	0000c697          	auipc	x13,0xc
    11d4:	44468693          	addi	x13,x13,1092 # d614 <blanks.1>
    11d8:	049ad763          	bge	x21,x9,1226 <_vfprintf_r+0x4d6>
    11dc:	8722                	c.mv	x14,x8
    11de:	8bd6                	c.mv	x23,x21
    11e0:	4d9d                	c.li	x27,7
    11e2:	841a                	c.mv	x8,x6
    11e4:	4ca2                	c.lwsp	x25,8(x2)
    11e6:	8b36                	c.mv	x22,x13
    11e8:	a021                	c.j	11f0 <_vfprintf_r+0x4a0>
    11ea:	14c1                	c.addi	x9,-16
    11ec:	029bda63          	bge	x23,x9,1220 <_vfprintf_r+0x4d0>
    11f0:	0641                	c.addi	x12,16
    11f2:	0785                	c.addi	x15,1
    11f4:	01672023          	sw	x22,0(x14)
    11f8:	01572223          	sw	x21,4(x14)
    11fc:	c7b2                	c.swsp	x12,204(x2)
    11fe:	c5be                	c.swsp	x15,200(x2)
    1200:	0721                	c.addi	x14,8
    1202:	fefdd4e3          	bge	x27,x15,11ea <_vfprintf_r+0x49a>
    1206:	01d0                	c.addi4spn	x12,x2,196
    1208:	85e6                	c.mv	x11,x25
    120a:	4512                	c.lwsp	x10,4(x2)
    120c:	75b040ef          	jal	x1,6166 <__sprint_r>
    1210:	68051ce3          	bne	x10,x0,20a8 <_vfprintf_r+0x1358>
    1214:	14c1                	c.addi	x9,-16
    1216:	463e                	c.lwsp	x12,204(x2)
    1218:	47ae                	c.lwsp	x15,200(x2)
    121a:	8752                	c.mv	x14,x20
    121c:	fc9bcae3          	blt	x23,x9,11f0 <_vfprintf_r+0x4a0>
    1220:	8322                	c.mv	x6,x8
    1222:	86da                	c.mv	x13,x22
    1224:	843a                	c.mv	x8,x14
    1226:	9626                	c.add	x12,x9
    1228:	0785                	c.addi	x15,1
    122a:	c014                	c.sw	x13,0(x8)
    122c:	c7b2                	c.swsp	x12,204(x2)
    122e:	c5be                	c.swsp	x15,200(x2)
    1230:	c044                	c.sw	x9,4(x8)
    1232:	469d                	c.li	x13,7
    1234:	d2f6dae3          	bge	x13,x15,f68 <_vfprintf_r+0x218>
    1238:	01d0                	c.addi4spn	x12,x2,196
    123a:	45a2                	c.lwsp	x11,8(x2)
    123c:	4512                	c.lwsp	x10,4(x2)
    123e:	ce1a                	c.swsp	x6,28(x2)
    1240:	727040ef          	jal	x1,6166 <__sprint_r>
    1244:	76051563          	bne	x10,x0,19ae <_vfprintf_r+0xc5e>
    1248:	463e                	c.lwsp	x12,204(x2)
    124a:	4372                	c.lwsp	x6,28(x2)
    124c:	bb31                	c.j	f68 <_vfprintf_r+0x218>
    124e:	47d2                	c.lwsp	x15,20(x2)
    1250:	0a0103a3          	sb	x0,167(x2)
    1254:	0007aa83          	lw	x21,0(x15)
    1258:	835a                	c.mv	x6,x22
    125a:	00478b13          	addi	x22,x15,4
    125e:	3e0a83e3          	beq	x21,x0,1e44 <_vfprintf_r+0x10f4>
    1262:	4404cbe3          	blt	x9,x0,1eb8 <_vfprintf_r+0x1168>
    1266:	8626                	c.mv	x12,x9
    1268:	4581                	c.li	x11,0
    126a:	8556                	c.mv	x10,x21
    126c:	ce46                	c.swsp	x17,28(x2)
    126e:	ca1a                	c.swsp	x6,20(x2)
    1270:	95bff0ef          	jal	x1,bca <memchr>
    1274:	c82a                	c.swsp	x10,16(x2)
    1276:	0a714783          	lbu	x15,167(x2)
    127a:	4352                	c.lwsp	x6,20(x2)
    127c:	48f2                	c.lwsp	x17,28(x2)
    127e:	e119                	c.bnez	x10,1284 <_vfprintf_r+0x534>
    1280:	1d70106f          	jal	x0,2c56 <_vfprintf_r+0x1f06>
    1284:	41550db3          	sub	x27,x10,x21
    1288:	fffdc713          	xori	x14,x27,-1
    128c:	877d                	c.srai	x14,0x1f
    128e:	00edfd33          	and	x26,x27,x14
    1292:	440794e3          	bne	x15,x0,1eda <_vfprintf_r+0x118a>
    1296:	ca5a                	c.swsp	x22,20(x2)
    1298:	463e                	c.lwsp	x12,204(x2)
    129a:	c802                	c.swsp	x0,16(x2)
    129c:	d002                	c.swsp	x0,32(x2)
    129e:	ce02                	c.swsp	x0,28(x2)
    12a0:	084bfc93          	andi	x25,x23,132
    12a4:	4481                	c.li	x9,0
    12a6:	4b01                	c.li	x22,0
    12a8:	85b2                	c.mv	x11,x12
    12aa:	c20c9ee3          	bne	x25,x0,ee6 <_vfprintf_r+0x196>
    12ae:	41a307b3          	sub	x15,x6,x26
    12b2:	06f04de3          	blt	x0,x15,1b2c <_vfprintf_r+0xddc>
    12b6:	0a714783          	lbu	x15,167(x2)
    12ba:	c20799e3          	bne	x15,x0,eec <_vfprintf_r+0x19c>
    12be:	41b484b3          	sub	x9,x9,x27
    12c2:	c6905ae3          	bge	x0,x9,f36 <_vfprintf_r+0x1e6>
    12c6:	45ae                	c.lwsp	x11,200(x2)
    12c8:	0000cc97          	auipc	x25,0xc
    12cc:	35cc8c93          	addi	x25,x25,860 # d624 <zeroes.0>
    12d0:	0499db63          	bge	x19,x9,1326 <_vfprintf_r+0x5d6>
    12d4:	87a2                	c.mv	x15,x8
    12d6:	469d                	c.li	x13,7
    12d8:	8426                	c.mv	x8,x9
    12da:	d81a                	c.swsp	x6,48(x2)
    12dc:	84e6                	c.mv	x9,x25
    12de:	8cd6                	c.mv	x25,x21
    12e0:	8ac6                	c.mv	x21,x17
    12e2:	a021                	c.j	12ea <_vfprintf_r+0x59a>
    12e4:	1441                	c.addi	x8,-16
    12e6:	0289da63          	bge	x19,x8,131a <_vfprintf_r+0x5ca>
    12ea:	0641                	c.addi	x12,16
    12ec:	0585                	c.addi	x11,1 # 2001 <_vfprintf_r+0x12b1>
    12ee:	c384                	c.sw	x9,0(x15)
    12f0:	0137a223          	sw	x19,4(x15)
    12f4:	c7b2                	c.swsp	x12,204(x2)
    12f6:	c5ae                	c.swsp	x11,200(x2)
    12f8:	07a1                	c.addi	x15,8
    12fa:	feb6d5e3          	bge	x13,x11,12e4 <_vfprintf_r+0x594>
    12fe:	01d0                	c.addi4spn	x12,x2,196
    1300:	45a2                	c.lwsp	x11,8(x2)
    1302:	4512                	c.lwsp	x10,4(x2)
    1304:	663040ef          	jal	x1,6166 <__sprint_r>
    1308:	6a051363          	bne	x10,x0,19ae <_vfprintf_r+0xc5e>
    130c:	1441                	c.addi	x8,-16
    130e:	463e                	c.lwsp	x12,204(x2)
    1310:	45ae                	c.lwsp	x11,200(x2)
    1312:	87d2                	c.mv	x15,x20
    1314:	469d                	c.li	x13,7
    1316:	fc89cae3          	blt	x19,x8,12ea <_vfprintf_r+0x59a>
    131a:	88d6                	c.mv	x17,x21
    131c:	5342                	c.lwsp	x6,48(x2)
    131e:	8ae6                	c.mv	x21,x25
    1320:	8ca6                	c.mv	x25,x9
    1322:	84a2                	c.mv	x9,x8
    1324:	843e                	c.mv	x8,x15
    1326:	9626                	c.add	x12,x9
    1328:	0585                	c.addi	x11,1
    132a:	01942023          	sw	x25,0(x8)
    132e:	c044                	c.sw	x9,4(x8)
    1330:	c7b2                	c.swsp	x12,204(x2)
    1332:	c5ae                	c.swsp	x11,200(x2)
    1334:	479d                	c.li	x15,7
    1336:	0421                	c.addi	x8,8
    1338:	beb7dfe3          	bge	x15,x11,f36 <_vfprintf_r+0x1e6>
    133c:	01d0                	c.addi4spn	x12,x2,196
    133e:	45a2                	c.lwsp	x11,8(x2)
    1340:	4512                	c.lwsp	x10,4(x2)
    1342:	de46                	c.swsp	x17,60(x2)
    1344:	d81a                	c.swsp	x6,48(x2)
    1346:	621040ef          	jal	x1,6166 <__sprint_r>
    134a:	66051263          	bne	x10,x0,19ae <_vfprintf_r+0xc5e>
    134e:	100bf793          	andi	x15,x23,256
    1352:	463e                	c.lwsp	x12,204(x2)
    1354:	8452                	c.mv	x8,x20
    1356:	58f2                	c.lwsp	x17,60(x2)
    1358:	5342                	c.lwsp	x6,48(x2)
    135a:	be0782e3          	beq	x15,x0,f3e <_vfprintf_r+0x1ee>
    135e:	06500793          	addi	x15,x0,101
    1362:	db17d5e3          	bge	x15,x17,110c <_vfprintf_r+0x3bc>
    1366:	47ce                	c.lwsp	x15,208(x2)
    1368:	45de                	c.lwsp	x11,212(x2)
    136a:	46ee                	c.lwsp	x13,216(x2)
    136c:	c93e                	c.swsp	x15,144(x2)
    136e:	cb2e                	c.swsp	x11,148(x2)
    1370:	47fe                	c.lwsp	x15,220(x2)
    1372:	010c                	c.addi4spn	x11,x2,128
    1374:	0908                	c.addi4spn	x10,x2,144
    1376:	de32                	c.swsp	x12,60(x2)
    1378:	d81a                	c.swsp	x6,48(x2)
    137a:	c102                	c.swsp	x0,128(x2)
    137c:	c302                	c.swsp	x0,132(x2)
    137e:	c502                	c.swsp	x0,136(x2)
    1380:	c702                	c.swsp	x0,140(x2)
    1382:	cd36                	c.swsp	x13,152(x2)
    1384:	cf3e                	c.swsp	x15,156(x2)
    1386:	7bc090ef          	jal	x1,ab42 <__eqtf2>
    138a:	5342                	c.lwsp	x6,48(x2)
    138c:	5672                	c.lwsp	x12,60(x2)
    138e:	68051963          	bne	x10,x0,1a20 <_vfprintf_r+0xcd0>
    1392:	47ae                	c.lwsp	x15,200(x2)
    1394:	4685                	c.li	x13,1
    1396:	0605                	c.addi	x12,1
    1398:	0785                	c.addi	x15,1
    139a:	0000c597          	auipc	x11,0xc
    139e:	d1658593          	addi	x11,x11,-746 # d0b0 <__clzsi2+0x110>
    13a2:	c054                	c.sw	x13,4(x8)
    13a4:	c00c                	c.sw	x11,0(x8)
    13a6:	c7b2                	c.swsp	x12,204(x2)
    13a8:	c5be                	c.swsp	x15,200(x2)
    13aa:	469d                	c.li	x13,7
    13ac:	0421                	c.addi	x8,8
    13ae:	4ef6c0e3          	blt	x13,x15,208e <_vfprintf_r+0x133e>
    13b2:	57ba                	c.lwsp	x15,172(x2)
    13b4:	4762                	c.lwsp	x14,24(x2)
    13b6:	08e7d8e3          	bge	x15,x14,1c46 <_vfprintf_r+0xef6>
    13ba:	47ae                	c.lwsp	x15,200(x2)
    13bc:	5712                	c.lwsp	x14,36(x2)
    13be:	56b2                	c.lwsp	x13,44(x2)
    13c0:	963a                	c.add	x12,x14
    13c2:	0785                	c.addi	x15,1
    13c4:	c014                	c.sw	x13,0(x8)
    13c6:	c058                	c.sw	x14,4(x8)
    13c8:	c7b2                	c.swsp	x12,204(x2)
    13ca:	c5be                	c.swsp	x15,200(x2)
    13cc:	469d                	c.li	x13,7
    13ce:	0421                	c.addi	x8,8
    13d0:	22f6cfe3          	blt	x13,x15,1e0e <_vfprintf_r+0x10be>
    13d4:	47e2                	c.lwsp	x15,24(x2)
    13d6:	fff78493          	addi	x9,x15,-1
    13da:	b6905fe3          	bge	x0,x9,f58 <_vfprintf_r+0x208>
    13de:	4ac1                	c.li	x21,16
    13e0:	46ae                	c.lwsp	x13,200(x2)
    13e2:	0000cc97          	auipc	x25,0xc
    13e6:	242c8c93          	addi	x25,x25,578 # d624 <zeroes.0>
    13ea:	4c9ad5e3          	bge	x21,x9,20b4 <_vfprintf_r+0x1364>
    13ee:	87a2                	c.mv	x15,x8
    13f0:	8856                	c.mv	x16,x21
    13f2:	8466                	c.mv	x8,x25
    13f4:	4d9d                	c.li	x27,7
    13f6:	8ca6                	c.mv	x25,x9
    13f8:	4b12                	c.lwsp	x22,4(x2)
    13fa:	849a                	c.mv	x9,x6
    13fc:	a021                	c.j	1404 <_vfprintf_r+0x6b4>
    13fe:	1cc1                	c.addi	x25,-16
    1400:	4b9856e3          	bge	x16,x25,20ac <_vfprintf_r+0x135c>
    1404:	0641                	c.addi	x12,16
    1406:	0685                	c.addi	x13,1
    1408:	c380                	c.sw	x8,0(x15)
    140a:	0157a223          	sw	x21,4(x15)
    140e:	c7b2                	c.swsp	x12,204(x2)
    1410:	c5b6                	c.swsp	x13,200(x2)
    1412:	07a1                	c.addi	x15,8
    1414:	feddd5e3          	bge	x27,x13,13fe <_vfprintf_r+0x6ae>
    1418:	01d0                	c.addi4spn	x12,x2,196
    141a:	45a2                	c.lwsp	x11,8(x2)
    141c:	855a                	c.mv	x10,x22
    141e:	549040ef          	jal	x1,6166 <__sprint_r>
    1422:	58051663          	bne	x10,x0,19ae <_vfprintf_r+0xc5e>
    1426:	463e                	c.lwsp	x12,204(x2)
    1428:	46ae                	c.lwsp	x13,200(x2)
    142a:	87d2                	c.mv	x15,x20
    142c:	4841                	c.li	x16,16
    142e:	bfc1                	c.j	13fe <_vfprintf_r+0x6ae>
    1430:	4752                	c.lwsp	x14,20(x2)
    1432:	431c                	c.lw	x15,0(x14)
    1434:	12f10623          	sb	x15,300(x2)
    1438:	00470793          	addi	x15,x14,4
    143c:	835a                	c.mv	x6,x22
    143e:	4d85                	c.li	x27,1
    1440:	0a0103a3          	sb	x0,167(x2)
    1444:	ca3e                	c.swsp	x15,20(x2)
    1446:	b451                	c.j	eca <_vfprintf_r+0x17a>
    1448:	020bf793          	andi	x15,x23,32
    144c:	835a                	c.mv	x6,x22
    144e:	efa9                	c.bnez	x15,14a8 <_vfprintf_r+0x758>
    1450:	4752                	c.lwsp	x14,20(x2)
    1452:	010bf793          	andi	x15,x23,16
    1456:	00072d03          	lw	x26,0(x14)
    145a:	00470693          	addi	x13,x14,4
    145e:	c399                	c.beqz	x15,1464 <_vfprintf_r+0x714>
    1460:	0870106f          	jal	x0,2ce6 <_vfprintf_r+0x1f96>
    1464:	040bf793          	andi	x15,x23,64
    1468:	580788e3          	beq	x15,x0,21f8 <_vfprintf_r+0x14a8>
    146c:	0d42                	c.slli	x26,0x10
    146e:	410d5d13          	srai	x26,x26,0x10
    1472:	41fd5d93          	srai	x27,x26,0x1f
    1476:	ca36                	c.swsp	x13,20(x2)
    1478:	876e                	c.mv	x14,x27
    147a:	04074363          	blt	x14,x0,14c0 <_vfprintf_r+0x770>
    147e:	0604c163          	blt	x9,x0,14e0 <_vfprintf_r+0x790>
    1482:	01bd67b3          	or	x15,x26,x27
    1486:	f7fbfb93          	andi	x23,x23,-129
    148a:	ebb9                	c.bnez	x15,14e0 <_vfprintf_r+0x790>
    148c:	e099                	c.bnez	x9,1492 <_vfprintf_r+0x742>
    148e:	10a0106f          	jal	x0,2598 <_vfprintf_r+0x1848>
    1492:	03000793          	addi	x15,x0,48
    1496:	a8b1                	c.j	14f2 <_vfprintf_r+0x7a2>
    1498:	020bf793          	andi	x15,x23,32
    149c:	835a                	c.mv	x6,x22
    149e:	010bee13          	ori	x28,x23,16
    14a2:	02078ae3          	beq	x15,x0,1cd6 <_vfprintf_r+0xf86>
    14a6:	8bf2                	c.mv	x23,x28
    14a8:	47d2                	c.lwsp	x15,20(x2)
    14aa:	079d                	c.addi	x15,7
    14ac:	9be1                	c.andi	x15,-8
    14ae:	00878693          	addi	x13,x15,8
    14b2:	43d8                	c.lw	x14,4(x15)
    14b4:	ca36                	c.swsp	x13,20(x2)
    14b6:	8dba                	c.mv	x27,x14
    14b8:	0007ad03          	lw	x26,0(x15)
    14bc:	fc0751e3          	bge	x14,x0,147e <_vfprintf_r+0x72e>
    14c0:	02d00713          	addi	x14,x0,45
    14c4:	01a037b3          	sltu	x15,x0,x26
    14c8:	41b00db3          	sub	x27,x0,x27
    14cc:	0ae103a3          	sb	x14,167(x2)
    14d0:	40fd8db3          	sub	x27,x27,x15
    14d4:	41a00d33          	sub	x26,x0,x26
    14d8:	0004c463          	blt	x9,x0,14e0 <_vfprintf_r+0x790>
    14dc:	f7fbfb93          	andi	x23,x23,-129
    14e0:	140d9963          	bne	x27,x0,1632 <_vfprintf_r+0x8e2>
    14e4:	47a5                	c.li	x15,9
    14e6:	15a7e663          	bltu	x15,x26,1632 <_vfprintf_r+0x8e2>
    14ea:	030d0793          	addi	x15,x26,48
    14ee:	0ff7f793          	andi	x15,x15,255
    14f2:	18f107a3          	sb	x15,399(x2)
    14f6:	8d26                	c.mv	x26,x9
    14f8:	00904363          	blt	x0,x9,14fe <_vfprintf_r+0x7ae>
    14fc:	4d05                	c.li	x26,1
    14fe:	0a714783          	lbu	x15,167(x2)
    1502:	4d85                	c.li	x27,1
    1504:	18f10a93          	addi	x21,x2,399
    1508:	c3c9                	c.beqz	x15,158a <_vfprintf_r+0x83a>
    150a:	0d05                	c.addi	x26,1
    150c:	c802                	c.swsp	x0,16(x2)
    150e:	d002                	c.swsp	x0,32(x2)
    1510:	ce02                	c.swsp	x0,28(x2)
    1512:	4b01                	c.li	x22,0
    1514:	b2d9                	c.j	eda <_vfprintf_r+0x18a>
    1516:	47d2                	c.lwsp	x15,20(x2)
    1518:	0007ab03          	lw	x22,0(x15)
    151c:	0791                	c.addi	x15,4
    151e:	720b5a63          	bge	x22,x0,1c52 <_vfprintf_r+0xf02>
    1522:	41600b33          	sub	x22,x0,x22
    1526:	ca3e                	c.swsp	x15,20(x2)
    1528:	004beb93          	ori	x23,x23,4
    152c:	000c4883          	lbu	x17,0(x24)
    1530:	b289                	c.j	e72 <_vfprintf_r+0x122>
    1532:	008beb93          	ori	x23,x23,8
    1536:	000c4883          	lbu	x17,0(x24)
    153a:	ba25                	c.j	e72 <_vfprintf_r+0x122>
    153c:	020bf793          	andi	x15,x23,32
    1540:	835a                	c.mv	x6,x22
    1542:	010be713          	ori	x14,x23,16
    1546:	78078063          	beq	x15,x0,1cc6 <_vfprintf_r+0xf76>
    154a:	47d2                	c.lwsp	x15,20(x2)
    154c:	00778693          	addi	x13,x15,7
    1550:	9ae1                	c.andi	x13,-8
    1552:	00868793          	addi	x15,x13,8
    1556:	ca3e                	c.swsp	x15,20(x2)
    1558:	42d0                	c.lw	x12,4(x13)
    155a:	429c                	c.lw	x15,0(x13)
    155c:	0a0103a3          	sb	x0,167(x2)
    1560:	bff77b93          	andi	x23,x14,-1025
    1564:	0204c863          	blt	x9,x0,1594 <_vfprintf_r+0x844>
    1568:	00c7e6b3          	or	x13,x15,x12
    156c:	b7f77b93          	andi	x23,x14,-1153
    1570:	e295                	c.bnez	x13,1594 <_vfprintf_r+0x844>
    1572:	e08d                	c.bnez	x9,1594 <_vfprintf_r+0x844>
    1574:	00177d13          	andi	x26,x14,1
    1578:	160d04e3          	beq	x26,x0,1ee0 <_vfprintf_r+0x1190>
    157c:	03000793          	addi	x15,x0,48
    1580:	18f107a3          	sb	x15,399(x2)
    1584:	8dea                	c.mv	x27,x26
    1586:	18f10a93          	addi	x21,x2,399
    158a:	c802                	c.swsp	x0,16(x2)
    158c:	d002                	c.swsp	x0,32(x2)
    158e:	ce02                	c.swsp	x0,28(x2)
    1590:	4b01                	c.li	x22,0
    1592:	b2a1                	c.j	eda <_vfprintf_r+0x18a>
    1594:	19010a93          	addi	x21,x2,400
    1598:	01d61693          	slli	x13,x12,0x1d
    159c:	0077f713          	andi	x14,x15,7
    15a0:	838d                	c.srli	x15,0x3
    15a2:	85d6                	c.mv	x11,x21
    15a4:	03070713          	addi	x14,x14,48
    15a8:	8fd5                	c.or	x15,x13
    15aa:	820d                	c.srli	x12,0x3
    15ac:	00c7e6b3          	or	x13,x15,x12
    15b0:	feea8fa3          	sb	x14,-1(x21)
    15b4:	1afd                	c.addi	x21,-1
    15b6:	f2ed                	c.bnez	x13,1598 <_vfprintf_r+0x848>
    15b8:	001bf793          	andi	x15,x23,1
    15bc:	c78d                	c.beqz	x15,15e6 <_vfprintf_r+0x896>
    15be:	03000793          	addi	x15,x0,48
    15c2:	02f70263          	beq	x14,x15,15e6 <_vfprintf_r+0x896>
    15c6:	15f9                	c.addi	x11,-2
    15c8:	fefa8fa3          	sb	x15,-1(x21)
    15cc:	0b1c                	c.addi4spn	x15,x2,400
    15ce:	40b78db3          	sub	x27,x15,x11
    15d2:	8d26                	c.mv	x26,x9
    15d4:	01b4d363          	bge	x9,x27,15da <_vfprintf_r+0x88a>
    15d8:	8d6e                	c.mv	x26,x27
    15da:	8aae                	c.mv	x21,x11
    15dc:	c802                	c.swsp	x0,16(x2)
    15de:	d002                	c.swsp	x0,32(x2)
    15e0:	ce02                	c.swsp	x0,28(x2)
    15e2:	4b01                	c.li	x22,0
    15e4:	b8dd                	c.j	eda <_vfprintf_r+0x18a>
    15e6:	0b1c                	c.addi4spn	x15,x2,400
    15e8:	41578db3          	sub	x27,x15,x21
    15ec:	8d26                	c.mv	x26,x9
    15ee:	f9b4dee3          	bge	x9,x27,158a <_vfprintf_r+0x83a>
    15f2:	8d6e                	c.mv	x26,x27
    15f4:	c802                	c.swsp	x0,16(x2)
    15f6:	d002                	c.swsp	x0,32(x2)
    15f8:	ce02                	c.swsp	x0,28(x2)
    15fa:	4b01                	c.li	x22,0
    15fc:	b8f9                	c.j	eda <_vfprintf_r+0x18a>
    15fe:	020bf793          	andi	x15,x23,32
    1602:	835a                	c.mv	x6,x22
    1604:	010bee13          	ori	x28,x23,16
    1608:	10079763          	bne	x15,x0,1716 <_vfprintf_r+0x9c6>
    160c:	47d2                	c.lwsp	x15,20(x2)
    160e:	00478693          	addi	x13,x15,4
    1612:	47d2                	c.lwsp	x15,20(x2)
    1614:	0a0103a3          	sb	x0,167(x2)
    1618:	0007ad03          	lw	x26,0(x15)
    161c:	4d81                	c.li	x27,0
    161e:	6c04c2e3          	blt	x9,x0,24e2 <_vfprintf_r+0x1792>
    1622:	f7fe7b93          	andi	x23,x28,-129
    1626:	680d0a63          	beq	x26,x0,1cba <_vfprintf_r+0xf6a>
    162a:	ca36                	c.swsp	x13,20(x2)
    162c:	47a5                	c.li	x15,9
    162e:	eba7fee3          	bgeu	x15,x26,14ea <_vfprintf_r+0x79a>
    1632:	ccccd737          	lui	x14,0xccccd
    1636:	883a                	c.mv	x16,x14
    1638:	ccc80813          	addi	x16,x16,-820
    163c:	ccd70713          	addi	x14,x14,-819 # cccccccd <__heap_end+0xcc8ccccd>
    1640:	400bff13          	andi	x30,x23,1024
    1644:	4581                	c.li	x11,0
    1646:	0b10                	c.addi4spn	x12,x2,400
    1648:	0ff00c93          	addi	x25,x0,255
    164c:	8b1a                	c.mv	x22,x6
    164e:	a8b9                	c.j	16ac <_vfprintf_r+0x95c>
    1650:	57a2                	c.lwsp	x15,40(x2)
    1652:	0007c783          	lbu	x15,0(x15)
    1656:	16b78ee3          	beq	x15,x11,1fd2 <_vfprintf_r+0x1282>
    165a:	8e6a                	c.mv	x28,x26
    165c:	856e                	c.mv	x10,x27
    165e:	8656                	c.mv	x12,x21
    1660:	01bd07b3          	add	x15,x26,x27
    1664:	01a7b6b3          	sltu	x13,x15,x26
    1668:	97b6                	c.add	x15,x13
    166a:	02e7b6b3          	mulhu	x13,x15,x14
    166e:	0026de93          	srli	x29,x13,0x2
    1672:	9af1                	c.andi	x13,-4
    1674:	96f6                	c.add	x13,x29
    1676:	8f95                	c.sub	x15,x13
    1678:	40fd07b3          	sub	x15,x26,x15
    167c:	00fd36b3          	sltu	x13,x26,x15
    1680:	40dd86b3          	sub	x13,x27,x13
    1684:	03078fb3          	mul	x31,x15,x16
    1688:	02e686b3          	mul	x13,x13,x14
    168c:	02e7beb3          	mulhu	x29,x15,x14
    1690:	96fe                	c.add	x13,x31
    1692:	02e787b3          	mul	x15,x15,x14
    1696:	96f6                	c.add	x13,x29
    1698:	01f69e93          	slli	x29,x13,0x1f
    169c:	0016dd93          	srli	x27,x13,0x1
    16a0:	8385                	c.srli	x15,0x1
    16a2:	00feed33          	or	x26,x29,x15
    16a6:	e119                	c.bnez	x10,16ac <_vfprintf_r+0x95c>
    16a8:	46a0106f          	jal	x0,2b12 <_vfprintf_r+0x1dc2>
    16ac:	01bd07b3          	add	x15,x26,x27
    16b0:	01a7b6b3          	sltu	x13,x15,x26
    16b4:	96be                	c.add	x13,x15
    16b6:	02e6b533          	mulhu	x10,x13,x14
    16ba:	0585                	c.addi	x11,1
    16bc:	fff60a93          	addi	x21,x12,-1
    16c0:	00255e13          	srli	x28,x10,0x2
    16c4:	9971                	c.andi	x10,-4
    16c6:	9572                	c.add	x10,x28
    16c8:	8e89                	c.sub	x13,x10
    16ca:	40dd06b3          	sub	x13,x26,x13
    16ce:	00dd3533          	sltu	x10,x26,x13
    16d2:	40ad8533          	sub	x10,x27,x10
    16d6:	02e6be33          	mulhu	x28,x13,x14
    16da:	02e50533          	mul	x10,x10,x14
    16de:	02e686b3          	mul	x13,x13,x14
    16e2:	9572                	c.add	x10,x28
    16e4:	057e                	c.slli	x10,0x1f
    16e6:	8285                	c.srli	x13,0x1
    16e8:	8ec9                	c.or	x13,x10
    16ea:	00269513          	slli	x10,x13,0x2
    16ee:	96aa                	c.add	x13,x10
    16f0:	0686                	c.slli	x13,0x1
    16f2:	40dd06b3          	sub	x13,x26,x13
    16f6:	03068693          	addi	x13,x13,48
    16fa:	fed60fa3          	sb	x13,-1(x12)
    16fe:	f40f19e3          	bne	x30,x0,1650 <_vfprintf_r+0x900>
    1702:	8e6a                	c.mv	x28,x26
    1704:	856e                	c.mv	x10,x27
    1706:	8656                	c.mv	x12,x21
    1708:	bfb1                	c.j	1664 <_vfprintf_r+0x914>
    170a:	020bf793          	andi	x15,x23,32
    170e:	835a                	c.mv	x6,x22
    1710:	56078c63          	beq	x15,x0,1c88 <_vfprintf_r+0xf38>
    1714:	8e5e                	c.mv	x28,x23
    1716:	47d2                	c.lwsp	x15,20(x2)
    1718:	079d                	c.addi	x15,7
    171a:	9be1                	c.andi	x15,-8
    171c:	00878713          	addi	x14,x15,8
    1720:	0a0103a3          	sb	x0,167(x2)
    1724:	ca3a                	c.swsp	x14,20(x2)
    1726:	0007ad03          	lw	x26,0(x15)
    172a:	0047ad83          	lw	x27,4(x15)
    172e:	8bf2                	c.mv	x23,x28
    1730:	da04c8e3          	blt	x9,x0,14e0 <_vfprintf_r+0x790>
    1734:	01bd67b3          	or	x15,x26,x27
    1738:	f7fe7b93          	andi	x23,x28,-129
    173c:	da0792e3          	bne	x15,x0,14e0 <_vfprintf_r+0x790>
    1740:	58049063          	bne	x9,x0,1cc0 <_vfprintf_r+0xf70>
    1744:	4d81                	c.li	x27,0
    1746:	4d01                	c.li	x26,0
    1748:	19010a93          	addi	x21,x2,400
    174c:	c802                	c.swsp	x0,16(x2)
    174e:	d002                	c.swsp	x0,32(x2)
    1750:	ce02                	c.swsp	x0,28(x2)
    1752:	4b01                	c.li	x22,0
    1754:	f86ff06f          	jal	x0,eda <_vfprintf_r+0x18a>
    1758:	000c4883          	lbu	x17,0(x24)
    175c:	06800793          	addi	x15,x0,104
    1760:	6cf88b63          	beq	x17,x15,1e36 <_vfprintf_r+0x10e6>
    1764:	040beb93          	ori	x23,x23,64
    1768:	f0aff06f          	jal	x0,e72 <_vfprintf_r+0x122>
    176c:	46d2                	c.lwsp	x13,20(x2)
    176e:	020bf793          	andi	x15,x23,32
    1772:	00468713          	addi	x14,x13,4
    1776:	4e079763          	bne	x15,x0,1c64 <_vfprintf_r+0xf14>
    177a:	010bf793          	andi	x15,x23,16
    177e:	1a0793e3          	bne	x15,x0,2124 <_vfprintf_r+0x13d4>
    1782:	040bf793          	andi	x15,x23,64
    1786:	6a079ee3          	bne	x15,x0,2642 <_vfprintf_r+0x18f2>
    178a:	200bfe13          	andi	x28,x23,512
    178e:	180e0be3          	beq	x28,x0,2124 <_vfprintf_r+0x13d4>
    1792:	47d2                	c.lwsp	x15,20(x2)
    1794:	439c                	c.lw	x15,0(x15)
    1796:	46b2                	c.lwsp	x13,12(x2)
    1798:	00d78023          	sb	x13,0(x15)
    179c:	ca3a                	c.swsp	x14,20(x2)
    179e:	8ae2                	c.mv	x21,x24
    17a0:	feaff06f          	jal	x0,f8a <_vfprintf_r+0x23a>
    17a4:	000c4883          	lbu	x17,0(x24)
    17a8:	06c00793          	addi	x15,x0,108
    17ac:	66f88e63          	beq	x17,x15,1e28 <_vfprintf_r+0x10d8>
    17b0:	010beb93          	ori	x23,x23,16
    17b4:	ebeff06f          	jal	x0,e72 <_vfprintf_r+0x122>
    17b8:	67a1                	c.lui	x15,0x8
    17ba:	83078793          	addi	x15,x15,-2000 # 7830 <_raise_r+0x68>
    17be:	4752                	c.lwsp	x14,20(x2)
    17c0:	0af11423          	sh	x15,168(x2)
    17c4:	0a0103a3          	sb	x0,167(x2)
    17c8:	00470793          	addi	x15,x14,4
    17cc:	835a                	c.mv	x6,x22
    17ce:	4318                	c.lw	x14,0(x14)
    17d0:	4681                	c.li	x13,0
    17d2:	5204c163          	blt	x9,x0,1cf4 <_vfprintf_r+0xfa4>
    17d6:	f7fbf813          	andi	x16,x23,-129
    17da:	00286813          	ori	x16,x16,2
    17de:	14071ae3          	bne	x14,x0,2132 <_vfprintf_r+0x13e2>
    17e2:	5e0480e3          	beq	x9,x0,25c2 <_vfprintf_r+0x1872>
    17e6:	03000713          	addi	x14,x0,48
    17ea:	ca3e                	c.swsp	x15,20(x2)
    17ec:	8bc2                	c.mv	x23,x16
    17ee:	18e107a3          	sb	x14,399(x2)
    17f2:	8d26                	c.mv	x26,x9
    17f4:	c802                	c.swsp	x0,16(x2)
    17f6:	4d85                	c.li	x27,1
    17f8:	d002                	c.swsp	x0,32(x2)
    17fa:	ce02                	c.swsp	x0,28(x2)
    17fc:	4b01                	c.li	x22,0
    17fe:	4f81                	c.li	x31,0
    1800:	07800893          	addi	x17,x0,120
    1804:	18f10a93          	addi	x21,x2,399
    1808:	aba1                	c.j	1d60 <_vfprintf_r+0x1010>
    180a:	020bf793          	andi	x15,x23,32
    180e:	835a                	c.mv	x6,x22
    1810:	4e079063          	bne	x15,x0,1cf0 <_vfprintf_r+0xfa0>
    1814:	46d2                	c.lwsp	x13,20(x2)
    1816:	010bf713          	andi	x14,x23,16
    181a:	429c                	c.lw	x15,0(x13)
    181c:	0691                	c.addi	x13,4
    181e:	c319                	c.beqz	x14,1824 <_vfprintf_r+0xad4>
    1820:	4cc0106f          	jal	x0,2cec <_vfprintf_r+0x1f9c>
    1824:	040bf713          	andi	x14,x23,64
    1828:	180709e3          	beq	x14,x0,21ba <_vfprintf_r+0x146a>
    182c:	07c2                	c.slli	x15,0x10
    182e:	83c1                	c.srli	x15,0x10
    1830:	ca36                	c.swsp	x13,20(x2)
    1832:	875e                	c.mv	x14,x23
    1834:	4601                	c.li	x12,0
    1836:	b31d                	c.j	155c <_vfprintf_r+0x80c>
    1838:	4c92                	c.lwsp	x25,4(x2)
    183a:	8566                	c.mv	x10,x25
    183c:	6bc050ef          	jal	x1,6ef8 <_localeconv_r>
    1840:	415c                	c.lw	x15,4(x10)
    1842:	853e                	c.mv	x10,x15
    1844:	dc3e                	c.swsp	x15,56(x2)
    1846:	c6eff0ef          	jal	x1,cb4 <strlen>
    184a:	87aa                	c.mv	x15,x10
    184c:	8566                	c.mv	x10,x25
    184e:	c0be                	c.swsp	x15,64(x2)
    1850:	8cbe                	c.mv	x25,x15
    1852:	6a6050ef          	jal	x1,6ef8 <_localeconv_r>
    1856:	4518                	c.lw	x14,8(x10)
    1858:	d43a                	c.swsp	x14,40(x2)
    185a:	000c4883          	lbu	x17,0(x24)
    185e:	e00c8a63          	beq	x25,x0,e72 <_vfprintf_r+0x122>
    1862:	e0070863          	beq	x14,x0,e72 <_vfprintf_r+0x122>
    1866:	00074783          	lbu	x15,0(x14)
    186a:	e0078463          	beq	x15,x0,e72 <_vfprintf_r+0x122>
    186e:	400beb93          	ori	x23,x23,1024
    1872:	e00ff06f          	jal	x0,e72 <_vfprintf_r+0x122>
    1876:	001beb93          	ori	x23,x23,1
    187a:	000c4883          	lbu	x17,0(x24)
    187e:	df4ff06f          	jal	x0,e72 <_vfprintf_r+0x122>
    1882:	0a714783          	lbu	x15,167(x2)
    1886:	000c4883          	lbu	x17,0(x24)
    188a:	de079463          	bne	x15,x0,e72 <_vfprintf_r+0x122>
    188e:	02000793          	addi	x15,x0,32
    1892:	0af103a3          	sb	x15,167(x2)
    1896:	ddcff06f          	jal	x0,e72 <_vfprintf_r+0x122>
    189a:	080beb93          	ori	x23,x23,128
    189e:	000c4883          	lbu	x17,0(x24)
    18a2:	dd0ff06f          	jal	x0,e72 <_vfprintf_r+0x122>
    18a6:	02b00793          	addi	x15,x0,43
    18aa:	0af103a3          	sb	x15,167(x2)
    18ae:	000c4883          	lbu	x17,0(x24)
    18b2:	dc0ff06f          	jal	x0,e72 <_vfprintf_r+0x122>
    18b6:	000c4883          	lbu	x17,0(x24)
    18ba:	02a00793          	addi	x15,x0,42
    18be:	001c0693          	addi	x13,x24,1
    18c2:	00f89463          	bne	x17,x15,18ca <_vfprintf_r+0xb7a>
    18c6:	6240106f          	jal	x0,2eea <_vfprintf_r+0x219a>
    18ca:	4625                	c.li	x12,9
    18cc:	fd088793          	addi	x15,x17,-48
    18d0:	4481                	c.li	x9,0
    18d2:	02f66063          	bltu	x12,x15,18f2 <_vfprintf_r+0xba2>
    18d6:	00249713          	slli	x14,x9,0x2
    18da:	94ba                	c.add	x9,x14
    18dc:	0486                	c.slli	x9,0x1
    18de:	0006c883          	lbu	x17,0(x13)
    18e2:	94be                	c.add	x9,x15
    18e4:	fd088793          	addi	x15,x17,-48
    18e8:	0685                	c.addi	x13,1
    18ea:	fef676e3          	bgeu	x12,x15,18d6 <_vfprintf_r+0xb86>
    18ee:	4804cb63          	blt	x9,x0,1d84 <_vfprintf_r+0x1034>
    18f2:	8c36                	c.mv	x24,x13
    18f4:	d80ff06f          	jal	x0,e74 <_vfprintf_r+0x124>
    18f8:	41a306b3          	sub	x13,x6,x26
    18fc:	e2d05963          	bge	x0,x13,f2e <_vfprintf_r+0x1de>
    1900:	4f41                	c.li	x30,16
    1902:	45ae                	c.lwsp	x11,200(x2)
    1904:	0000cc97          	auipc	x25,0xc
    1908:	d20c8c93          	addi	x25,x25,-736 # d624 <zeroes.0>
    190c:	06df5163          	bge	x30,x13,196e <_vfprintf_r+0xc1e>
    1910:	8766                	c.mv	x14,x25
    1912:	87a2                	c.mv	x15,x8
    1914:	8cd6                	c.mv	x25,x21
    1916:	82fa                	c.mv	x5,x30
    1918:	8aa6                	c.mv	x21,x9
    191a:	4f9d                	c.li	x31,7
    191c:	d81a                	c.swsp	x6,48(x2)
    191e:	8436                	c.mv	x8,x13
    1920:	de46                	c.swsp	x17,60(x2)
    1922:	84ba                	c.mv	x9,x14
    1924:	a021                	c.j	192c <_vfprintf_r+0xbdc>
    1926:	1441                	c.addi	x8,-16
    1928:	0282db63          	bge	x5,x8,195e <_vfprintf_r+0xc0e>
    192c:	0641                	c.addi	x12,16
    192e:	0585                	c.addi	x11,1
    1930:	c384                	c.sw	x9,0(x15)
    1932:	01e7a223          	sw	x30,4(x15)
    1936:	c7b2                	c.swsp	x12,204(x2)
    1938:	c5ae                	c.swsp	x11,200(x2)
    193a:	07a1                	c.addi	x15,8
    193c:	febfd5e3          	bge	x31,x11,1926 <_vfprintf_r+0xbd6>
    1940:	01d0                	c.addi4spn	x12,x2,196
    1942:	45a2                	c.lwsp	x11,8(x2)
    1944:	4512                	c.lwsp	x10,4(x2)
    1946:	021040ef          	jal	x1,6166 <__sprint_r>
    194a:	e135                	c.bnez	x10,19ae <_vfprintf_r+0xc5e>
    194c:	42c1                	c.li	x5,16
    194e:	1441                	c.addi	x8,-16
    1950:	463e                	c.lwsp	x12,204(x2)
    1952:	45ae                	c.lwsp	x11,200(x2)
    1954:	87d2                	c.mv	x15,x20
    1956:	4f9d                	c.li	x31,7
    1958:	8f16                	c.mv	x30,x5
    195a:	fc82c9e3          	blt	x5,x8,192c <_vfprintf_r+0xbdc>
    195e:	86a2                	c.mv	x13,x8
    1960:	843e                	c.mv	x8,x15
    1962:	87a6                	c.mv	x15,x9
    1964:	5342                	c.lwsp	x6,48(x2)
    1966:	84d6                	c.mv	x9,x21
    1968:	58f2                	c.lwsp	x17,60(x2)
    196a:	8ae6                	c.mv	x21,x25
    196c:	8cbe                	c.mv	x25,x15
    196e:	9636                	c.add	x12,x13
    1970:	0585                	c.addi	x11,1
    1972:	01942023          	sw	x25,0(x8)
    1976:	c054                	c.sw	x13,4(x8)
    1978:	c7b2                	c.swsp	x12,204(x2)
    197a:	c5ae                	c.swsp	x11,200(x2)
    197c:	479d                	c.li	x15,7
    197e:	0421                	c.addi	x8,8
    1980:	dab7d763          	bge	x15,x11,f2e <_vfprintf_r+0x1de>
    1984:	01d0                	c.addi4spn	x12,x2,196
    1986:	45a2                	c.lwsp	x11,8(x2)
    1988:	4512                	c.lwsp	x10,4(x2)
    198a:	de46                	c.swsp	x17,60(x2)
    198c:	d81a                	c.swsp	x6,48(x2)
    198e:	7d8040ef          	jal	x1,6166 <__sprint_r>
    1992:	ed11                	c.bnez	x10,19ae <_vfprintf_r+0xc5e>
    1994:	463e                	c.lwsp	x12,204(x2)
    1996:	8452                	c.mv	x8,x20
    1998:	5342                	c.lwsp	x6,48(x2)
    199a:	58f2                	c.lwsp	x17,60(x2)
    199c:	d92ff06f          	jal	x0,f2e <_vfprintf_r+0x1de>
    19a0:	01d0                	c.addi4spn	x12,x2,196
    19a2:	45a2                	c.lwsp	x11,8(x2)
    19a4:	4512                	c.lwsp	x10,4(x2)
    19a6:	7c0040ef          	jal	x1,6166 <__sprint_r>
    19aa:	dc050763          	beq	x10,x0,f78 <_vfprintf_r+0x228>
    19ae:	43c2                	c.lwsp	x7,16(x2)
    19b0:	4ca2                	c.lwsp	x25,8(x2)
    19b2:	00038663          	beq	x7,x0,19be <_vfprintf_r+0xc6e>
    19b6:	859e                	c.mv	x11,x7
    19b8:	4512                	c.lwsp	x10,4(x2)
    19ba:	346020ef          	jal	x1,3d00 <_free_r>
    19be:	00ccd783          	lhu	x15,12(x25)
    19c2:	1c412483          	lw	x9,452(x2)
    19c6:	1c012903          	lw	x18,448(x2)
    19ca:	0407f793          	andi	x15,x15,64
    19ce:	1bc12983          	lw	x19,444(x2)
    19d2:	1b812a03          	lw	x20,440(x2)
    19d6:	1b412a83          	lw	x21,436(x2)
    19da:	1b012b03          	lw	x22,432(x2)
    19de:	1ac12b83          	lw	x23,428(x2)
    19e2:	1a812c03          	lw	x24,424(x2)
    19e6:	1a012d03          	lw	x26,416(x2)
    19ea:	19c12d83          	lw	x27,412(x2)
    19ee:	e2079263          	bne	x15,x0,1012 <_vfprintf_r+0x2c2>
    19f2:	1cc12083          	lw	x1,460(x2)
    19f6:	1c812403          	lw	x8,456(x2)
    19fa:	4532                	c.lwsp	x10,12(x2)
    19fc:	1a412c83          	lw	x25,420(x2)
    1a00:	6179                	c.addi16sp	x2,464
    1a02:	8082                	c.jr	x1
    1a04:	01d0                	c.addi4spn	x12,x2,196
    1a06:	45a2                	c.lwsp	x11,8(x2)
    1a08:	4512                	c.lwsp	x10,4(x2)
    1a0a:	de46                	c.swsp	x17,60(x2)
    1a0c:	d81a                	c.swsp	x6,48(x2)
    1a0e:	758040ef          	jal	x1,6166 <__sprint_r>
    1a12:	fd51                	c.bnez	x10,19ae <_vfprintf_r+0xc5e>
    1a14:	463e                	c.lwsp	x12,204(x2)
    1a16:	8452                	c.mv	x8,x20
    1a18:	58f2                	c.lwsp	x17,60(x2)
    1a1a:	5342                	c.lwsp	x6,48(x2)
    1a1c:	d0aff06f          	jal	x0,f26 <_vfprintf_r+0x1d6>
    1a20:	55ba                	c.lwsp	x11,172(x2)
    1a22:	5cb05c63          	bge	x0,x11,1ffa <_vfprintf_r+0x12aa>
    1a26:	47e2                	c.lwsp	x15,24(x2)
    1a28:	84da                	c.mv	x9,x22
    1a2a:	3567c963          	blt	x15,x22,1d7c <_vfprintf_r+0x102c>
    1a2e:	00905e63          	bge	x0,x9,1a4a <_vfprintf_r+0xcfa>
    1a32:	47ae                	c.lwsp	x15,200(x2)
    1a34:	9626                	c.add	x12,x9
    1a36:	0785                	c.addi	x15,1
    1a38:	01542023          	sw	x21,0(x8)
    1a3c:	c044                	c.sw	x9,4(x8)
    1a3e:	c7b2                	c.swsp	x12,204(x2)
    1a40:	c5be                	c.swsp	x15,200(x2)
    1a42:	469d                	c.li	x13,7
    1a44:	0421                	c.addi	x8,8
    1a46:	36f6c1e3          	blt	x13,x15,25a8 <_vfprintf_r+0x1858>
    1a4a:	fff4c793          	xori	x15,x9,-1
    1a4e:	87fd                	c.srai	x15,0x1f
    1a50:	8cfd                	c.and	x9,x15
    1a52:	409b04b3          	sub	x9,x22,x9
    1a56:	40904863          	blt	x0,x9,1e66 <_vfprintf_r+0x1116>
    1a5a:	400bf793          	andi	x15,x23,1024
    1a5e:	016a8cb3          	add	x25,x21,x22
    1a62:	020793e3          	bne	x15,x0,2288 <_vfprintf_r+0x1538>
    1a66:	54ba                	c.lwsp	x9,172(x2)
    1a68:	4762                	c.lwsp	x14,24(x2)
    1a6a:	00e4c663          	blt	x9,x14,1a76 <_vfprintf_r+0xd26>
    1a6e:	001bf793          	andi	x15,x23,1
    1a72:	380782e3          	beq	x15,x0,25f6 <_vfprintf_r+0x18a6>
    1a76:	47ae                	c.lwsp	x15,200(x2)
    1a78:	5712                	c.lwsp	x14,36(x2)
    1a7a:	56b2                	c.lwsp	x13,44(x2)
    1a7c:	963a                	c.add	x12,x14
    1a7e:	0785                	c.addi	x15,1
    1a80:	c014                	c.sw	x13,0(x8)
    1a82:	c058                	c.sw	x14,4(x8)
    1a84:	c7b2                	c.swsp	x12,204(x2)
    1a86:	c5be                	c.swsp	x15,200(x2)
    1a88:	469d                	c.li	x13,7
    1a8a:	0421                	c.addi	x8,8
    1a8c:	00f6d463          	bge	x13,x15,1a94 <_vfprintf_r+0xd44>
    1a90:	17e0106f          	jal	x0,2c0e <_vfprintf_r+0x1ebe>
    1a94:	47e2                	c.lwsp	x15,24(x2)
    1a96:	9abe                	c.add	x21,x15
    1a98:	419a8ab3          	sub	x21,x21,x25
    1a9c:	409784b3          	sub	x9,x15,x9
    1aa0:	0154d363          	bge	x9,x21,1aa6 <_vfprintf_r+0xd56>
    1aa4:	8aa6                	c.mv	x21,x9
    1aa6:	03505163          	bge	x0,x21,1ac8 <_vfprintf_r+0xd78>
    1aaa:	47ae                	c.lwsp	x15,200(x2)
    1aac:	9656                	c.add	x12,x21
    1aae:	0785                	c.addi	x15,1
    1ab0:	01942023          	sw	x25,0(x8)
    1ab4:	01542223          	sw	x21,4(x8)
    1ab8:	c7b2                	c.swsp	x12,204(x2)
    1aba:	c5be                	c.swsp	x15,200(x2)
    1abc:	469d                	c.li	x13,7
    1abe:	0421                	c.addi	x8,8
    1ac0:	00f6d463          	bge	x13,x15,1ac8 <_vfprintf_r+0xd78>
    1ac4:	1cc0106f          	jal	x0,2c90 <_vfprintf_r+0x1f40>
    1ac8:	fffac793          	xori	x15,x21,-1
    1acc:	87fd                	c.srai	x15,0x1f
    1ace:	00fafab3          	and	x21,x21,x15
    1ad2:	415484b3          	sub	x9,x9,x21
    1ad6:	c8905163          	bge	x0,x9,f58 <_vfprintf_r+0x208>
    1ada:	4ac1                	c.li	x21,16
    1adc:	46ae                	c.lwsp	x13,200(x2)
    1ade:	0000cc97          	auipc	x25,0xc
    1ae2:	b46c8c93          	addi	x25,x25,-1210 # d624 <zeroes.0>
    1ae6:	5c9ad763          	bge	x21,x9,20b4 <_vfprintf_r+0x1364>
    1aea:	87a2                	c.mv	x15,x8
    1aec:	8856                	c.mv	x16,x21
    1aee:	8466                	c.mv	x8,x25
    1af0:	4d9d                	c.li	x27,7
    1af2:	8ca6                	c.mv	x25,x9
    1af4:	4b12                	c.lwsp	x22,4(x2)
    1af6:	849a                	c.mv	x9,x6
    1af8:	a021                	c.j	1b00 <_vfprintf_r+0xdb0>
    1afa:	1cc1                	c.addi	x25,-16
    1afc:	5b985863          	bge	x16,x25,20ac <_vfprintf_r+0x135c>
    1b00:	0641                	c.addi	x12,16
    1b02:	0685                	c.addi	x13,1
    1b04:	c380                	c.sw	x8,0(x15)
    1b06:	0157a223          	sw	x21,4(x15)
    1b0a:	c7b2                	c.swsp	x12,204(x2)
    1b0c:	c5b6                	c.swsp	x13,200(x2)
    1b0e:	07a1                	c.addi	x15,8
    1b10:	feddd5e3          	bge	x27,x13,1afa <_vfprintf_r+0xdaa>
    1b14:	01d0                	c.addi4spn	x12,x2,196
    1b16:	45a2                	c.lwsp	x11,8(x2)
    1b18:	855a                	c.mv	x10,x22
    1b1a:	64c040ef          	jal	x1,6166 <__sprint_r>
    1b1e:	e80518e3          	bne	x10,x0,19ae <_vfprintf_r+0xc5e>
    1b22:	463e                	c.lwsp	x12,204(x2)
    1b24:	46ae                	c.lwsp	x13,200(x2)
    1b26:	87d2                	c.mv	x15,x20
    1b28:	4841                	c.li	x16,16
    1b2a:	bfc1                	c.j	1afa <_vfprintf_r+0xdaa>
    1b2c:	46ae                	c.lwsp	x13,200(x2)
    1b2e:	4fc1                	c.li	x31,16
    1b30:	8536                	c.mv	x10,x13
    1b32:	0000c697          	auipc	x13,0xc
    1b36:	ae268693          	addi	x13,x13,-1310 # d614 <blanks.1>
    1b3a:	04ffde63          	bge	x31,x15,1b96 <_vfprintf_r+0xe46>
    1b3e:	8722                	c.mv	x14,x8
    1b40:	c2a6                	c.swsp	x9,68(x2)
    1b42:	83fe                	c.mv	x7,x31
    1b44:	429d                	c.li	x5,7
    1b46:	d81a                	c.swsp	x6,48(x2)
    1b48:	843e                	c.mv	x8,x15
    1b4a:	de46                	c.swsp	x17,60(x2)
    1b4c:	84b6                	c.mv	x9,x13
    1b4e:	a021                	c.j	1b56 <_vfprintf_r+0xe06>
    1b50:	1441                	c.addi	x8,-16
    1b52:	0283dc63          	bge	x7,x8,1b8a <_vfprintf_r+0xe3a>
    1b56:	05c1                	c.addi	x11,16
    1b58:	0505                	c.addi	x10,1
    1b5a:	c304                	c.sw	x9,0(x14)
    1b5c:	01f72223          	sw	x31,4(x14)
    1b60:	c7ae                	c.swsp	x11,204(x2)
    1b62:	c5aa                	c.swsp	x10,200(x2)
    1b64:	0721                	c.addi	x14,8
    1b66:	fea2d5e3          	bge	x5,x10,1b50 <_vfprintf_r+0xe00>
    1b6a:	01d0                	c.addi4spn	x12,x2,196
    1b6c:	45a2                	c.lwsp	x11,8(x2)
    1b6e:	4512                	c.lwsp	x10,4(x2)
    1b70:	5f6040ef          	jal	x1,6166 <__sprint_r>
    1b74:	e2051de3          	bne	x10,x0,19ae <_vfprintf_r+0xc5e>
    1b78:	43c1                	c.li	x7,16
    1b7a:	1441                	c.addi	x8,-16
    1b7c:	45be                	c.lwsp	x11,204(x2)
    1b7e:	452e                	c.lwsp	x10,200(x2)
    1b80:	8752                	c.mv	x14,x20
    1b82:	429d                	c.li	x5,7
    1b84:	8f9e                	c.mv	x31,x7
    1b86:	fc83c8e3          	blt	x7,x8,1b56 <_vfprintf_r+0xe06>
    1b8a:	87a2                	c.mv	x15,x8
    1b8c:	86a6                	c.mv	x13,x9
    1b8e:	5342                	c.lwsp	x6,48(x2)
    1b90:	843a                	c.mv	x8,x14
    1b92:	58f2                	c.lwsp	x17,60(x2)
    1b94:	4496                	c.lwsp	x9,68(x2)
    1b96:	00b78633          	add	x12,x15,x11
    1b9a:	0505                	c.addi	x10,1
    1b9c:	c05c                	c.sw	x15,4(x8)
    1b9e:	c7b2                	c.swsp	x12,204(x2)
    1ba0:	c5aa                	c.swsp	x10,200(x2)
    1ba2:	c014                	c.sw	x13,0(x8)
    1ba4:	479d                	c.li	x15,7
    1ba6:	4aa7c163          	blt	x15,x10,2048 <_vfprintf_r+0x12f8>
    1baa:	0a714783          	lbu	x15,167(x2)
    1bae:	0421                	c.addi	x8,8
    1bb0:	e7d5                	c.bnez	x15,1c5c <_vfprintf_r+0xf0c>
    1bb2:	b60c8e63          	beq	x25,x0,f2e <_vfprintf_r+0x1de>
    1bb6:	4c81                	c.li	x25,0
    1bb8:	b56ff06f          	jal	x0,f0e <_vfprintf_r+0x1be>
    1bbc:	00bbf7b3          	and	x15,x23,x11
    1bc0:	d6079163          	bne	x15,x0,1122 <_vfprintf_r+0x3d2>
    1bc4:	01542023          	sw	x21,0(x8)
    1bc8:	c04c                	c.sw	x11,4(x8)
    1bca:	c7ee                	c.swsp	x27,204(x2)
    1bcc:	c5a6                	c.swsp	x9,200(x2)
    1bce:	479d                	c.li	x15,7
    1bd0:	dc97d363          	bge	x15,x9,1196 <_vfprintf_r+0x446>
    1bd4:	01d0                	c.addi4spn	x12,x2,196
    1bd6:	45a2                	c.lwsp	x11,8(x2)
    1bd8:	4512                	c.lwsp	x10,4(x2)
    1bda:	ce1a                	c.swsp	x6,28(x2)
    1bdc:	58a040ef          	jal	x1,6166 <__sprint_r>
    1be0:	dc0517e3          	bne	x10,x0,19ae <_vfprintf_r+0xc5e>
    1be4:	4dbe                	c.lwsp	x27,204(x2)
    1be6:	44ae                	c.lwsp	x9,200(x2)
    1be8:	86d2                	c.mv	x13,x20
    1bea:	4372                	c.lwsp	x6,28(x2)
    1bec:	daaff06f          	jal	x0,1196 <_vfprintf_r+0x446>
    1bf0:	4785                	c.li	x15,1
    1bf2:	4762                	c.lwsp	x14,24(x2)
    1bf4:	dae7d163          	bge	x15,x14,1196 <_vfprintf_r+0x446>
    1bf8:	47c5                	c.li	x15,17
    1bfa:	0000cc97          	auipc	x25,0xc
    1bfe:	a2ac8c93          	addi	x25,x25,-1494 # d624 <zeroes.0>
    1c02:	54e7da63          	bge	x15,x14,2156 <_vfprintf_r+0x1406>
    1c06:	8b66                	c.mv	x22,x25
    1c08:	4ac1                	c.li	x21,16
    1c0a:	8cde                	c.mv	x25,x23
    1c0c:	481d                	c.li	x16,7
    1c0e:	8b9a                	c.mv	x23,x6
    1c10:	a021                	c.j	1c18 <_vfprintf_r+0xec8>
    1c12:	1441                	c.addi	x8,-16
    1c14:	528ade63          	bge	x21,x8,2150 <_vfprintf_r+0x1400>
    1c18:	0dc1                	c.addi	x27,16
    1c1a:	0485                	c.addi	x9,1
    1c1c:	0166a023          	sw	x22,0(x13)
    1c20:	0156a223          	sw	x21,4(x13)
    1c24:	c7ee                	c.swsp	x27,204(x2)
    1c26:	c5a6                	c.swsp	x9,200(x2)
    1c28:	06a1                	c.addi	x13,8
    1c2a:	fe9854e3          	bge	x16,x9,1c12 <_vfprintf_r+0xec2>
    1c2e:	01d0                	c.addi4spn	x12,x2,196
    1c30:	45a2                	c.lwsp	x11,8(x2)
    1c32:	4512                	c.lwsp	x10,4(x2)
    1c34:	532040ef          	jal	x1,6166 <__sprint_r>
    1c38:	d6051be3          	bne	x10,x0,19ae <_vfprintf_r+0xc5e>
    1c3c:	4dbe                	c.lwsp	x27,204(x2)
    1c3e:	44ae                	c.lwsp	x9,200(x2)
    1c40:	86d2                	c.mv	x13,x20
    1c42:	481d                	c.li	x16,7
    1c44:	b7f9                	c.j	1c12 <_vfprintf_r+0xec2>
    1c46:	001bf793          	andi	x15,x23,1
    1c4a:	b0078763          	beq	x15,x0,f58 <_vfprintf_r+0x208>
    1c4e:	f6cff06f          	jal	x0,13ba <_vfprintf_r+0x66a>
    1c52:	ca3e                	c.swsp	x15,20(x2)
    1c54:	000c4883          	lbu	x17,0(x24)
    1c58:	a1aff06f          	jal	x0,e72 <_vfprintf_r+0x122>
    1c5c:	87e6                	c.mv	x15,x25
    1c5e:	4c81                	c.li	x25,0
    1c60:	a90ff06f          	jal	x0,ef0 <_vfprintf_r+0x1a0>
    1c64:	4632                	c.lwsp	x12,12(x2)
    1c66:	429c                	c.lw	x15,0(x13)
    1c68:	41f65693          	srai	x13,x12,0x1f
    1c6c:	c390                	c.sw	x12,0(x15)
    1c6e:	c3d4                	c.sw	x13,4(x15)
    1c70:	ca3a                	c.swsp	x14,20(x2)
    1c72:	b635                	c.j	179e <_vfprintf_r+0xa4e>
    1c74:	4752                	c.lwsp	x14,20(x2)
    1c76:	431c                	c.lw	x15,0(x14)
    1c78:	0711                	c.addi	x14,4
    1c7a:	4390                	c.lw	x12,0(x15)
    1c7c:	ca3a                	c.swsp	x14,20(x2)
    1c7e:	43d4                	c.lw	x13,4(x15)
    1c80:	4798                	c.lw	x14,8(x15)
    1c82:	47dc                	c.lw	x15,12(x15)
    1c84:	bc4ff06f          	jal	x0,1048 <_vfprintf_r+0x2f8>
    1c88:	46d2                	c.lwsp	x13,20(x2)
    1c8a:	010bf793          	andi	x15,x23,16
    1c8e:	4298                	c.lw	x14,0(x13)
    1c90:	0691                	c.addi	x13,4
    1c92:	c399                	c.beqz	x15,1c98 <_vfprintf_r+0xf48>
    1c94:	05e0106f          	jal	x0,2cf2 <_vfprintf_r+0x1fa2>
    1c98:	040bf793          	andi	x15,x23,64
    1c9c:	52078a63          	beq	x15,x0,21d0 <_vfprintf_r+0x1480>
    1ca0:	01071d13          	slli	x26,x14,0x10
    1ca4:	0a0103a3          	sb	x0,167(x2)
    1ca8:	010d5d13          	srli	x26,x26,0x10
    1cac:	4d81                	c.li	x27,0
    1cae:	9604cee3          	blt	x9,x0,162a <_vfprintf_r+0x8da>
    1cb2:	f7fbfb93          	andi	x23,x23,-129
    1cb6:	960d1ae3          	bne	x26,x0,162a <_vfprintf_r+0x8da>
    1cba:	ca36                	c.swsp	x13,20(x2)
    1cbc:	22048263          	beq	x9,x0,1ee0 <_vfprintf_r+0x1190>
    1cc0:	4d01                	c.li	x26,0
    1cc2:	829ff06f          	jal	x0,14ea <_vfprintf_r+0x79a>
    1cc6:	47d2                	c.lwsp	x15,20(x2)
    1cc8:	00478693          	addi	x13,x15,4
    1ccc:	47d2                	c.lwsp	x15,20(x2)
    1cce:	439c                	c.lw	x15,0(x15)
    1cd0:	4601                	c.li	x12,0
    1cd2:	ca36                	c.swsp	x13,20(x2)
    1cd4:	b061                	c.j	155c <_vfprintf_r+0x80c>
    1cd6:	47d2                	c.lwsp	x15,20(x2)
    1cd8:	00478693          	addi	x13,x15,4
    1cdc:	47d2                	c.lwsp	x15,20(x2)
    1cde:	0007ad03          	lw	x26,0(x15)
    1ce2:	41fd5d93          	srai	x27,x26,0x1f
    1ce6:	ca36                	c.swsp	x13,20(x2)
    1ce8:	8bf2                	c.mv	x23,x28
    1cea:	876e                	c.mv	x14,x27
    1cec:	f8eff06f          	jal	x0,147a <_vfprintf_r+0x72a>
    1cf0:	875e                	c.mv	x14,x23
    1cf2:	b8a1                	c.j	154a <_vfprintf_r+0x7fa>
    1cf4:	00f77693          	andi	x13,x14,15
    1cf8:	0000b597          	auipc	x11,0xb
    1cfc:	38858593          	addi	x11,x11,904 # d080 <__clzsi2+0xe0>
    1d00:	96ae                	c.add	x13,x11
    1d02:	0006c683          	lbu	x13,0(x13)
    1d06:	18d107a3          	sb	x13,399(x2)
    1d0a:	8311                	c.srli	x14,0x4
    1d0c:	002beb93          	ori	x23,x23,2
    1d10:	4681                	c.li	x13,0
    1d12:	e319                	c.bnez	x14,1d18 <_vfprintf_r+0xfc8>
    1d14:	1fe0106f          	jal	x0,2f12 <_vfprintf_r+0x21c2>
    1d18:	ca3e                	c.swsp	x15,20(x2)
    1d1a:	4609                	c.li	x12,2
    1d1c:	07800893          	addi	x17,x0,120
    1d20:	18f10a93          	addi	x21,x2,399
    1d24:	00f77793          	andi	x15,x14,15
    1d28:	01c69513          	slli	x10,x13,0x1c
    1d2c:	97ae                	c.add	x15,x11
    1d2e:	8311                	c.srli	x14,0x4
    1d30:	0007c783          	lbu	x15,0(x15)
    1d34:	8f49                	c.or	x14,x10
    1d36:	8291                	c.srli	x13,0x4
    1d38:	fefa8fa3          	sb	x15,-1(x21)
    1d3c:	00d767b3          	or	x15,x14,x13
    1d40:	1afd                	c.addi	x21,-1
    1d42:	f3ed                	c.bnez	x15,1d24 <_vfprintf_r+0xfd4>
    1d44:	0b1c                	c.addi4spn	x15,x2,400
    1d46:	41578db3          	sub	x27,x15,x21
    1d4a:	8d26                	c.mv	x26,x9
    1d4c:	01b4d363          	bge	x9,x27,1d52 <_vfprintf_r+0x1002>
    1d50:	8d6e                	c.mv	x26,x27
    1d52:	c802                	c.swsp	x0,16(x2)
    1d54:	d002                	c.swsp	x0,32(x2)
    1d56:	ce02                	c.swsp	x0,28(x2)
    1d58:	4b01                	c.li	x22,0
    1d5a:	4f81                	c.li	x31,0
    1d5c:	96060f63          	beq	x12,x0,eda <_vfprintf_r+0x18a>
    1d60:	463e                	c.lwsp	x12,204(x2)
    1d62:	452e                	c.lwsp	x10,200(x2)
    1d64:	084bfc93          	andi	x25,x23,132
    1d68:	0d09                	c.addi	x26,2
    1d6a:	85b2                	c.mv	x11,x12
    1d6c:	86aa                	c.mv	x13,x10
    1d6e:	180c8c63          	beq	x25,x0,1f06 <_vfprintf_r+0x11b6>
    1d72:	4789                	c.li	x15,2
    1d74:	960f9e63          	bne	x31,x0,ef0 <_vfprintf_r+0x1a0>
    1d78:	996ff06f          	jal	x0,f0e <_vfprintf_r+0x1be>
    1d7c:	84be                	c.mv	x9,x15
    1d7e:	ca904ae3          	blt	x0,x9,1a32 <_vfprintf_r+0xce2>
    1d82:	b1e1                	c.j	1a4a <_vfprintf_r+0xcfa>
    1d84:	54fd                	c.li	x9,-1
    1d86:	8c36                	c.mv	x24,x13
    1d88:	8ecff06f          	jal	x0,e74 <_vfprintf_r+0x124>
    1d8c:	835a                	c.mv	x6,x22
    1d8e:	0000b597          	auipc	x11,0xb
    1d92:	30658593          	addi	x11,x11,774 # d094 <__clzsi2+0xf4>
    1d96:	020bf793          	andi	x15,x23,32
    1d9a:	1c078063          	beq	x15,x0,1f5a <_vfprintf_r+0x120a>
    1d9e:	47d2                	c.lwsp	x15,20(x2)
    1da0:	079d                	c.addi	x15,7
    1da2:	9be1                	c.andi	x15,-8
    1da4:	00878713          	addi	x14,x15,8
    1da8:	ca3a                	c.swsp	x14,20(x2)
    1daa:	43d4                	c.lw	x13,4(x15)
    1dac:	4398                	c.lw	x14,0(x15)
    1dae:	001bf793          	andi	x15,x23,1
    1db2:	16078863          	beq	x15,x0,1f22 <_vfprintf_r+0x11d2>
    1db6:	00d767b3          	or	x15,x14,x13
    1dba:	2a078d63          	beq	x15,x0,2074 <_vfprintf_r+0x1324>
    1dbe:	03000793          	addi	x15,x0,48
    1dc2:	0b1104a3          	sb	x17,169(x2)
    1dc6:	0a0103a3          	sb	x0,167(x2)
    1dca:	0af10423          	sb	x15,168(x2)
    1dce:	1e04c663          	blt	x9,x0,1fba <_vfprintf_r+0x126a>
    1dd2:	b7fbfe13          	andi	x28,x23,-1153
    1dd6:	002e6b93          	ori	x23,x28,2
    1dda:	00f77793          	andi	x15,x14,15
    1dde:	97ae                	c.add	x15,x11
    1de0:	0007c783          	lbu	x15,0(x15)
    1de4:	002bf613          	andi	x12,x23,2
    1de8:	01c69513          	slli	x10,x13,0x1c
    1dec:	8311                	c.srli	x14,0x4
    1dee:	8f49                	c.or	x14,x10
    1df0:	8291                	c.srli	x13,0x4
    1df2:	18f107a3          	sb	x15,399(x2)
    1df6:	00d767b3          	or	x15,x14,x13
    1dfa:	f39d                	c.bnez	x15,1d20 <_vfprintf_r+0xfd0>
    1dfc:	18f10a93          	addi	x21,x2,399
    1e00:	b791                	c.j	1d44 <_vfprintf_r+0xff4>
    1e02:	835a                	c.mv	x6,x22
    1e04:	0000b597          	auipc	x11,0xb
    1e08:	27c58593          	addi	x11,x11,636 # d080 <__clzsi2+0xe0>
    1e0c:	b769                	c.j	1d96 <_vfprintf_r+0x1046>
    1e0e:	01d0                	c.addi4spn	x12,x2,196
    1e10:	45a2                	c.lwsp	x11,8(x2)
    1e12:	4512                	c.lwsp	x10,4(x2)
    1e14:	ce1a                	c.swsp	x6,28(x2)
    1e16:	350040ef          	jal	x1,6166 <__sprint_r>
    1e1a:	b8051ae3          	bne	x10,x0,19ae <_vfprintf_r+0xc5e>
    1e1e:	463e                	c.lwsp	x12,204(x2)
    1e20:	8452                	c.mv	x8,x20
    1e22:	4372                	c.lwsp	x6,28(x2)
    1e24:	db0ff06f          	jal	x0,13d4 <_vfprintf_r+0x684>
    1e28:	001c4883          	lbu	x17,1(x24)
    1e2c:	020beb93          	ori	x23,x23,32
    1e30:	0c05                	c.addi	x24,1
    1e32:	840ff06f          	jal	x0,e72 <_vfprintf_r+0x122>
    1e36:	001c4883          	lbu	x17,1(x24)
    1e3a:	200beb93          	ori	x23,x23,512
    1e3e:	0c05                	c.addi	x24,1
    1e40:	832ff06f          	jal	x0,e72 <_vfprintf_r+0x122>
    1e44:	4799                	c.li	x15,6
    1e46:	8d26                	c.mv	x26,x9
    1e48:	7a97e563          	bltu	x15,x9,25f2 <_vfprintf_r+0x18a2>
    1e4c:	ca5a                	c.swsp	x22,20(x2)
    1e4e:	c802                	c.swsp	x0,16(x2)
    1e50:	8dea                	c.mv	x27,x26
    1e52:	4481                	c.li	x9,0
    1e54:	d002                	c.swsp	x0,32(x2)
    1e56:	ce02                	c.swsp	x0,28(x2)
    1e58:	4b01                	c.li	x22,0
    1e5a:	0000ba97          	auipc	x21,0xb
    1e5e:	24ea8a93          	addi	x21,x21,590 # d0a8 <__clzsi2+0x108>
    1e62:	878ff06f          	jal	x0,eda <_vfprintf_r+0x18a>
    1e66:	46c1                	c.li	x13,16
    1e68:	45ae                	c.lwsp	x11,200(x2)
    1e6a:	0000bc97          	auipc	x25,0xb
    1e6e:	7bac8c93          	addi	x25,x25,1978 # d624 <zeroes.0>
    1e72:	3e96d363          	bge	x13,x9,2258 <_vfprintf_r+0x1508>
    1e76:	87a2                	c.mv	x15,x8
    1e78:	88b6                	c.mv	x17,x13
    1e7a:	8426                	c.mv	x8,x9
    1e7c:	4d9d                	c.li	x27,7
    1e7e:	84e6                	c.mv	x9,x25
    1e80:	8cd6                	c.mv	x25,x21
    1e82:	8a9a                	c.mv	x21,x6
    1e84:	a021                	c.j	1e8c <_vfprintf_r+0x113c>
    1e86:	1441                	c.addi	x8,-16
    1e88:	3c88d363          	bge	x17,x8,224e <_vfprintf_r+0x14fe>
    1e8c:	0641                	c.addi	x12,16
    1e8e:	0585                	c.addi	x11,1
    1e90:	c384                	c.sw	x9,0(x15)
    1e92:	c3d4                	c.sw	x13,4(x15)
    1e94:	c7b2                	c.swsp	x12,204(x2)
    1e96:	c5ae                	c.swsp	x11,200(x2)
    1e98:	07a1                	c.addi	x15,8
    1e9a:	febdd6e3          	bge	x27,x11,1e86 <_vfprintf_r+0x1136>
    1e9e:	01d0                	c.addi4spn	x12,x2,196
    1ea0:	45a2                	c.lwsp	x11,8(x2)
    1ea2:	4512                	c.lwsp	x10,4(x2)
    1ea4:	2c2040ef          	jal	x1,6166 <__sprint_r>
    1ea8:	b00513e3          	bne	x10,x0,19ae <_vfprintf_r+0xc5e>
    1eac:	48c1                	c.li	x17,16
    1eae:	463e                	c.lwsp	x12,204(x2)
    1eb0:	45ae                	c.lwsp	x11,200(x2)
    1eb2:	87d2                	c.mv	x15,x20
    1eb4:	86c6                	c.mv	x13,x17
    1eb6:	bfc1                	c.j	1e86 <_vfprintf_r+0x1136>
    1eb8:	8556                	c.mv	x10,x21
    1eba:	ca46                	c.swsp	x17,20(x2)
    1ebc:	c81a                	c.swsp	x6,16(x2)
    1ebe:	df7fe0ef          	jal	x1,cb4 <strlen>
    1ec2:	fff54713          	xori	x14,x10,-1
    1ec6:	877d                	c.srai	x14,0x1f
    1ec8:	0a714783          	lbu	x15,167(x2)
    1ecc:	8daa                	c.mv	x27,x10
    1ece:	00e57d33          	and	x26,x10,x14
    1ed2:	4342                	c.lwsp	x6,16(x2)
    1ed4:	48d2                	c.lwsp	x17,20(x2)
    1ed6:	bc078063          	beq	x15,x0,1296 <_vfprintf_r+0x546>
    1eda:	0d05                	c.addi	x26,1
    1edc:	bbaff06f          	jal	x0,1296 <_vfprintf_r+0x546>
    1ee0:	4d81                	c.li	x27,0
    1ee2:	19010a93          	addi	x21,x2,400
    1ee6:	c802                	c.swsp	x0,16(x2)
    1ee8:	d002                	c.swsp	x0,32(x2)
    1eea:	ce02                	c.swsp	x0,28(x2)
    1eec:	4b01                	c.li	x22,0
    1eee:	fedfe06f          	jal	x0,eda <_vfprintf_r+0x18a>
    1ef2:	4b01                	c.li	x22,0
    1ef4:	4d81                	c.li	x27,0
    1ef6:	d002                	c.swsp	x0,32(x2)
    1ef8:	19010a93          	addi	x21,x2,400
    1efc:	07800893          	addi	x17,x0,120
    1f00:	4f81                	c.li	x31,0
    1f02:	c802                	c.swsp	x0,16(x2)
    1f04:	4d09                	c.li	x26,2
    1f06:	41a307b3          	sub	x15,x6,x26
    1f0a:	00f04a63          	blt	x0,x15,1f1e <_vfprintf_r+0x11ce>
    1f0e:	4c81                	c.li	x25,0
    1f10:	000f9463          	bne	x31,x0,1f18 <_vfprintf_r+0x11c8>
    1f14:	ffbfe06f          	jal	x0,f0e <_vfprintf_r+0x1be>
    1f18:	4789                	c.li	x15,2
    1f1a:	fd7fe06f          	jal	x0,ef0 <_vfprintf_r+0x1a0>
    1f1e:	4c89                	c.li	x25,2
    1f20:	b139                	c.j	1b2e <_vfprintf_r+0xdde>
    1f22:	0a0103a3          	sb	x0,167(x2)
    1f26:	0804cc63          	blt	x9,x0,1fbe <_vfprintf_r+0x126e>
    1f2a:	00d767b3          	or	x15,x14,x13
    1f2e:	b7fbfb93          	andi	x23,x23,-1153
    1f32:	ea0794e3          	bne	x15,x0,1dda <_vfprintf_r+0x108a>
    1f36:	800487e3          	beq	x9,x0,1744 <_vfprintf_r+0x9f4>
    1f3a:	0005c783          	lbu	x15,0(x11)
    1f3e:	18f107a3          	sb	x15,399(x2)
    1f42:	8d26                	c.mv	x26,x9
    1f44:	6e905d63          	bge	x0,x9,263e <_vfprintf_r+0x18ee>
    1f48:	c802                	c.swsp	x0,16(x2)
    1f4a:	4d85                	c.li	x27,1
    1f4c:	d002                	c.swsp	x0,32(x2)
    1f4e:	ce02                	c.swsp	x0,28(x2)
    1f50:	4b01                	c.li	x22,0
    1f52:	18f10a93          	addi	x21,x2,399
    1f56:	f85fe06f          	jal	x0,eda <_vfprintf_r+0x18a>
    1f5a:	46d2                	c.lwsp	x13,20(x2)
    1f5c:	4298                	c.lw	x14,0(x13)
    1f5e:	0691                	c.addi	x13,4
    1f60:	010bf793          	andi	x15,x23,16
    1f64:	ca36                	c.swsp	x13,20(x2)
    1f66:	eba1                	c.bnez	x15,1fb6 <_vfprintf_r+0x1266>
    1f68:	040bf793          	andi	x15,x23,64
    1f6c:	c3a9                	c.beqz	x15,1fae <_vfprintf_r+0x125e>
    1f6e:	0742                	c.slli	x14,0x10
    1f70:	8341                	c.srli	x14,0x10
    1f72:	4681                	c.li	x13,0
    1f74:	bd2d                	c.j	1dae <_vfprintf_r+0x105e>
    1f76:	01d0                	c.addi4spn	x12,x2,196
    1f78:	45a2                	c.lwsp	x11,8(x2)
    1f7a:	4512                	c.lwsp	x10,4(x2)
    1f7c:	ce1a                	c.swsp	x6,28(x2)
    1f7e:	1e8040ef          	jal	x1,6166 <__sprint_r>
    1f82:	a20516e3          	bne	x10,x0,19ae <_vfprintf_r+0xc5e>
    1f86:	4dbe                	c.lwsp	x27,204(x2)
    1f88:	44ae                	c.lwsp	x9,200(x2)
    1f8a:	86d2                	c.mv	x13,x20
    1f8c:	4372                	c.lwsp	x6,28(x2)
    1f8e:	9a6ff06f          	jal	x0,1134 <_vfprintf_r+0x3e4>
    1f92:	01d0                	c.addi4spn	x12,x2,196
    1f94:	45a2                	c.lwsp	x11,8(x2)
    1f96:	4512                	c.lwsp	x10,4(x2)
    1f98:	ce1a                	c.swsp	x6,28(x2)
    1f9a:	1cc040ef          	jal	x1,6166 <__sprint_r>
    1f9e:	a00518e3          	bne	x10,x0,19ae <_vfprintf_r+0xc5e>
    1fa2:	4dbe                	c.lwsp	x27,204(x2)
    1fa4:	44ae                	c.lwsp	x9,200(x2)
    1fa6:	86d2                	c.mv	x13,x20
    1fa8:	4372                	c.lwsp	x6,28(x2)
    1faa:	9a2ff06f          	jal	x0,114c <_vfprintf_r+0x3fc>
    1fae:	200bf793          	andi	x15,x23,512
    1fb2:	64079f63          	bne	x15,x0,2610 <_vfprintf_r+0x18c0>
    1fb6:	4681                	c.li	x13,0
    1fb8:	bbdd                	c.j	1dae <_vfprintf_r+0x105e>
    1fba:	002beb93          	ori	x23,x23,2
    1fbe:	00f77793          	andi	x15,x14,15
    1fc2:	97ae                	c.add	x15,x11
    1fc4:	002bf613          	andi	x12,x23,2
    1fc8:	0007c783          	lbu	x15,0(x15)
    1fcc:	bffbfb93          	andi	x23,x23,-1025
    1fd0:	bd21                	c.j	1de8 <_vfprintf_r+0x1098>
    1fd2:	e9958463          	beq	x11,x25,165a <_vfprintf_r+0x90a>
    1fd6:	420d9563          	bne	x27,x0,2400 <_vfprintf_r+0x16b0>
    1fda:	47a5                	c.li	x15,9
    1fdc:	43a7e263          	bltu	x15,x26,2400 <_vfprintf_r+0x16b0>
    1fe0:	0b1c                	c.addi4spn	x15,x2,400
    1fe2:	cc2e                	c.swsp	x11,24(x2)
    1fe4:	41578db3          	sub	x27,x15,x21
    1fe8:	835a                	c.mv	x6,x22
    1fea:	8d26                	c.mv	x26,x9
    1fec:	01b4d363          	bge	x9,x27,1ff2 <_vfprintf_r+0x12a2>
    1ff0:	8d6e                	c.mv	x26,x27
    1ff2:	0a714783          	lbu	x15,167(x2)
    1ff6:	d12ff06f          	jal	x0,1508 <_vfprintf_r+0x7b8>
    1ffa:	47ae                	c.lwsp	x15,200(x2)
    1ffc:	4685                	c.li	x13,1
    1ffe:	0605                	c.addi	x12,1
    2000:	0785                	c.addi	x15,1
    2002:	0000b517          	auipc	x10,0xb
    2006:	0ae50513          	addi	x10,x10,174 # d0b0 <__clzsi2+0x110>
    200a:	c054                	c.sw	x13,4(x8)
    200c:	c008                	c.sw	x10,0(x8)
    200e:	c7b2                	c.swsp	x12,204(x2)
    2010:	c5be                	c.swsp	x15,200(x2)
    2012:	469d                	c.li	x13,7
    2014:	0421                	c.addi	x8,8
    2016:	56f6c463          	blt	x13,x15,257e <_vfprintf_r+0x182e>
    201a:	16059263          	bne	x11,x0,217e <_vfprintf_r+0x142e>
    201e:	001bf793          	andi	x15,x23,1
    2022:	4762                	c.lwsp	x14,24(x2)
    2024:	8fd9                	c.or	x15,x14
    2026:	e399                	c.bnez	x15,202c <_vfprintf_r+0x12dc>
    2028:	f31fe06f          	jal	x0,f58 <_vfprintf_r+0x208>
    202c:	5792                	c.lwsp	x15,36(x2)
    202e:	46ae                	c.lwsp	x13,200(x2)
    2030:	963e                	c.add	x12,x15
    2032:	0685                	c.addi	x13,1
    2034:	5732                	c.lwsp	x14,44(x2)
    2036:	c05c                	c.sw	x15,4(x8)
    2038:	c7b2                	c.swsp	x12,204(x2)
    203a:	c018                	c.sw	x14,0(x8)
    203c:	c5b6                	c.swsp	x13,200(x2)
    203e:	479d                	c.li	x15,7
    2040:	64d7c163          	blt	x15,x13,2682 <_vfprintf_r+0x1932>
    2044:	0421                	c.addi	x8,8
    2046:	aa99                	c.j	219c <_vfprintf_r+0x144c>
    2048:	01d0                	c.addi4spn	x12,x2,196
    204a:	45a2                	c.lwsp	x11,8(x2)
    204c:	4512                	c.lwsp	x10,4(x2)
    204e:	de46                	c.swsp	x17,60(x2)
    2050:	d81a                	c.swsp	x6,48(x2)
    2052:	114040ef          	jal	x1,6166 <__sprint_r>
    2056:	94051ce3          	bne	x10,x0,19ae <_vfprintf_r+0xc5e>
    205a:	0a714783          	lbu	x15,167(x2)
    205e:	463e                	c.lwsp	x12,204(x2)
    2060:	5342                	c.lwsp	x6,48(x2)
    2062:	58f2                	c.lwsp	x17,60(x2)
    2064:	10078663          	beq	x15,x0,2170 <_vfprintf_r+0x1420>
    2068:	87e6                	c.mv	x15,x25
    206a:	452e                	c.lwsp	x10,200(x2)
    206c:	4c81                	c.li	x25,0
    206e:	8452                	c.mv	x8,x20
    2070:	e81fe06f          	jal	x0,ef0 <_vfprintf_r+0x1a0>
    2074:	0a0103a3          	sb	x0,167(x2)
    2078:	3604ca63          	blt	x9,x0,23ec <_vfprintf_r+0x169c>
    207c:	b7fbfb93          	andi	x23,x23,-1153
    2080:	bd5d                	c.j	1f36 <_vfprintf_r+0x11e6>
    2082:	4512                	c.lwsp	x10,4(x2)
    2084:	4b7030ef          	jal	x1,5d3a <__sinit>
    2088:	47a2                	c.lwsp	x15,8(x2)
    208a:	d01fe06f          	jal	x0,d8a <_vfprintf_r+0x3a>
    208e:	01d0                	c.addi4spn	x12,x2,196
    2090:	45a2                	c.lwsp	x11,8(x2)
    2092:	4512                	c.lwsp	x10,4(x2)
    2094:	ce1a                	c.swsp	x6,28(x2)
    2096:	0d0040ef          	jal	x1,6166 <__sprint_r>
    209a:	90051ae3          	bne	x10,x0,19ae <_vfprintf_r+0xc5e>
    209e:	463e                	c.lwsp	x12,204(x2)
    20a0:	8452                	c.mv	x8,x20
    20a2:	4372                	c.lwsp	x6,28(x2)
    20a4:	b0eff06f          	jal	x0,13b2 <_vfprintf_r+0x662>
    20a8:	43c2                	c.lwsp	x7,16(x2)
    20aa:	b221                	c.j	19b2 <_vfprintf_r+0xc62>
    20ac:	8326                	c.mv	x6,x9
    20ae:	84e6                	c.mv	x9,x25
    20b0:	8ca2                	c.mv	x25,x8
    20b2:	843e                	c.mv	x8,x15
    20b4:	9626                	c.add	x12,x9
    20b6:	0685                	c.addi	x13,1
    20b8:	c7b2                	c.swsp	x12,204(x2)
    20ba:	c5b6                	c.swsp	x13,200(x2)
    20bc:	01942023          	sw	x25,0(x8)
    20c0:	c044                	c.sw	x9,4(x8)
    20c2:	479d                	c.li	x15,7
    20c4:	00d7c463          	blt	x15,x13,20cc <_vfprintf_r+0x137c>
    20c8:	e8ffe06f          	jal	x0,f56 <_vfprintf_r+0x206>
    20cc:	8e8ff06f          	jal	x0,11b4 <_vfprintf_r+0x464>
    20d0:	47ce                	c.lwsp	x15,208(x2)
    20d2:	46de                	c.lwsp	x13,212(x2)
    20d4:	476e                	c.lwsp	x14,216(x2)
    20d6:	c93e                	c.swsp	x15,144(x2)
    20d8:	010c                	c.addi4spn	x11,x2,128
    20da:	47fe                	c.lwsp	x15,220(x2)
    20dc:	0908                	c.addi4spn	x10,x2,144
    20de:	c102                	c.swsp	x0,128(x2)
    20e0:	c302                	c.swsp	x0,132(x2)
    20e2:	c502                	c.swsp	x0,136(x2)
    20e4:	c702                	c.swsp	x0,140(x2)
    20e6:	cb36                	c.swsp	x13,148(x2)
    20e8:	cd3a                	c.swsp	x14,152(x2)
    20ea:	cf3e                	c.swsp	x15,156(x2)
    20ec:	423080ef          	jal	x1,ad0e <__letf2>
    20f0:	f7fbfb93          	andi	x23,x23,-129
    20f4:	4342                	c.lwsp	x6,16(x2)
    20f6:	48f2                	c.lwsp	x17,28(x2)
    20f8:	32054ae3          	blt	x10,x0,2c2c <_vfprintf_r+0x1edc>
    20fc:	04700713          	addi	x14,x0,71
    2100:	0a714783          	lbu	x15,167(x2)
    2104:	0000ba97          	auipc	x21,0xb
    2108:	f6ca8a93          	addi	x21,x21,-148 # d070 <__clzsi2+0xd0>
    210c:	01175663          	bge	x14,x17,2118 <_vfprintf_r+0x13c8>
    2110:	0000ba97          	auipc	x21,0xb
    2114:	f64a8a93          	addi	x21,x21,-156 # d074 <__clzsi2+0xd4>
    2118:	160797e3          	bne	x15,x0,2a86 <_vfprintf_r+0x1d36>
    211c:	4d8d                	c.li	x27,3
    211e:	8d6e                	c.mv	x26,x27
    2120:	978ff06f          	jal	x0,1298 <_vfprintf_r+0x548>
    2124:	47d2                	c.lwsp	x15,20(x2)
    2126:	439c                	c.lw	x15,0(x15)
    2128:	46b2                	c.lwsp	x13,12(x2)
    212a:	c394                	c.sw	x13,0(x15)
    212c:	ca3a                	c.swsp	x14,20(x2)
    212e:	e70ff06f          	jal	x0,179e <_vfprintf_r+0xa4e>
    2132:	00f77613          	andi	x12,x14,15
    2136:	0000b597          	auipc	x11,0xb
    213a:	f4a58593          	addi	x11,x11,-182 # d080 <__clzsi2+0xe0>
    213e:	962e                	c.add	x12,x11
    2140:	ca3e                	c.swsp	x15,20(x2)
    2142:	8bc2                	c.mv	x23,x16
    2144:	00064783          	lbu	x15,0(x12)
    2148:	07800893          	addi	x17,x0,120
    214c:	4609                	c.li	x12,2
    214e:	b969                	c.j	1de8 <_vfprintf_r+0x1098>
    2150:	835e                	c.mv	x6,x23
    2152:	8be6                	c.mv	x23,x25
    2154:	8cda                	c.mv	x25,x22
    2156:	9da2                	c.add	x27,x8
    2158:	0485                	c.addi	x9,1
    215a:	c7ee                	c.swsp	x27,204(x2)
    215c:	c5a6                	c.swsp	x9,200(x2)
    215e:	0196a023          	sw	x25,0(x13)
    2162:	c2c0                	c.sw	x8,4(x13)
    2164:	479d                	c.li	x15,7
    2166:	0097c463          	blt	x15,x9,216e <_vfprintf_r+0x141e>
    216a:	82aff06f          	jal	x0,1194 <_vfprintf_r+0x444>
    216e:	b49d                	c.j	1bd4 <_vfprintf_r+0xe84>
    2170:	480c8d63          	beq	x25,x0,260a <_vfprintf_r+0x18ba>
    2174:	452e                	c.lwsp	x10,200(x2)
    2176:	4c81                	c.li	x25,0
    2178:	8452                	c.mv	x8,x20
    217a:	d95fe06f          	jal	x0,f0e <_vfprintf_r+0x1be>
    217e:	5792                	c.lwsp	x15,36(x2)
    2180:	46ae                	c.lwsp	x13,200(x2)
    2182:	963e                	c.add	x12,x15
    2184:	0685                	c.addi	x13,1
    2186:	5732                	c.lwsp	x14,44(x2)
    2188:	c05c                	c.sw	x15,4(x8)
    218a:	c018                	c.sw	x14,0(x8)
    218c:	c7b2                	c.swsp	x12,204(x2)
    218e:	c5b6                	c.swsp	x13,200(x2)
    2190:	479d                	c.li	x15,7
    2192:	0421                	c.addi	x8,8
    2194:	4ed7c763          	blt	x15,x13,2682 <_vfprintf_r+0x1932>
    2198:	3605c0e3          	blt	x11,x0,2cf8 <_vfprintf_r+0x1fa8>
    219c:	47e2                	c.lwsp	x15,24(x2)
    219e:	963e                	c.add	x12,x15
    21a0:	0685                	c.addi	x13,1
    21a2:	c05c                	c.sw	x15,4(x8)
    21a4:	c7b2                	c.swsp	x12,204(x2)
    21a6:	c5b6                	c.swsp	x13,200(x2)
    21a8:	01542023          	sw	x21,0(x8)
    21ac:	479d                	c.li	x15,7
    21ae:	00d7c463          	blt	x15,x13,21b6 <_vfprintf_r+0x1466>
    21b2:	da5fe06f          	jal	x0,f56 <_vfprintf_r+0x206>
    21b6:	ffffe06f          	jal	x0,11b4 <_vfprintf_r+0x464>
    21ba:	200bf713          	andi	x14,x23,512
    21be:	46070563          	beq	x14,x0,2628 <_vfprintf_r+0x18d8>
    21c2:	0ff7f793          	andi	x15,x15,255
    21c6:	ca36                	c.swsp	x13,20(x2)
    21c8:	875e                	c.mv	x14,x23
    21ca:	4601                	c.li	x12,0
    21cc:	b90ff06f          	jal	x0,155c <_vfprintf_r+0x80c>
    21d0:	200bf793          	andi	x15,x23,512
    21d4:	0a0103a3          	sb	x0,167(x2)
    21d8:	44079163          	bne	x15,x0,261a <_vfprintf_r+0x18ca>
    21dc:	8d3a                	c.mv	x26,x14
    21de:	4d81                	c.li	x27,0
    21e0:	c404c563          	blt	x9,x0,162a <_vfprintf_r+0x8da>
    21e4:	f7fbfb93          	andi	x23,x23,-129
    21e8:	c4071163          	bne	x14,x0,162a <_vfprintf_r+0x8da>
    21ec:	ca36                	c.swsp	x13,20(x2)
    21ee:	d4048c63          	beq	x9,x0,1746 <_vfprintf_r+0x9f6>
    21f2:	4d01                	c.li	x26,0
    21f4:	af6ff06f          	jal	x0,14ea <_vfprintf_r+0x79a>
    21f8:	200bf793          	andi	x15,x23,512
    21fc:	42078b63          	beq	x15,x0,2632 <_vfprintf_r+0x18e2>
    2200:	0d62                	c.slli	x26,0x18
    2202:	418d5d13          	srai	x26,x26,0x18
    2206:	41fd5d93          	srai	x27,x26,0x1f
    220a:	ca36                	c.swsp	x13,20(x2)
    220c:	876e                	c.mv	x14,x27
    220e:	a6cff06f          	jal	x0,147a <_vfprintf_r+0x72a>
    2212:	4dfe                	c.lwsp	x27,220(x2)
    2214:	800007b7          	lui	x15,0x80000
    2218:	00fdfb33          	and	x22,x27,x15
    221c:	f7fbfb93          	andi	x23,x23,-129
    2220:	420b0963          	beq	x22,x0,2652 <_vfprintf_r+0x1902>
    2224:	02d00793          	addi	x15,x0,45
    2228:	0af103a3          	sb	x15,167(x2)
    222c:	c802                	c.swsp	x0,16(x2)
    222e:	04700793          	addi	x15,x0,71
    2232:	d002                	c.swsp	x0,32(x2)
    2234:	ce02                	c.swsp	x0,28(x2)
    2236:	4d8d                	c.li	x27,3
    2238:	4481                	c.li	x9,0
    223a:	4b01                	c.li	x22,0
    223c:	3d17d2e3          	bge	x15,x17,2e00 <_vfprintf_r+0x20b0>
    2240:	0000ba97          	auipc	x21,0xb
    2244:	e3ca8a93          	addi	x21,x21,-452 # d07c <__clzsi2+0xdc>
    2248:	4d11                	c.li	x26,4
    224a:	c91fe06f          	jal	x0,eda <_vfprintf_r+0x18a>
    224e:	8356                	c.mv	x6,x21
    2250:	8ae6                	c.mv	x21,x25
    2252:	8ca6                	c.mv	x25,x9
    2254:	84a2                	c.mv	x9,x8
    2256:	843e                	c.mv	x8,x15
    2258:	9626                	c.add	x12,x9
    225a:	0585                	c.addi	x11,1
    225c:	01942023          	sw	x25,0(x8)
    2260:	c044                	c.sw	x9,4(x8)
    2262:	c7b2                	c.swsp	x12,204(x2)
    2264:	c5ae                	c.swsp	x11,200(x2)
    2266:	479d                	c.li	x15,7
    2268:	0421                	c.addi	x8,8
    226a:	feb7d863          	bge	x15,x11,1a5a <_vfprintf_r+0xd0a>
    226e:	01d0                	c.addi4spn	x12,x2,196
    2270:	45a2                	c.lwsp	x11,8(x2)
    2272:	4512                	c.lwsp	x10,4(x2)
    2274:	d81a                	c.swsp	x6,48(x2)
    2276:	6f1030ef          	jal	x1,6166 <__sprint_r>
    227a:	f2051a63          	bne	x10,x0,19ae <_vfprintf_r+0xc5e>
    227e:	463e                	c.lwsp	x12,204(x2)
    2280:	8452                	c.mv	x8,x20
    2282:	5342                	c.lwsp	x6,48(x2)
    2284:	fd6ff06f          	jal	x0,1a5a <_vfprintf_r+0xd0a>
    2288:	47e2                	c.lwsp	x15,24(x2)
    228a:	8522                	c.mv	x10,x8
    228c:	c2de                	c.swsp	x23,68(x2)
    228e:	c4ea                	c.swsp	x26,72(x2)
    2290:	c6d6                	c.swsp	x21,76(x2)
    2292:	d862                	c.swsp	x24,48(x2)
    2294:	de1a                	c.swsp	x6,60(x2)
    2296:	4472                	c.lwsp	x8,28(x2)
    2298:	00fa8b33          	add	x22,x21,x15
    229c:	8be6                	c.mv	x23,x25
    229e:	469d                	c.li	x13,7
    22a0:	47c1                	c.li	x15,16
    22a2:	0000b497          	auipc	x9,0xb
    22a6:	38248493          	addi	x9,x9,898 # d624 <zeroes.0>
    22aa:	4c86                	c.lwsp	x25,64(x2)
    22ac:	5d22                	c.lwsp	x26,40(x2)
    22ae:	4da2                	c.lwsp	x27,8(x2)
    22b0:	5a82                	c.lwsp	x21,32(x2)
    22b2:	06805563          	bge	x0,x8,231c <_vfprintf_r+0x15cc>
    22b6:	0f505e63          	bge	x0,x21,23b2 <_vfprintf_r+0x1662>
    22ba:	1afd                	c.addi	x21,-1
    22bc:	472e                	c.lwsp	x14,200(x2)
    22be:	9666                	c.add	x12,x25
    22c0:	0705                	c.addi	x14,1
    22c2:	55e2                	c.lwsp	x11,56(x2)
    22c4:	c10c                	c.sw	x11,0(x10)
    22c6:	01952223          	sw	x25,4(x10)
    22ca:	c7b2                	c.swsp	x12,204(x2)
    22cc:	c5ba                	c.swsp	x14,200(x2)
    22ce:	0521                	c.addi	x10,8
    22d0:	0ee6c463          	blt	x13,x14,23b8 <_vfprintf_r+0x1668>
    22d4:	000d4583          	lbu	x11,0(x26)
    22d8:	417b0c33          	sub	x24,x22,x23
    22dc:	0185d363          	bge	x11,x24,22e2 <_vfprintf_r+0x1592>
    22e0:	8c2e                	c.mv	x24,x11
    22e2:	03805063          	bge	x0,x24,2302 <_vfprintf_r+0x15b2>
    22e6:	45ae                	c.lwsp	x11,200(x2)
    22e8:	9662                	c.add	x12,x24
    22ea:	0585                	c.addi	x11,1
    22ec:	c7b2                	c.swsp	x12,204(x2)
    22ee:	01752023          	sw	x23,0(x10)
    22f2:	01852223          	sw	x24,4(x10)
    22f6:	c5ae                	c.swsp	x11,200(x2)
    22f8:	0cb6cc63          	blt	x13,x11,23d0 <_vfprintf_r+0x1680>
    22fc:	0521                	c.addi	x10,8
    22fe:	000d4583          	lbu	x11,0(x26)
    2302:	fffc4e93          	xori	x29,x24,-1
    2306:	41fede93          	srai	x29,x29,0x1f
    230a:	01dc7733          	and	x14,x24,x29
    230e:	40e58c33          	sub	x24,x11,x14
    2312:	03804663          	blt	x0,x24,233e <_vfprintf_r+0x15ee>
    2316:	9bae                	c.add	x23,x11
    2318:	f8804fe3          	blt	x0,x8,22b6 <_vfprintf_r+0x1566>
    231c:	f9504fe3          	blt	x0,x21,22ba <_vfprintf_r+0x156a>
    2320:	4ab6                	c.lwsp	x21,76(x2)
    2322:	47e2                	c.lwsp	x15,24(x2)
    2324:	8cde                	c.mv	x25,x23
    2326:	d46a                	c.swsp	x26,40(x2)
    2328:	97d6                	c.add	x15,x21
    232a:	5c42                	c.lwsp	x24,48(x2)
    232c:	5372                	c.lwsp	x6,60(x2)
    232e:	842a                	c.mv	x8,x10
    2330:	4b96                	c.lwsp	x23,68(x2)
    2332:	4d26                	c.lwsp	x26,72(x2)
    2334:	f397f963          	bgeu	x15,x25,1a66 <_vfprintf_r+0xd16>
    2338:	8cbe                	c.mv	x25,x15
    233a:	f2cff06f          	jal	x0,1a66 <_vfprintf_r+0xd16>
    233e:	45ae                	c.lwsp	x11,200(x2)
    2340:	0000be97          	auipc	x29,0xb
    2344:	2e4e8e93          	addi	x29,x29,740 # d624 <zeroes.0>
    2348:	0587d663          	bge	x15,x24,2394 <_vfprintf_r+0x1644>
    234c:	ce22                	c.swsp	x8,28(x2)
    234e:	8462                	c.mv	x8,x24
    2350:	8c5a                	c.mv	x24,x22
    2352:	8b76                	c.mv	x22,x29
    2354:	a021                	c.j	235c <_vfprintf_r+0x160c>
    2356:	1441                	c.addi	x8,-16
    2358:	0287da63          	bge	x15,x8,238c <_vfprintf_r+0x163c>
    235c:	0641                	c.addi	x12,16
    235e:	0585                	c.addi	x11,1
    2360:	c104                	c.sw	x9,0(x10)
    2362:	c15c                	c.sw	x15,4(x10)
    2364:	c7b2                	c.swsp	x12,204(x2)
    2366:	c5ae                	c.swsp	x11,200(x2)
    2368:	0521                	c.addi	x10,8
    236a:	feb6d6e3          	bge	x13,x11,2356 <_vfprintf_r+0x1606>
    236e:	01d0                	c.addi4spn	x12,x2,196
    2370:	85ee                	c.mv	x11,x27
    2372:	4512                	c.lwsp	x10,4(x2)
    2374:	5f3030ef          	jal	x1,6166 <__sprint_r>
    2378:	78051963          	bne	x10,x0,2b0a <_vfprintf_r+0x1dba>
    237c:	47c1                	c.li	x15,16
    237e:	1441                	c.addi	x8,-16
    2380:	463e                	c.lwsp	x12,204(x2)
    2382:	45ae                	c.lwsp	x11,200(x2)
    2384:	8552                	c.mv	x10,x20
    2386:	469d                	c.li	x13,7
    2388:	fc87cae3          	blt	x15,x8,235c <_vfprintf_r+0x160c>
    238c:	8eda                	c.mv	x29,x22
    238e:	8b62                	c.mv	x22,x24
    2390:	8c22                	c.mv	x24,x8
    2392:	4472                	c.lwsp	x8,28(x2)
    2394:	9662                	c.add	x12,x24
    2396:	0585                	c.addi	x11,1
    2398:	c7b2                	c.swsp	x12,204(x2)
    239a:	c5ae                	c.swsp	x11,200(x2)
    239c:	01d52023          	sw	x29,0(x10)
    23a0:	01852223          	sw	x24,4(x10)
    23a4:	76b6ce63          	blt	x13,x11,2b20 <_vfprintf_r+0x1dd0>
    23a8:	000d4583          	lbu	x11,0(x26)
    23ac:	0521                	c.addi	x10,8
    23ae:	9bae                	c.add	x23,x11
    23b0:	b7a5                	c.j	2318 <_vfprintf_r+0x15c8>
    23b2:	1d7d                	c.addi	x26,-1
    23b4:	147d                	c.addi	x8,-1
    23b6:	b719                	c.j	22bc <_vfprintf_r+0x156c>
    23b8:	01d0                	c.addi4spn	x12,x2,196
    23ba:	85ee                	c.mv	x11,x27
    23bc:	4512                	c.lwsp	x10,4(x2)
    23be:	5a9030ef          	jal	x1,6166 <__sprint_r>
    23c2:	74051463          	bne	x10,x0,2b0a <_vfprintf_r+0x1dba>
    23c6:	463e                	c.lwsp	x12,204(x2)
    23c8:	8552                	c.mv	x10,x20
    23ca:	47c1                	c.li	x15,16
    23cc:	469d                	c.li	x13,7
    23ce:	b719                	c.j	22d4 <_vfprintf_r+0x1584>
    23d0:	01d0                	c.addi4spn	x12,x2,196
    23d2:	85ee                	c.mv	x11,x27
    23d4:	4512                	c.lwsp	x10,4(x2)
    23d6:	591030ef          	jal	x1,6166 <__sprint_r>
    23da:	72051863          	bne	x10,x0,2b0a <_vfprintf_r+0x1dba>
    23de:	000d4583          	lbu	x11,0(x26)
    23e2:	463e                	c.lwsp	x12,204(x2)
    23e4:	8552                	c.mv	x10,x20
    23e6:	47c1                	c.li	x15,16
    23e8:	469d                	c.li	x13,7
    23ea:	bf21                	c.j	2302 <_vfprintf_r+0x15b2>
    23ec:	0005c783          	lbu	x15,0(x11)
    23f0:	18f107a3          	sb	x15,399(x2)
    23f4:	bffbfb93          	andi	x23,x23,-1025
    23f8:	4601                	c.li	x12,0
    23fa:	18f10a93          	addi	x21,x2,399
    23fe:	b299                	c.j	1d44 <_vfprintf_r+0xff4>
    2400:	4606                	c.lwsp	x12,64(x2)
    2402:	40ca86b3          	sub	x13,x21,x12
    2406:	8536                	c.mv	x10,x13
    2408:	55e2                	c.lwsp	x11,56(x2)
    240a:	ce7a                	c.swsp	x30,28(x2)
    240c:	cc46                	c.swsp	x17,24(x2)
    240e:	c836                	c.swsp	x13,16(x2)
    2410:	4e1030ef          	jal	x1,60f0 <strncpy>
    2414:	01bd07b3          	add	x15,x26,x27
    2418:	01a7b5b3          	sltu	x11,x15,x26
    241c:	ccccd637          	lui	x12,0xccccd
    2420:	ccd60613          	addi	x12,x12,-819 # cccccccd <__heap_end+0xcc8ccccd>
    2424:	97ae                	c.add	x15,x11
    2426:	02c7b533          	mulhu	x10,x15,x12
    242a:	ccccd337          	lui	x6,0xccccd
    242e:	ccc30313          	addi	x6,x6,-820 # cccccccc <__heap_end+0xcc8ccccc>
    2432:	5722                	c.lwsp	x14,40(x2)
    2434:	00174583          	lbu	x11,1(x14)
    2438:	00b035b3          	sltu	x11,x0,x11
    243c:	46c2                	c.lwsp	x13,16(x2)
    243e:	972e                	c.add	x14,x11
    2440:	d43a                	c.swsp	x14,40(x2)
    2442:	fff68a93          	addi	x21,x13,-1
    2446:	00255e13          	srli	x28,x10,0x2
    244a:	9971                	c.andi	x10,-4
    244c:	9572                	c.add	x10,x28
    244e:	8f89                	c.sub	x15,x10
    2450:	40fd07b3          	sub	x15,x26,x15
    2454:	00fd3533          	sltu	x10,x26,x15
    2458:	40ad8533          	sub	x10,x27,x10
    245c:	02678333          	mul	x6,x15,x6
    2460:	4585                	c.li	x11,1
    2462:	48e2                	c.lwsp	x17,24(x2)
    2464:	4f72                	c.lwsp	x30,28(x2)
    2466:	02c50533          	mul	x10,x10,x12
    246a:	02c7be33          	mulhu	x28,x15,x12
    246e:	951a                	c.add	x10,x6
    2470:	02c787b3          	mul	x15,x15,x12
    2474:	9572                	c.add	x10,x28
    2476:	01f51313          	slli	x6,x10,0x1f
    247a:	00155d93          	srli	x27,x10,0x1
    247e:	8385                	c.srli	x15,0x1
    2480:	00f36d33          	or	x26,x6,x15
    2484:	01bd07b3          	add	x15,x26,x27
    2488:	01a7b533          	sltu	x10,x15,x26
    248c:	97aa                	c.add	x15,x10
    248e:	02c7b533          	mulhu	x10,x15,x12
    2492:	00255313          	srli	x6,x10,0x2
    2496:	9971                	c.andi	x10,-4
    2498:	951a                	c.add	x10,x6
    249a:	8f89                	c.sub	x15,x10
    249c:	40fd07b3          	sub	x15,x26,x15
    24a0:	00fd3533          	sltu	x10,x26,x15
    24a4:	40ad8533          	sub	x10,x27,x10
    24a8:	02c7b333          	mulhu	x6,x15,x12
    24ac:	02c50533          	mul	x10,x10,x12
    24b0:	02c787b3          	mul	x15,x15,x12
    24b4:	00650633          	add	x12,x10,x6
    24b8:	067e                	c.slli	x12,0x1f
    24ba:	8385                	c.srli	x15,0x1
    24bc:	8fd1                	c.or	x15,x12
    24be:	00279613          	slli	x12,x15,0x2
    24c2:	97b2                	c.add	x15,x12
    24c4:	0786                	c.slli	x15,0x1
    24c6:	40fd07b3          	sub	x15,x26,x15
    24ca:	03078793          	addi	x15,x15,48 # 80000030 <__heap_end+0x7fc00030>
    24ce:	fef68fa3          	sb	x15,-1(x13)
    24d2:	ccccd7b7          	lui	x15,0xccccd
    24d6:	ccd78713          	addi	x14,x15,-819 # cccccccd <__heap_end+0xcc8ccccd>
    24da:	ccc78813          	addi	x16,x15,-820
    24de:	972ff06f          	jal	x0,1650 <_vfprintf_r+0x900>
    24e2:	ca36                	c.swsp	x13,20(x2)
    24e4:	8bf2                	c.mv	x23,x28
    24e6:	ffffe06f          	jal	x0,14e4 <_vfprintf_r+0x794>
    24ea:	09010d93          	addi	x27,x2,144
    24ee:	191c                	c.addi4spn	x15,x2,176
    24f0:	85ee                	c.mv	x11,x27
    24f2:	0bc10813          	addi	x16,x2,188
    24f6:	1178                	c.addi4spn	x14,x2,172
    24f8:	86a6                	c.mv	x13,x9
    24fa:	4609                	c.li	x12,2
    24fc:	4512                	c.lwsp	x10,4(x2)
    24fe:	c6c6                	c.swsp	x17,76(x2)
    2500:	c49a                	c.swsp	x6,72(x2)
    2502:	c91e                	c.swsp	x7,144(x2)
    2504:	c29e                	c.swsp	x7,68(x2)
    2506:	cb16                	c.swsp	x5,148(x2)
    2508:	d016                	c.swsp	x5,32(x2)
    250a:	cd7e                	c.swsp	x31,152(x2)
    250c:	ce7e                	c.swsp	x31,28(x2)
    250e:	cf7a                	c.swsp	x30,156(x2)
    2510:	cc7a                	c.swsp	x30,24(x2)
    2512:	3b9000ef          	jal	x1,30ca <_ldtoa_r>
    2516:	001bf793          	andi	x15,x23,1
    251a:	8aaa                	c.mv	x21,x10
    251c:	4f62                	c.lwsp	x30,24(x2)
    251e:	4ff2                	c.lwsp	x31,28(x2)
    2520:	5282                	c.lwsp	x5,32(x2)
    2522:	4396                	c.lwsp	x7,68(x2)
    2524:	4326                	c.lwsp	x6,72(x2)
    2526:	48b6                	c.lwsp	x17,76(x2)
    2528:	7a079863          	bne	x15,x0,2cd8 <_vfprintf_r+0x1f88>
    252c:	577a                	c.lwsp	x14,188(x2)
    252e:	8f09                	c.sub	x14,x10
    2530:	5b3a                	c.lwsp	x22,172(x2)
    2532:	57f5                	c.li	x15,-3
    2534:	cc3a                	c.swsp	x14,24(x2)
    2536:	72fb4c63          	blt	x22,x15,2c6e <_vfprintf_r+0x1f1e>
    253a:	6164cf63          	blt	x9,x22,2b58 <_vfprintf_r+0x1e08>
    253e:	76eb4b63          	blt	x22,x14,2cb4 <_vfprintf_r+0x1f64>
    2542:	8dda                	c.mv	x27,x22
    2544:	400bfe13          	andi	x28,x23,1024
    2548:	000e0463          	beq	x28,x0,2550 <_vfprintf_r+0x1800>
    254c:	0d6041e3          	blt	x0,x22,2e0e <_vfprintf_r+0x20be>
    2550:	fffdc713          	xori	x14,x27,-1
    2554:	877d                	c.srai	x14,0x1f
    2556:	00edfd33          	and	x26,x27,x14
    255a:	06700893          	addi	x17,x0,103
    255e:	5bf2                	c.lwsp	x23,60(x2)
    2560:	d002                	c.swsp	x0,32(x2)
    2562:	ce02                	c.swsp	x0,28(x2)
    2564:	57c2                	c.lwsp	x15,48(x2)
    2566:	002bf613          	andi	x12,x23,2
    256a:	58078963          	beq	x15,x0,2afc <_vfprintf_r+0x1dac>
    256e:	02d00f93          	addi	x31,x0,45
    2572:	0bf103a3          	sb	x31,167(x2)
    2576:	0d05                	c.addi	x26,1
    2578:	4481                	c.li	x9,0
    257a:	fe2ff06f          	jal	x0,1d5c <_vfprintf_r+0x100c>
    257e:	01d0                	c.addi4spn	x12,x2,196
    2580:	45a2                	c.lwsp	x11,8(x2)
    2582:	4512                	c.lwsp	x10,4(x2)
    2584:	ce1a                	c.swsp	x6,28(x2)
    2586:	3e1030ef          	jal	x1,6166 <__sprint_r>
    258a:	c2051263          	bne	x10,x0,19ae <_vfprintf_r+0xc5e>
    258e:	55ba                	c.lwsp	x11,172(x2)
    2590:	463e                	c.lwsp	x12,204(x2)
    2592:	8452                	c.mv	x8,x20
    2594:	4372                	c.lwsp	x6,28(x2)
    2596:	b451                	c.j	201a <_vfprintf_r+0x12ca>
    2598:	0a714783          	lbu	x15,167(x2)
    259c:	4d01                	c.li	x26,0
    259e:	4d81                	c.li	x27,0
    25a0:	19010a93          	addi	x21,x2,400
    25a4:	f65fe06f          	jal	x0,1508 <_vfprintf_r+0x7b8>
    25a8:	01d0                	c.addi4spn	x12,x2,196
    25aa:	45a2                	c.lwsp	x11,8(x2)
    25ac:	4512                	c.lwsp	x10,4(x2)
    25ae:	d81a                	c.swsp	x6,48(x2)
    25b0:	3b7030ef          	jal	x1,6166 <__sprint_r>
    25b4:	be051d63          	bne	x10,x0,19ae <_vfprintf_r+0xc5e>
    25b8:	463e                	c.lwsp	x12,204(x2)
    25ba:	8452                	c.mv	x8,x20
    25bc:	5342                	c.lwsp	x6,48(x2)
    25be:	c8cff06f          	jal	x0,1a4a <_vfprintf_r+0xcfa>
    25c2:	004bf713          	andi	x14,x23,4
    25c6:	463e                	c.lwsp	x12,204(x2)
    25c8:	452e                	c.lwsp	x10,200(x2)
    25ca:	ce3a                	c.swsp	x14,28(x2)
    25cc:	ca3e                	c.swsp	x15,20(x2)
    25ce:	85b2                	c.mv	x11,x12
    25d0:	86aa                	c.mv	x13,x10
    25d2:	8bc2                	c.mv	x23,x16
    25d4:	90070fe3          	beq	x14,x0,1ef2 <_vfprintf_r+0x11a2>
    25d8:	4d81                	c.li	x27,0
    25da:	d002                	c.swsp	x0,32(x2)
    25dc:	ce02                	c.swsp	x0,28(x2)
    25de:	4b01                	c.li	x22,0
    25e0:	c802                	c.swsp	x0,16(x2)
    25e2:	4d09                	c.li	x26,2
    25e4:	19010a93          	addi	x21,x2,400
    25e8:	07800893          	addi	x17,x0,120
    25ec:	4c91                	c.li	x25,4
    25ee:	921fe06f          	jal	x0,f0e <_vfprintf_r+0x1be>
    25f2:	8d3e                	c.mv	x26,x15
    25f4:	b8a1                	c.j	1e4c <_vfprintf_r+0x10fc>
    25f6:	9aba                	c.add	x21,x14
    25f8:	419a8ab3          	sub	x21,x21,x25
    25fc:	409704b3          	sub	x9,x14,x9
    2600:	cd54d463          	bge	x9,x21,1ac8 <_vfprintf_r+0xd78>
    2604:	8aa6                	c.mv	x21,x9
    2606:	cc2ff06f          	jal	x0,1ac8 <_vfprintf_r+0xd78>
    260a:	8452                	c.mv	x8,x20
    260c:	923fe06f          	jal	x0,f2e <_vfprintf_r+0x1de>
    2610:	0ff77713          	andi	x14,x14,255
    2614:	4681                	c.li	x13,0
    2616:	f98ff06f          	jal	x0,1dae <_vfprintf_r+0x105e>
    261a:	0ff77d13          	andi	x26,x14,255
    261e:	4d81                	c.li	x27,0
    2620:	e804d963          	bge	x9,x0,1cb2 <_vfprintf_r+0xf62>
    2624:	806ff06f          	jal	x0,162a <_vfprintf_r+0x8da>
    2628:	ca36                	c.swsp	x13,20(x2)
    262a:	875e                	c.mv	x14,x23
    262c:	4601                	c.li	x12,0
    262e:	f2ffe06f          	jal	x0,155c <_vfprintf_r+0x80c>
    2632:	41fd5d93          	srai	x27,x26,0x1f
    2636:	ca36                	c.swsp	x13,20(x2)
    2638:	876e                	c.mv	x14,x27
    263a:	e41fe06f          	jal	x0,147a <_vfprintf_r+0x72a>
    263e:	4d05                	c.li	x26,1
    2640:	b221                	c.j	1f48 <_vfprintf_r+0x11f8>
    2642:	47d2                	c.lwsp	x15,20(x2)
    2644:	439c                	c.lw	x15,0(x15)
    2646:	46b2                	c.lwsp	x13,12(x2)
    2648:	00d79023          	sh	x13,0(x15)
    264c:	ca3a                	c.swsp	x14,20(x2)
    264e:	950ff06f          	jal	x0,179e <_vfprintf_r+0xa4e>
    2652:	04700713          	addi	x14,x0,71
    2656:	0a714783          	lbu	x15,167(x2)
    265a:	0000ba97          	auipc	x21,0xb
    265e:	a1ea8a93          	addi	x21,x21,-1506 # d078 <__clzsi2+0xd8>
    2662:	01175663          	bge	x14,x17,266e <_vfprintf_r+0x191e>
    2666:	0000ba97          	auipc	x21,0xb
    266a:	a16a8a93          	addi	x21,x21,-1514 # d07c <__clzsi2+0xdc>
    266e:	08079ae3          	bne	x15,x0,2f02 <_vfprintf_r+0x21b2>
    2672:	4d8d                	c.li	x27,3
    2674:	8d6e                	c.mv	x26,x27
    2676:	4481                	c.li	x9,0
    2678:	d002                	c.swsp	x0,32(x2)
    267a:	ce02                	c.swsp	x0,28(x2)
    267c:	c802                	c.swsp	x0,16(x2)
    267e:	85dfe06f          	jal	x0,eda <_vfprintf_r+0x18a>
    2682:	01d0                	c.addi4spn	x12,x2,196
    2684:	45a2                	c.lwsp	x11,8(x2)
    2686:	4512                	c.lwsp	x10,4(x2)
    2688:	ce1a                	c.swsp	x6,28(x2)
    268a:	2dd030ef          	jal	x1,6166 <__sprint_r>
    268e:	b2051063          	bne	x10,x0,19ae <_vfprintf_r+0xc5e>
    2692:	55ba                	c.lwsp	x11,172(x2)
    2694:	463e                	c.lwsp	x12,204(x2)
    2696:	46ae                	c.lwsp	x13,200(x2)
    2698:	8452                	c.mv	x8,x20
    269a:	4372                	c.lwsp	x6,28(x2)
    269c:	bcf5                	c.j	2198 <_vfprintf_r+0x1448>
    269e:	05800793          	addi	x15,x0,88
    26a2:	03000713          	addi	x14,x0,48
    26a6:	0af104a3          	sb	x15,169(x2)
    26aa:	0ae10423          	sb	x14,168(x2)
    26ae:	06300793          	addi	x15,x0,99
    26b2:	c802                	c.swsp	x0,16(x2)
    26b4:	002beb93          	ori	x23,x23,2
    26b8:	12c10a93          	addi	x21,x2,300
    26bc:	0097c463          	blt	x15,x9,26c4 <_vfprintf_r+0x1974>
    26c0:	9e9fe06f          	jal	x0,10a8 <_vfprintf_r+0x358>
    26c4:	00148593          	addi	x11,x9,1
    26c8:	4512                	c.lwsp	x10,4(x2)
    26ca:	cc46                	c.swsp	x17,24(x2)
    26cc:	c81a                	c.swsp	x6,16(x2)
    26ce:	68f000ef          	jal	x1,355c <_malloc_r>
    26d2:	8aaa                	c.mv	x21,x10
    26d4:	4342                	c.lwsp	x6,16(x2)
    26d6:	48e2                	c.lwsp	x17,24(x2)
    26d8:	040506e3          	beq	x10,x0,2f24 <_vfprintf_r+0x21d4>
    26dc:	c82a                	c.swsp	x10,16(x2)
    26de:	9cbfe06f          	jal	x0,10a8 <_vfprintf_r+0x358>
    26e2:	00148793          	addi	x15,x9,1
    26e6:	cc3e                	c.swsp	x15,24(x2)
    26e8:	4609                	c.li	x12,2
    26ea:	4b62                	c.lwsp	x22,24(x2)
    26ec:	09010d93          	addi	x27,x2,144
    26f0:	1178                	c.addi4spn	x14,x2,172
    26f2:	86da                	c.mv	x13,x22
    26f4:	85ee                	c.mv	x11,x27
    26f6:	0bc10813          	addi	x16,x2,188
    26fa:	191c                	c.addi4spn	x15,x2,176
    26fc:	4512                	c.lwsp	x10,4(x2)
    26fe:	c8c6                	c.swsp	x17,80(x2)
    2700:	c69a                	c.swsp	x6,76(x2)
    2702:	c91e                	c.swsp	x7,144(x2)
    2704:	c49e                	c.swsp	x7,72(x2)
    2706:	cb16                	c.swsp	x5,148(x2)
    2708:	c296                	c.swsp	x5,68(x2)
    270a:	cd7e                	c.swsp	x31,152(x2)
    270c:	d07e                	c.swsp	x31,32(x2)
    270e:	cf7a                	c.swsp	x30,156(x2)
    2710:	ce7a                	c.swsp	x30,28(x2)
    2712:	1b9000ef          	jal	x1,30ca <_ldtoa_r>
    2716:	48c6                	c.lwsp	x17,80(x2)
    2718:	fdf8f713          	andi	x14,x17,-33
    271c:	04600693          	addi	x13,x0,70
    2720:	8aaa                	c.mv	x21,x10
    2722:	01650d33          	add	x26,x10,x22
    2726:	4f72                	c.lwsp	x30,28(x2)
    2728:	5f82                	c.lwsp	x31,32(x2)
    272a:	4296                	c.lwsp	x5,68(x2)
    272c:	43a6                	c.lwsp	x7,72(x2)
    272e:	4336                	c.lwsp	x6,76(x2)
    2730:	46d70363          	beq	x14,x13,2b96 <_vfprintf_r+0x1e46>
    2734:	856e                	c.mv	x10,x27
    2736:	010c                	c.addi4spn	x11,x2,128
    2738:	d046                	c.swsp	x17,32(x2)
    273a:	ce1a                	c.swsp	x6,28(x2)
    273c:	c91e                	c.swsp	x7,144(x2)
    273e:	cb16                	c.swsp	x5,148(x2)
    2740:	cd7e                	c.swsp	x31,152(x2)
    2742:	cf7a                	c.swsp	x30,156(x2)
    2744:	c102                	c.swsp	x0,128(x2)
    2746:	c302                	c.swsp	x0,132(x2)
    2748:	c502                	c.swsp	x0,136(x2)
    274a:	c702                	c.swsp	x0,140(x2)
    274c:	3f6080ef          	jal	x1,ab42 <__eqtf2>
    2750:	4372                	c.lwsp	x6,28(x2)
    2752:	5882                	c.lwsp	x17,32(x2)
    2754:	72050763          	beq	x10,x0,2e82 <_vfprintf_r+0x2132>
    2758:	55fa                	c.lwsp	x11,188(x2)
    275a:	04500713          	addi	x14,x0,69
    275e:	71a5ff63          	bgeu	x11,x26,2e7c <_vfprintf_r+0x212c>
    2762:	03000613          	addi	x12,x0,48
    2766:	00158793          	addi	x15,x11,1
    276a:	df3e                	c.swsp	x15,188(x2)
    276c:	00c58023          	sb	x12,0(x11)
    2770:	55fa                	c.lwsp	x11,188(x2)
    2772:	ffa5eae3          	bltu	x11,x26,2766 <_vfprintf_r+0x1a16>
    2776:	415586b3          	sub	x13,x11,x21
    277a:	04700793          	addi	x15,x0,71
    277e:	cc36                	c.swsp	x13,24(x2)
    2780:	5b3a                	c.lwsp	x22,172(x2)
    2782:	3cf70663          	beq	x14,x15,2b4e <_vfprintf_r+0x1dfe>
    2786:	04600793          	addi	x15,x0,70
    278a:	44f70e63          	beq	x14,x15,2be6 <_vfprintf_r+0x1e96>
    278e:	fffb0793          	addi	x15,x22,-1
    2792:	0b110a23          	sb	x17,180(x2)
    2796:	d73e                	c.swsp	x15,172(x2)
    2798:	4e07c163          	blt	x15,x0,2c7a <_vfprintf_r+0x1f2a>
    279c:	02b00713          	addi	x14,x0,43
    27a0:	0ae10aa3          	sb	x14,181(x2)
    27a4:	4725                	c.li	x14,9
    27a6:	26f74963          	blt	x14,x15,2a18 <_vfprintf_r+0x1cc8>
    27aa:	03000713          	addi	x14,x0,48
    27ae:	0ae10b23          	sb	x14,182(x2)
    27b2:	0b710713          	addi	x14,x2,183
    27b6:	0b14                	c.addi4spn	x13,x2,400
    27b8:	03078793          	addi	x15,x15,48
    27bc:	40d706b3          	sub	x13,x14,x13
    27c0:	00f70023          	sb	x15,0(x14)
    27c4:	0dd68793          	addi	x15,x13,221
    27c8:	da3e                	c.swsp	x15,52(x2)
    27ca:	4762                	c.lwsp	x14,24(x2)
    27cc:	56d2                	c.lwsp	x13,52(x2)
    27ce:	4785                	c.li	x15,1
    27d0:	00d70db3          	add	x27,x14,x13
    27d4:	5ce7dd63          	bge	x15,x14,2dae <_vfprintf_r+0x205e>
    27d8:	5792                	c.lwsp	x15,36(x2)
    27da:	9dbe                	c.add	x27,x15
    27dc:	fffdc713          	xori	x14,x27,-1
    27e0:	bffbfe13          	andi	x28,x23,-1025
    27e4:	877d                	c.srai	x14,0x1f
    27e6:	100e6b93          	ori	x23,x28,256
    27ea:	00edfd33          	and	x26,x27,x14
    27ee:	d002                	c.swsp	x0,32(x2)
    27f0:	ce02                	c.swsp	x0,28(x2)
    27f2:	4b01                	c.li	x22,0
    27f4:	bb85                	c.j	2564 <_vfprintf_r+0x1814>
    27f6:	09010d93          	addi	x27,x2,144
    27fa:	08010c93          	addi	x25,x2,128
    27fe:	856e                	c.mv	x10,x27
    2800:	85e6                	c.mv	x11,x25
    2802:	1170                	c.addi4spn	x12,x2,172
    2804:	c2c6                	c.swsp	x17,68(x2)
    2806:	de1a                	c.swsp	x6,60(x2)
    2808:	c11e                	c.swsp	x7,128(x2)
    280a:	c316                	c.swsp	x5,132(x2)
    280c:	c57e                	c.swsp	x31,136(x2)
    280e:	c77a                	c.swsp	x30,140(x2)
    2810:	7e4030ef          	jal	x1,5ff4 <frexpl>
    2814:	0000b797          	auipc	x15,0xb
    2818:	e2c78793          	addi	x15,x15,-468 # d640 <zeroes.0+0x1c>
    281c:	4390                	c.lw	x12,0(x15)
    281e:	456a                	c.lwsp	x10,152(x2)
    2820:	43d4                	c.lw	x13,4(x15)
    2822:	4798                	c.lw	x14,8(x15)
    2824:	4f4a                	c.lwsp	x30,144(x2)
    2826:	485a                	c.lwsp	x16,148(x2)
    2828:	4ffa                	c.lwsp	x31,156(x2)
    282a:	47dc                	c.lw	x15,12(x15)
    282c:	c52a                	c.swsp	x10,136(x2)
    282e:	d8b2                	c.swsp	x12,112(x2)
    2830:	85e6                	c.mv	x11,x25
    2832:	1890                	c.addi4spn	x12,x2,112
    2834:	856e                	c.mv	x10,x27
    2836:	c17a                	c.swsp	x30,128(x2)
    2838:	c342                	c.swsp	x16,132(x2)
    283a:	c77e                	c.swsp	x31,140(x2)
    283c:	dab6                	c.swsp	x13,116(x2)
    283e:	dcba                	c.swsp	x14,120(x2)
    2840:	debe                	c.swsp	x15,124(x2)
    2842:	5e0080ef          	jal	x1,ae22 <__multf3>
    2846:	4f4a                	c.lwsp	x30,144(x2)
    2848:	485a                	c.lwsp	x16,148(x2)
    284a:	466a                	c.lwsp	x12,152(x2)
    284c:	46fa                	c.lwsp	x13,156(x2)
    284e:	85e6                	c.mv	x11,x25
    2850:	856e                	c.mv	x10,x27
    2852:	da7a                	c.swsp	x30,52(x2)
    2854:	d042                	c.swsp	x16,32(x2)
    2856:	ce32                	c.swsp	x12,28(x2)
    2858:	cc36                	c.swsp	x13,24(x2)
    285a:	c102                	c.swsp	x0,128(x2)
    285c:	c302                	c.swsp	x0,132(x2)
    285e:	c502                	c.swsp	x0,136(x2)
    2860:	c702                	c.swsp	x0,140(x2)
    2862:	2e0080ef          	jal	x1,ab42 <__eqtf2>
    2866:	46e2                	c.lwsp	x13,24(x2)
    2868:	4672                	c.lwsp	x12,28(x2)
    286a:	5802                	c.lwsp	x16,32(x2)
    286c:	5f52                	c.lwsp	x30,52(x2)
    286e:	5372                	c.lwsp	x6,60(x2)
    2870:	4896                	c.lwsp	x17,68(x2)
    2872:	e119                	c.bnez	x10,2878 <_vfprintf_r+0x1b28>
    2874:	4785                	c.li	x15,1
    2876:	d73e                	c.swsp	x15,172(x2)
    2878:	0000b717          	auipc	x14,0xb
    287c:	81c70713          	addi	x14,x14,-2020 # d094 <__clzsi2+0xf4>
    2880:	06100793          	addi	x15,x0,97
    2884:	cc3a                	c.swsp	x14,24(x2)
    2886:	00f89763          	bne	x17,x15,2894 <_vfprintf_r+0x1b44>
    288a:	0000a797          	auipc	x15,0xa
    288e:	7f678793          	addi	x15,x15,2038 # d080 <__clzsi2+0xe0>
    2892:	cc3e                	c.swsp	x15,24(x2)
    2894:	0000b797          	auipc	x15,0xb
    2898:	dbc78793          	addi	x15,x15,-580 # d650 <zeroes.0+0x2c>
    289c:	4398                	c.lw	x14,0(x15)
    289e:	ce3a                	c.swsp	x14,28(x2)
    28a0:	43d8                	c.lw	x14,4(x15)
    28a2:	d03a                	c.swsp	x14,32(x2)
    28a4:	4798                	c.lw	x14,8(x15)
    28a6:	47dc                	c.lw	x15,12(x15)
    28a8:	c2e2                	c.swsp	x24,68(x2)
    28aa:	c6a2                	c.swsp	x8,76(x2)
    28ac:	cade                	c.swsp	x23,84(x2)
    28ae:	8456                	c.mv	x8,x21
    28b0:	ccd6                	c.swsp	x21,88(x2)
    28b2:	14fd                	c.addi	x9,-1
    28b4:	da3a                	c.swsp	x14,52(x2)
    28b6:	de3e                	c.swsp	x15,60(x2)
    28b8:	c49a                	c.swsp	x6,72(x2)
    28ba:	c8c6                	c.swsp	x17,80(x2)
    28bc:	8afa                	c.mv	x21,x30
    28be:	8b42                	c.mv	x22,x16
    28c0:	8bb2                	c.mv	x23,x12
    28c2:	8c36                	c.mv	x24,x13
    28c4:	a015                	c.j	28e8 <_vfprintf_r+0x1b98>
    28c6:	85e6                	c.mv	x11,x25
    28c8:	856e                	c.mv	x10,x27
    28ca:	c956                	c.swsp	x21,144(x2)
    28cc:	cb5a                	c.swsp	x22,148(x2)
    28ce:	cd5e                	c.swsp	x23,152(x2)
    28d0:	cf62                	c.swsp	x24,156(x2)
    28d2:	c102                	c.swsp	x0,128(x2)
    28d4:	c302                	c.swsp	x0,132(x2)
    28d6:	c502                	c.swsp	x0,136(x2)
    28d8:	c702                	c.swsp	x0,140(x2)
    28da:	00f48d33          	add	x26,x9,x15
    28de:	264080ef          	jal	x1,ab42 <__eqtf2>
    28e2:	5a050263          	beq	x10,x0,2e86 <_vfprintf_r+0x2136>
    28e6:	84ea                	c.mv	x9,x26
    28e8:	47f2                	c.lwsp	x15,28(x2)
    28ea:	d8be                	c.swsp	x15,112(x2)
    28ec:	5782                	c.lwsp	x15,32(x2)
    28ee:	dabe                	c.swsp	x15,116(x2)
    28f0:	57d2                	c.lwsp	x15,52(x2)
    28f2:	1890                	c.addi4spn	x12,x2,112
    28f4:	85e6                	c.mv	x11,x25
    28f6:	dcbe                	c.swsp	x15,120(x2)
    28f8:	856e                	c.mv	x10,x27
    28fa:	57f2                	c.lwsp	x15,60(x2)
    28fc:	debe                	c.swsp	x15,124(x2)
    28fe:	c156                	c.swsp	x21,128(x2)
    2900:	c35a                	c.swsp	x22,132(x2)
    2902:	c55e                	c.swsp	x23,136(x2)
    2904:	c762                	c.swsp	x24,140(x2)
    2906:	51c080ef          	jal	x1,ae22 <__multf3>
    290a:	856e                	c.mv	x10,x27
    290c:	38c0a0ef          	jal	x1,cc98 <__fixtfsi>
    2910:	8d2a                	c.mv	x26,x10
    2912:	85ea                	c.mv	x11,x26
    2914:	856e                	c.mv	x10,x27
    2916:	4c4a                	c.lwsp	x24,144(x2)
    2918:	4bda                	c.lwsp	x23,148(x2)
    291a:	4b6a                	c.lwsp	x22,152(x2)
    291c:	4afa                	c.lwsp	x21,156(x2)
    291e:	41c0a0ef          	jal	x1,cd3a <__floatsitf>
    2922:	454a                	c.lwsp	x10,144(x2)
    2924:	45da                	c.lwsp	x11,148(x2)
    2926:	466a                	c.lwsp	x12,152(x2)
    2928:	46fa                	c.lwsp	x13,156(x2)
    292a:	d0aa                	c.swsp	x10,96(x2)
    292c:	d2ae                	c.swsp	x11,100(x2)
    292e:	d4b2                	c.swsp	x12,104(x2)
    2930:	188c                	c.addi4spn	x11,x2,112
    2932:	1090                	c.addi4spn	x12,x2,96
    2934:	8566                	c.mv	x10,x25
    2936:	d8e2                	c.swsp	x24,112(x2)
    2938:	dade                	c.swsp	x23,116(x2)
    293a:	dcda                	c.swsp	x22,120(x2)
    293c:	ded6                	c.swsp	x21,124(x2)
    293e:	d6b6                	c.swsp	x13,108(x2)
    2940:	18c090ef          	jal	x1,bacc <__subtf3>
    2944:	47e2                	c.lwsp	x15,24(x2)
    2946:	01a786b3          	add	x13,x15,x26
    294a:	82a2                	c.mv	x5,x8
    294c:	0006c583          	lbu	x11,0(x13)
    2950:	0405                	c.addi	x8,1
    2952:	4a8a                	c.lwsp	x21,128(x2)
    2954:	4b1a                	c.lwsp	x22,132(x2)
    2956:	4baa                	c.lwsp	x23,136(x2)
    2958:	4c3a                	c.lwsp	x24,140(x2)
    295a:	57fd                	c.li	x15,-1
    295c:	feb40fa3          	sb	x11,-1(x8)
    2960:	f6f493e3          	bne	x9,x15,28c6 <_vfprintf_r+0x1b76>
    2964:	0000b517          	auipc	x10,0xb
    2968:	cfc50513          	addi	x10,x10,-772 # d660 <zeroes.0+0x3c>
    296c:	4326                	c.lwsp	x6,72(x2)
    296e:	48c6                	c.lwsp	x17,80(x2)
    2970:	8f56                	c.mv	x30,x21
    2972:	865e                	c.mv	x12,x23
    2974:	86e2                	c.mv	x13,x24
    2976:	00452f83          	lw	x31,4(x10)
    297a:	00852383          	lw	x7,8(x10)
    297e:	455c                	c.lw	x15,12(x10)
    2980:	4104                	c.lw	x9,0(x10)
    2982:	da16                	c.swsp	x5,52(x2)
    2984:	d01a                	c.swsp	x6,32(x2)
    2986:	ce46                	c.swsp	x17,28(x2)
    2988:	ceea                	c.swsp	x26,92(x2)
    298a:	4ae6                	c.lwsp	x21,88(x2)
    298c:	4bd6                	c.lwsp	x23,84(x2)
    298e:	4c16                	c.lwsp	x24,68(x2)
    2990:	8d22                	c.mv	x26,x8
    2992:	c97a                	c.swsp	x30,144(x2)
    2994:	4436                	c.lwsp	x8,76(x2)
    2996:	ccfa                	c.swsp	x30,88(x2)
    2998:	cb5a                	c.swsp	x22,148(x2)
    299a:	cada                	c.swsp	x22,84(x2)
    299c:	cd32                	c.swsp	x12,152(x2)
    299e:	c8b2                	c.swsp	x12,80(x2)
    29a0:	cf36                	c.swsp	x13,156(x2)
    29a2:	c6b6                	c.swsp	x13,76(x2)
    29a4:	c126                	c.swsp	x9,128(x2)
    29a6:	c37e                	c.swsp	x31,132(x2)
    29a8:	c4fe                	c.swsp	x31,72(x2)
    29aa:	c51e                	c.swsp	x7,136(x2)
    29ac:	c29e                	c.swsp	x7,68(x2)
    29ae:	c73e                	c.swsp	x15,140(x2)
    29b0:	de3e                	c.swsp	x15,60(x2)
    29b2:	85e6                	c.mv	x11,x25
    29b4:	856e                	c.mv	x10,x27
    29b6:	236080ef          	jal	x1,abec <__getf2>
    29ba:	48f2                	c.lwsp	x17,28(x2)
    29bc:	5302                	c.lwsp	x6,32(x2)
    29be:	52d2                	c.lwsp	x5,52(x2)
    29c0:	0ca04c63          	blt	x0,x10,2a98 <_vfprintf_r+0x1d48>
    29c4:	85e6                	c.mv	x11,x25
    29c6:	856e                	c.mv	x10,x27
    29c8:	da46                	c.swsp	x17,52(x2)
    29ca:	ce16                	c.swsp	x5,28(x2)
    29cc:	176080ef          	jal	x1,ab42 <__eqtf2>
    29d0:	5302                	c.lwsp	x6,32(x2)
    29d2:	58d2                	c.lwsp	x17,52(x2)
    29d4:	e509                	c.bnez	x10,29de <_vfprintf_r+0x1c8e>
    29d6:	4776                	c.lwsp	x14,92(x2)
    29d8:	8b05                	c.andi	x14,1
    29da:	42f2                	c.lwsp	x5,28(x2)
    29dc:	ef55                	c.bnez	x14,2a98 <_vfprintf_r+0x1d48>
    29de:	86ea                	c.mv	x13,x26
    29e0:	573a                	c.lwsp	x14,172(x2)
    29e2:	415686b3          	sub	x13,x13,x21
    29e6:	fff70793          	addi	x15,x14,-1
    29ea:	cc36                	c.swsp	x13,24(x2)
    29ec:	d73e                	c.swsp	x15,172(x2)
    29ee:	06100613          	addi	x12,x0,97
    29f2:	07000693          	addi	x13,x0,112
    29f6:	00c88663          	beq	x17,x12,2a02 <_vfprintf_r+0x1cb2>
    29fa:	05000693          	addi	x13,x0,80
    29fe:	04100893          	addi	x17,x0,65
    2a02:	0ad10a23          	sb	x13,180(x2)
    2a06:	0c07c963          	blt	x15,x0,2ad8 <_vfprintf_r+0x1d88>
    2a0a:	02b00713          	addi	x14,x0,43
    2a0e:	0ae10aa3          	sb	x14,181(x2)
    2a12:	4725                	c.li	x14,9
    2a14:	0cf75b63          	bge	x14,x15,2aea <_vfprintf_r+0x1d9a>
    2a18:	0c310813          	addi	x16,x2,195
    2a1c:	ccccd537          	lui	x10,0xccccd
    2a20:	8642                	c.mv	x12,x16
    2a22:	ccd50513          	addi	x10,x10,-819 # cccccccd <__heap_end+0xcc8ccccd>
    2a26:	06300f13          	addi	x30,x0,99
    2a2a:	02a7b733          	mulhu	x14,x15,x10
    2a2e:	8e3e                	c.mv	x28,x15
    2a30:	86b2                	c.mv	x13,x12
    2a32:	167d                	c.addi	x12,-1
    2a34:	830d                	c.srli	x14,0x3
    2a36:	00271593          	slli	x11,x14,0x2
    2a3a:	95ba                	c.add	x11,x14
    2a3c:	0586                	c.slli	x11,0x1
    2a3e:	8f8d                	c.sub	x15,x11
    2a40:	03078793          	addi	x15,x15,48
    2a44:	fef68fa3          	sb	x15,-1(x13)
    2a48:	87ba                	c.mv	x15,x14
    2a4a:	ffcf40e3          	blt	x30,x28,2a2a <_vfprintf_r+0x1cda>
    2a4e:	03070793          	addi	x15,x14,48
    2a52:	fef60fa3          	sb	x15,-1(x12)
    2a56:	ffe68793          	addi	x15,x13,-2
    2a5a:	4707f063          	bgeu	x15,x16,2eba <_vfprintf_r+0x216a>
    2a5e:	0b610713          	addi	x14,x2,182
    2a62:	0705                	c.addi	x14,1
    2a64:	0007c603          	lbu	x12,0(x15)
    2a68:	0785                	c.addi	x15,1
    2a6a:	fec70fa3          	sb	x12,-1(x14)
    2a6e:	ff079ae3          	bne	x15,x16,2a62 <_vfprintf_r+0x1d12>
    2a72:	0b1c                	c.addi4spn	x15,x2,400
    2a74:	40d786b3          	sub	x13,x15,x13
    2a78:	f3768793          	addi	x15,x13,-201
    2a7c:	da3e                	c.swsp	x15,52(x2)
    2a7e:	b3b1                	c.j	27ca <_vfprintf_r+0x1a7a>
    2a80:	cc26                	c.swsp	x9,24(x2)
    2a82:	460d                	c.li	x12,3
    2a84:	b19d                	c.j	26ea <_vfprintf_r+0x199a>
    2a86:	c802                	c.swsp	x0,16(x2)
    2a88:	4d8d                	c.li	x27,3
    2a8a:	4481                	c.li	x9,0
    2a8c:	d002                	c.swsp	x0,32(x2)
    2a8e:	ce02                	c.swsp	x0,28(x2)
    2a90:	4b01                	c.li	x22,0
    2a92:	4d11                	c.li	x26,4
    2a94:	c46fe06f          	jal	x0,eda <_vfprintf_r+0x18a>
    2a98:	df16                	c.swsp	x5,188(x2)
    2a9a:	47e2                	c.lwsp	x15,24(x2)
    2a9c:	fffd4683          	lbu	x13,-1(x26)
    2aa0:	00f7c603          	lbu	x12,15(x15)
    2aa4:	876a                	c.mv	x14,x26
    2aa6:	00c69e63          	bne	x13,x12,2ac2 <_vfprintf_r+0x1d72>
    2aaa:	03000593          	addi	x11,x0,48
    2aae:	feb70fa3          	sb	x11,-1(x14)
    2ab2:	577a                	c.lwsp	x14,188(x2)
    2ab4:	fff70793          	addi	x15,x14,-1
    2ab8:	df3e                	c.swsp	x15,188(x2)
    2aba:	fff74683          	lbu	x13,-1(x14)
    2abe:	fec688e3          	beq	x13,x12,2aae <_vfprintf_r+0x1d5e>
    2ac2:	00168613          	addi	x12,x13,1
    2ac6:	03900593          	addi	x11,x0,57
    2aca:	0ff67613          	andi	x12,x12,255
    2ace:	02b68163          	beq	x13,x11,2af0 <_vfprintf_r+0x1da0>
    2ad2:	fec70fa3          	sb	x12,-1(x14)
    2ad6:	b721                	c.j	29de <_vfprintf_r+0x1c8e>
    2ad8:	4785                	c.li	x15,1
    2ada:	02d00693          	addi	x13,x0,45
    2ade:	8f99                	c.sub	x15,x14
    2ae0:	0ad10aa3          	sb	x13,181(x2)
    2ae4:	4725                	c.li	x14,9
    2ae6:	f2f749e3          	blt	x14,x15,2a18 <_vfprintf_r+0x1cc8>
    2aea:	0b610713          	addi	x14,x2,182
    2aee:	b1e1                	c.j	27b6 <_vfprintf_r+0x1a66>
    2af0:	47e2                	c.lwsp	x15,24(x2)
    2af2:	00a7c603          	lbu	x12,10(x15)
    2af6:	fec70fa3          	sb	x12,-1(x14)
    2afa:	b5d5                	c.j	29de <_vfprintf_r+0x1c8e>
    2afc:	0a714f83          	lbu	x31,167(x2)
    2b00:	a60f9be3          	bne	x31,x0,2576 <_vfprintf_r+0x1826>
    2b04:	4481                	c.li	x9,0
    2b06:	a56ff06f          	jal	x0,1d5c <_vfprintf_r+0x100c>
    2b0a:	43c2                	c.lwsp	x7,16(x2)
    2b0c:	8cee                	c.mv	x25,x27
    2b0e:	ea5fe06f          	jal	x0,19b2 <_vfprintf_r+0xc62>
    2b12:	47a5                	c.li	x15,9
    2b14:	01c7f463          	bgeu	x15,x28,2b1c <_vfprintf_r+0x1dcc>
    2b18:	b95fe06f          	jal	x0,16ac <_vfprintf_r+0x95c>
    2b1c:	cc4ff06f          	jal	x0,1fe0 <_vfprintf_r+0x1290>
    2b20:	01d0                	c.addi4spn	x12,x2,196
    2b22:	85ee                	c.mv	x11,x27
    2b24:	4512                	c.lwsp	x10,4(x2)
    2b26:	640030ef          	jal	x1,6166 <__sprint_r>
    2b2a:	f165                	c.bnez	x10,2b0a <_vfprintf_r+0x1dba>
    2b2c:	000d4583          	lbu	x11,0(x26)
    2b30:	463e                	c.lwsp	x12,204(x2)
    2b32:	8552                	c.mv	x10,x20
    2b34:	47c1                	c.li	x15,16
    2b36:	469d                	c.li	x13,7
    2b38:	9bae                	c.add	x23,x11
    2b3a:	fdeff06f          	jal	x0,2318 <_vfprintf_r+0x15c8>
    2b3e:	415d07b3          	sub	x15,x26,x21
    2b42:	04700693          	addi	x13,x0,71
    2b46:	cc3e                	c.swsp	x15,24(x2)
    2b48:	5b3a                	c.lwsp	x22,172(x2)
    2b4a:	08d71e63          	bne	x14,x13,2be6 <_vfprintf_r+0x1e96>
    2b4e:	57f5                	c.li	x15,-3
    2b50:	10fb4f63          	blt	x22,x15,2c6e <_vfprintf_r+0x1f1e>
    2b54:	0364d263          	bge	x9,x22,2b78 <_vfprintf_r+0x1e28>
    2b58:	18f9                	c.addi	x17,-2
    2b5a:	fffb0793          	addi	x15,x22,-1
    2b5e:	0b110a23          	sb	x17,180(x2)
    2b62:	d73e                	c.swsp	x15,172(x2)
    2b64:	c207dce3          	bge	x15,x0,279c <_vfprintf_r+0x1a4c>
    2b68:	4785                	c.li	x15,1
    2b6a:	02d00713          	addi	x14,x0,45
    2b6e:	416787b3          	sub	x15,x15,x22
    2b72:	0ae10aa3          	sb	x14,181(x2)
    2b76:	b915                	c.j	27aa <_vfprintf_r+0x1a5a>
    2b78:	47e2                	c.lwsp	x15,24(x2)
    2b7a:	12fb4d63          	blt	x22,x15,2cb4 <_vfprintf_r+0x1f64>
    2b7e:	001bf793          	andi	x15,x23,1
    2b82:	8dda                	c.mv	x27,x22
    2b84:	9c0780e3          	beq	x15,x0,2544 <_vfprintf_r+0x17f4>
    2b88:	5792                	c.lwsp	x15,36(x2)
    2b8a:	00fb0db3          	add	x27,x22,x15
    2b8e:	ba5d                	c.j	2544 <_vfprintf_r+0x17f4>
    2b90:	07800793          	addi	x15,x0,120
    2b94:	b639                	c.j	26a2 <_vfprintf_r+0x1952>
    2b96:	000ac603          	lbu	x12,0(x21)
    2b9a:	03000693          	addi	x13,x0,48
    2b9e:	20d60d63          	beq	x12,x13,2db8 <_vfprintf_r+0x2068>
    2ba2:	56ba                	c.lwsp	x13,172(x2)
    2ba4:	08010c93          	addi	x25,x2,128
    2ba8:	9d36                	c.add	x26,x13
    2baa:	85e6                	c.mv	x11,x25
    2bac:	856e                	c.mv	x10,x27
    2bae:	d03a                	c.swsp	x14,32(x2)
    2bb0:	ce46                	c.swsp	x17,28(x2)
    2bb2:	cc1a                	c.swsp	x6,24(x2)
    2bb4:	c91e                	c.swsp	x7,144(x2)
    2bb6:	cb16                	c.swsp	x5,148(x2)
    2bb8:	cd7e                	c.swsp	x31,152(x2)
    2bba:	cf7a                	c.swsp	x30,156(x2)
    2bbc:	c102                	c.swsp	x0,128(x2)
    2bbe:	c302                	c.swsp	x0,132(x2)
    2bc0:	c502                	c.swsp	x0,136(x2)
    2bc2:	c702                	c.swsp	x0,140(x2)
    2bc4:	77f070ef          	jal	x1,ab42 <__eqtf2>
    2bc8:	4362                	c.lwsp	x6,24(x2)
    2bca:	48f2                	c.lwsp	x17,28(x2)
    2bcc:	5702                	c.lwsp	x14,32(x2)
    2bce:	d925                	c.beqz	x10,2b3e <_vfprintf_r+0x1dee>
    2bd0:	55fa                	c.lwsp	x11,188(x2)
    2bd2:	b9a5e8e3          	bltu	x11,x26,2762 <_vfprintf_r+0x1a12>
    2bd6:	415586b3          	sub	x13,x11,x21
    2bda:	04700793          	addi	x15,x0,71
    2bde:	cc36                	c.swsp	x13,24(x2)
    2be0:	5b3a                	c.lwsp	x22,172(x2)
    2be2:	f6f706e3          	beq	x14,x15,2b4e <_vfprintf_r+0x1dfe>
    2be6:	001bf793          	andi	x15,x23,1
    2bea:	8fc5                	c.or	x15,x9
    2bec:	2d605a63          	bge	x0,x22,2ec0 <_vfprintf_r+0x2170>
    2bf0:	26079e63          	bne	x15,x0,2e6c <_vfprintf_r+0x211c>
    2bf4:	8dda                	c.mv	x27,x22
    2bf6:	06600893          	addi	x17,x0,102
    2bfa:	400bfe13          	andi	x28,x23,1024
    2bfe:	200e1a63          	bne	x28,x0,2e12 <_vfprintf_r+0x20c2>
    2c02:	fffdc713          	xori	x14,x27,-1
    2c06:	877d                	c.srai	x14,0x1f
    2c08:	00edfd33          	and	x26,x27,x14
    2c0c:	ba89                	c.j	255e <_vfprintf_r+0x180e>
    2c0e:	01d0                	c.addi4spn	x12,x2,196
    2c10:	45a2                	c.lwsp	x11,8(x2)
    2c12:	4512                	c.lwsp	x10,4(x2)
    2c14:	ce1a                	c.swsp	x6,28(x2)
    2c16:	550030ef          	jal	x1,6166 <__sprint_r>
    2c1a:	c119                	c.beqz	x10,2c20 <_vfprintf_r+0x1ed0>
    2c1c:	d93fe06f          	jal	x0,19ae <_vfprintf_r+0xc5e>
    2c20:	54ba                	c.lwsp	x9,172(x2)
    2c22:	463e                	c.lwsp	x12,204(x2)
    2c24:	8452                	c.mv	x8,x20
    2c26:	4372                	c.lwsp	x6,28(x2)
    2c28:	e6dfe06f          	jal	x0,1a94 <_vfprintf_r+0xd44>
    2c2c:	02d00793          	addi	x15,x0,45
    2c30:	0af103a3          	sb	x15,167(x2)
    2c34:	c802                	c.swsp	x0,16(x2)
    2c36:	04700793          	addi	x15,x0,71
    2c3a:	d002                	c.swsp	x0,32(x2)
    2c3c:	ce02                	c.swsp	x0,28(x2)
    2c3e:	4d8d                	c.li	x27,3
    2c40:	4481                	c.li	x9,0
    2c42:	4b01                	c.li	x22,0
    2c44:	1517d663          	bge	x15,x17,2d90 <_vfprintf_r+0x2040>
    2c48:	0000aa97          	auipc	x21,0xa
    2c4c:	42ca8a93          	addi	x21,x21,1068 # d074 <__clzsi2+0xd4>
    2c50:	4d11                	c.li	x26,4
    2c52:	a88fe06f          	jal	x0,eda <_vfprintf_r+0x18a>
    2c56:	ca5a                	c.swsp	x22,20(x2)
    2c58:	14078363          	beq	x15,x0,2d9e <_vfprintf_r+0x204e>
    2c5c:	00148d13          	addi	x26,x9,1
    2c60:	8da6                	c.mv	x27,x9
    2c62:	d002                	c.swsp	x0,32(x2)
    2c64:	4481                	c.li	x9,0
    2c66:	ce02                	c.swsp	x0,28(x2)
    2c68:	4b01                	c.li	x22,0
    2c6a:	a70fe06f          	jal	x0,eda <_vfprintf_r+0x18a>
    2c6e:	18f9                	c.addi	x17,-2
    2c70:	fffb0793          	addi	x15,x22,-1
    2c74:	0b110a23          	sb	x17,180(x2)
    2c78:	d73e                	c.swsp	x15,172(x2)
    2c7a:	02d00713          	addi	x14,x0,45
    2c7e:	4785                	c.li	x15,1
    2c80:	0ae10aa3          	sb	x14,181(x2)
    2c84:	416787b3          	sub	x15,x15,x22
    2c88:	4725                	c.li	x14,9
    2c8a:	d8f747e3          	blt	x14,x15,2a18 <_vfprintf_r+0x1cc8>
    2c8e:	be31                	c.j	27aa <_vfprintf_r+0x1a5a>
    2c90:	01d0                	c.addi4spn	x12,x2,196
    2c92:	45a2                	c.lwsp	x11,8(x2)
    2c94:	4512                	c.lwsp	x10,4(x2)
    2c96:	ce1a                	c.swsp	x6,28(x2)
    2c98:	4ce030ef          	jal	x1,6166 <__sprint_r>
    2c9c:	c119                	c.beqz	x10,2ca2 <_vfprintf_r+0x1f52>
    2c9e:	d11fe06f          	jal	x0,19ae <_vfprintf_r+0xc5e>
    2ca2:	54ba                	c.lwsp	x9,172(x2)
    2ca4:	47e2                	c.lwsp	x15,24(x2)
    2ca6:	409784b3          	sub	x9,x15,x9
    2caa:	463e                	c.lwsp	x12,204(x2)
    2cac:	8452                	c.mv	x8,x20
    2cae:	4372                	c.lwsp	x6,28(x2)
    2cb0:	e19fe06f          	jal	x0,1ac8 <_vfprintf_r+0xd78>
    2cb4:	47e2                	c.lwsp	x15,24(x2)
    2cb6:	5712                	c.lwsp	x14,36(x2)
    2cb8:	00e78db3          	add	x27,x15,x14
    2cbc:	06700893          	addi	x17,x0,103
    2cc0:	f3604de3          	blt	x0,x22,2bfa <_vfprintf_r+0x1eaa>
    2cc4:	416d8833          	sub	x16,x27,x22
    2cc8:	00180d93          	addi	x27,x16,1
    2ccc:	fffdc713          	xori	x14,x27,-1
    2cd0:	877d                	c.srai	x14,0x1f
    2cd2:	00edfd33          	and	x26,x27,x14
    2cd6:	b061                	c.j	255e <_vfprintf_r+0x180e>
    2cd8:	00950d33          	add	x26,x10,x9
    2cdc:	04700713          	addi	x14,x0,71
    2ce0:	08010c93          	addi	x25,x2,128
    2ce4:	b5d9                	c.j	2baa <_vfprintf_r+0x1e5a>
    2ce6:	8e5e                	c.mv	x28,x23
    2ce8:	ff5fe06f          	jal	x0,1cdc <_vfprintf_r+0xf8c>
    2cec:	875e                	c.mv	x14,x23
    2cee:	fdffe06f          	jal	x0,1ccc <_vfprintf_r+0xf7c>
    2cf2:	8e5e                	c.mv	x28,x23
    2cf4:	91ffe06f          	jal	x0,1612 <_vfprintf_r+0x8c2>
    2cf8:	57c1                	c.li	x15,-16
    2cfa:	40b004b3          	sub	x9,x0,x11
    2cfe:	0000bc97          	auipc	x25,0xb
    2d02:	926c8c93          	addi	x25,x25,-1754 # d624 <zeroes.0>
    2d06:	4dc1                	c.li	x27,16
    2d08:	481d                	c.li	x16,7
    2d0a:	8b1a                	c.mv	x22,x6
    2d0c:	00f5c663          	blt	x11,x15,2d18 <_vfprintf_r+0x1fc8>
    2d10:	a82d                	c.j	2d4a <_vfprintf_r+0x1ffa>
    2d12:	14c1                	c.addi	x9,-16
    2d14:	029dda63          	bge	x27,x9,2d48 <_vfprintf_r+0x1ff8>
    2d18:	0641                	c.addi	x12,16
    2d1a:	0685                	c.addi	x13,1
    2d1c:	01942023          	sw	x25,0(x8)
    2d20:	01b42223          	sw	x27,4(x8)
    2d24:	c7b2                	c.swsp	x12,204(x2)
    2d26:	c5b6                	c.swsp	x13,200(x2)
    2d28:	0421                	c.addi	x8,8
    2d2a:	fed854e3          	bge	x16,x13,2d12 <_vfprintf_r+0x1fc2>
    2d2e:	01d0                	c.addi4spn	x12,x2,196
    2d30:	45a2                	c.lwsp	x11,8(x2)
    2d32:	4512                	c.lwsp	x10,4(x2)
    2d34:	432030ef          	jal	x1,6166 <__sprint_r>
    2d38:	c119                	c.beqz	x10,2d3e <_vfprintf_r+0x1fee>
    2d3a:	c75fe06f          	jal	x0,19ae <_vfprintf_r+0xc5e>
    2d3e:	463e                	c.lwsp	x12,204(x2)
    2d40:	46ae                	c.lwsp	x13,200(x2)
    2d42:	8452                	c.mv	x8,x20
    2d44:	481d                	c.li	x16,7
    2d46:	b7f1                	c.j	2d12 <_vfprintf_r+0x1fc2>
    2d48:	835a                	c.mv	x6,x22
    2d4a:	9626                	c.add	x12,x9
    2d4c:	0685                	c.addi	x13,1
    2d4e:	c7b2                	c.swsp	x12,204(x2)
    2d50:	c5b6                	c.swsp	x13,200(x2)
    2d52:	01942023          	sw	x25,0(x8)
    2d56:	c044                	c.sw	x9,4(x8)
    2d58:	479d                	c.li	x15,7
    2d5a:	aed7d563          	bge	x15,x13,2044 <_vfprintf_r+0x12f4>
    2d5e:	01d0                	c.addi4spn	x12,x2,196
    2d60:	45a2                	c.lwsp	x11,8(x2)
    2d62:	4512                	c.lwsp	x10,4(x2)
    2d64:	ce1a                	c.swsp	x6,28(x2)
    2d66:	400030ef          	jal	x1,6166 <__sprint_r>
    2d6a:	c119                	c.beqz	x10,2d70 <_vfprintf_r+0x2020>
    2d6c:	c43fe06f          	jal	x0,19ae <_vfprintf_r+0xc5e>
    2d70:	463e                	c.lwsp	x12,204(x2)
    2d72:	46ae                	c.lwsp	x13,200(x2)
    2d74:	8452                	c.mv	x8,x20
    2d76:	4372                	c.lwsp	x6,28(x2)
    2d78:	c24ff06f          	jal	x0,219c <_vfprintf_r+0x144c>
    2d7c:	c099                	c.beqz	x9,2d82 <_vfprintf_r+0x2032>
    2d7e:	b2afe06f          	jal	x0,10a8 <_vfprintf_r+0x358>
    2d82:	84be                	c.mv	x9,x15
    2d84:	b24fe06f          	jal	x0,10a8 <_vfprintf_r+0x358>
    2d88:	c802                	c.swsp	x0,16(x2)
    2d8a:	4499                	c.li	x9,6
    2d8c:	b1cfe06f          	jal	x0,10a8 <_vfprintf_r+0x358>
    2d90:	0000aa97          	auipc	x21,0xa
    2d94:	2e0a8a93          	addi	x21,x21,736 # d070 <__clzsi2+0xd0>
    2d98:	4d11                	c.li	x26,4
    2d9a:	940fe06f          	jal	x0,eda <_vfprintf_r+0x18a>
    2d9e:	8da6                	c.mv	x27,x9
    2da0:	8d26                	c.mv	x26,x9
    2da2:	d002                	c.swsp	x0,32(x2)
    2da4:	4481                	c.li	x9,0
    2da6:	ce02                	c.swsp	x0,28(x2)
    2da8:	4b01                	c.li	x22,0
    2daa:	930fe06f          	jal	x0,eda <_vfprintf_r+0x18a>
    2dae:	00fbf7b3          	and	x15,x23,x15
    2db2:	a20785e3          	beq	x15,x0,27dc <_vfprintf_r+0x1a8c>
    2db6:	b40d                	c.j	27d8 <_vfprintf_r+0x1a88>
    2db8:	08010c93          	addi	x25,x2,128
    2dbc:	85e6                	c.mv	x11,x25
    2dbe:	856e                	c.mv	x10,x27
    2dc0:	caba                	c.swsp	x14,84(x2)
    2dc2:	c8c6                	c.swsp	x17,80(x2)
    2dc4:	c69a                	c.swsp	x6,76(x2)
    2dc6:	c91e                	c.swsp	x7,144(x2)
    2dc8:	c49e                	c.swsp	x7,72(x2)
    2dca:	cb16                	c.swsp	x5,148(x2)
    2dcc:	c296                	c.swsp	x5,68(x2)
    2dce:	cd7e                	c.swsp	x31,152(x2)
    2dd0:	d07e                	c.swsp	x31,32(x2)
    2dd2:	cf7a                	c.swsp	x30,156(x2)
    2dd4:	ce7a                	c.swsp	x30,28(x2)
    2dd6:	c102                	c.swsp	x0,128(x2)
    2dd8:	c302                	c.swsp	x0,132(x2)
    2dda:	c502                	c.swsp	x0,136(x2)
    2ddc:	c702                	c.swsp	x0,140(x2)
    2dde:	565070ef          	jal	x1,ab42 <__eqtf2>
    2de2:	4f72                	c.lwsp	x30,28(x2)
    2de4:	5f82                	c.lwsp	x31,32(x2)
    2de6:	4296                	c.lwsp	x5,68(x2)
    2de8:	43a6                	c.lwsp	x7,72(x2)
    2dea:	4336                	c.lwsp	x6,76(x2)
    2dec:	48c6                	c.lwsp	x17,80(x2)
    2dee:	4756                	c.lwsp	x14,84(x2)
    2df0:	e161                	c.bnez	x10,2eb0 <_vfprintf_r+0x2160>
    2df2:	5b3a                	c.lwsp	x22,172(x2)
    2df4:	016d07b3          	add	x15,x26,x22
    2df8:	415787b3          	sub	x15,x15,x21
    2dfc:	cc3e                	c.swsp	x15,24(x2)
    2dfe:	b3e5                	c.j	2be6 <_vfprintf_r+0x1e96>
    2e00:	0000aa97          	auipc	x21,0xa
    2e04:	278a8a93          	addi	x21,x21,632 # d078 <__clzsi2+0xd8>
    2e08:	4d11                	c.li	x26,4
    2e0a:	8d0fe06f          	jal	x0,eda <_vfprintf_r+0x18a>
    2e0e:	06700893          	addi	x17,x0,103
    2e12:	56a2                	c.lwsp	x13,40(x2)
    2e14:	0006c783          	lbu	x15,0(x13)
    2e18:	0ff00713          	addi	x14,x0,255
    2e1c:	10e78163          	beq	x15,x14,2f1e <_vfprintf_r+0x21ce>
    2e20:	4581                	c.li	x11,0
    2e22:	4601                	c.li	x12,0
    2e24:	0167db63          	bge	x15,x22,2e3a <_vfprintf_r+0x20ea>
    2e28:	40fb0b33          	sub	x22,x22,x15
    2e2c:	0016c783          	lbu	x15,1(x13)
    2e30:	c79d                	c.beqz	x15,2e5e <_vfprintf_r+0x210e>
    2e32:	0605                	c.addi	x12,1
    2e34:	0685                	c.addi	x13,1
    2e36:	fee797e3          	bne	x15,x14,2e24 <_vfprintf_r+0x20d4>
    2e3a:	d436                	c.swsp	x13,40(x2)
    2e3c:	ce32                	c.swsp	x12,28(x2)
    2e3e:	d02e                	c.swsp	x11,32(x2)
    2e40:	4772                	c.lwsp	x14,28(x2)
    2e42:	5782                	c.lwsp	x15,32(x2)
    2e44:	97ba                	c.add	x15,x14
    2e46:	4706                	c.lwsp	x14,64(x2)
    2e48:	02e787b3          	mul	x15,x15,x14
    2e4c:	5bf2                	c.lwsp	x23,60(x2)
    2e4e:	9dbe                	c.add	x27,x15
    2e50:	fffdc713          	xori	x14,x27,-1
    2e54:	877d                	c.srai	x14,0x1f
    2e56:	00edfd33          	and	x26,x27,x14
    2e5a:	f0aff06f          	jal	x0,2564 <_vfprintf_r+0x1814>
    2e5e:	0585                	c.addi	x11,1
    2e60:	0006c783          	lbu	x15,0(x13)
    2e64:	bfc9                	c.j	2e36 <_vfprintf_r+0x20e6>
    2e66:	4ca2                	c.lwsp	x25,8(x2)
    2e68:	b57fe06f          	jal	x0,19be <_vfprintf_r+0xc6e>
    2e6c:	5792                	c.lwsp	x15,36(x2)
    2e6e:	00f48833          	add	x16,x9,x15
    2e72:	01680db3          	add	x27,x16,x22
    2e76:	06600893          	addi	x17,x0,102
    2e7a:	b341                	c.j	2bfa <_vfprintf_r+0x1eaa>
    2e7c:	415587b3          	sub	x15,x11,x21
    2e80:	cc3e                	c.swsp	x15,24(x2)
    2e82:	5b3a                	c.lwsp	x22,172(x2)
    2e84:	b229                	c.j	278e <_vfprintf_r+0x1a3e>
    2e86:	8d22                	c.mv	x26,x8
    2e88:	00148793          	addi	x15,x9,1
    2e8c:	4c16                	c.lwsp	x24,68(x2)
    2e8e:	4326                	c.lwsp	x6,72(x2)
    2e90:	4436                	c.lwsp	x8,76(x2)
    2e92:	48c6                	c.lwsp	x17,80(x2)
    2e94:	4bd6                	c.lwsp	x23,84(x2)
    2e96:	4ae6                	c.lwsp	x21,88(x2)
    2e98:	00fd06b3          	add	x13,x26,x15
    2e9c:	03000713          	addi	x14,x0,48
    2ea0:	b204cfe3          	blt	x9,x0,29de <_vfprintf_r+0x1c8e>
    2ea4:	0d05                	c.addi	x26,1
    2ea6:	feed0fa3          	sb	x14,-1(x26)
    2eaa:	ffa69de3          	bne	x13,x26,2ea4 <_vfprintf_r+0x2154>
    2eae:	be0d                	c.j	29e0 <_vfprintf_r+0x1c90>
    2eb0:	4685                	c.li	x13,1
    2eb2:	47e2                	c.lwsp	x15,24(x2)
    2eb4:	8e9d                	c.sub	x13,x15
    2eb6:	d736                	c.swsp	x13,172(x2)
    2eb8:	b9c5                	c.j	2ba8 <_vfprintf_r+0x1e58>
    2eba:	4789                	c.li	x15,2
    2ebc:	da3e                	c.swsp	x15,52(x2)
    2ebe:	b231                	c.j	27ca <_vfprintf_r+0x1a7a>
    2ec0:	e799                	c.bnez	x15,2ece <_vfprintf_r+0x217e>
    2ec2:	4d05                	c.li	x26,1
    2ec4:	8dea                	c.mv	x27,x26
    2ec6:	06600893          	addi	x17,x0,102
    2eca:	e94ff06f          	jal	x0,255e <_vfprintf_r+0x180e>
    2ece:	5792                	c.lwsp	x15,36(x2)
    2ed0:	00178813          	addi	x16,x15,1
    2ed4:	00980db3          	add	x27,x16,x9
    2ed8:	fffdc713          	xori	x14,x27,-1
    2edc:	877d                	c.srai	x14,0x1f
    2ede:	00edfd33          	and	x26,x27,x14
    2ee2:	06600893          	addi	x17,x0,102
    2ee6:	e78ff06f          	jal	x0,255e <_vfprintf_r+0x180e>
    2eea:	47d2                	c.lwsp	x15,20(x2)
    2eec:	4384                	c.lw	x9,0(x15)
    2eee:	0791                	c.addi	x15,4
    2ef0:	0004d363          	bge	x9,x0,2ef6 <_vfprintf_r+0x21a6>
    2ef4:	54fd                	c.li	x9,-1
    2ef6:	001c4883          	lbu	x17,1(x24)
    2efa:	ca3e                	c.swsp	x15,20(x2)
    2efc:	8c36                	c.mv	x24,x13
    2efe:	f75fd06f          	jal	x0,e72 <_vfprintf_r+0x122>
    2f02:	4481                	c.li	x9,0
    2f04:	d002                	c.swsp	x0,32(x2)
    2f06:	ce02                	c.swsp	x0,28(x2)
    2f08:	c802                	c.swsp	x0,16(x2)
    2f0a:	4d8d                	c.li	x27,3
    2f0c:	4d11                	c.li	x26,4
    2f0e:	fcdfd06f          	jal	x0,eda <_vfprintf_r+0x18a>
    2f12:	4d85                	c.li	x27,1
    2f14:	ca3e                	c.swsp	x15,20(x2)
    2f16:	8d6e                	c.mv	x26,x27
    2f18:	c802                	c.swsp	x0,16(x2)
    2f1a:	8dffe06f          	jal	x0,17f8 <_vfprintf_r+0xaa8>
    2f1e:	d002                	c.swsp	x0,32(x2)
    2f20:	ce02                	c.swsp	x0,28(x2)
    2f22:	bf39                	c.j	2e40 <_vfprintf_r+0x20f0>
    2f24:	4ca2                	c.lwsp	x25,8(x2)
    2f26:	00ccd783          	lhu	x15,12(x25)
    2f2a:	0407e793          	ori	x15,x15,64
    2f2e:	00fc9623          	sh	x15,12(x25)
    2f32:	a8dfe06f          	jal	x0,19be <_vfprintf_r+0xc6e>

00002f36 <vfprintf>:
    2f36:	872a                	c.mv	x14,x10
    2f38:	f041a503          	lw	x10,-252(x3) # e1b4 <_impure_ptr>
    2f3c:	87ae                	c.mv	x15,x11
    2f3e:	86b2                	c.mv	x13,x12
    2f40:	85ba                	c.mv	x11,x14
    2f42:	863e                	c.mv	x12,x15
    2f44:	e0dfd06f          	jal	x0,d50 <_vfprintf_r>

00002f48 <__sbprintf>:
    2f48:	b8010113          	addi	x2,x2,-1152
    2f4c:	00c59783          	lh	x15,12(x11)
    2f50:	00e5d703          	lhu	x14,14(x11)
    2f54:	46812c23          	sw	x8,1144(x2)
    2f58:	842e                	c.mv	x8,x11
    2f5a:	65c1                	c.lui	x11,0x10
    2f5c:	15f5                	c.addi	x11,-3 # fffd <__heap_start+0x1b2d>
    2f5e:	8fed                	c.and	x15,x11
    2f60:	0742                	c.slli	x14,0x10
    2f62:	8fd9                	c.or	x15,x14
    2f64:	07010813          	addi	x16,x2,112
    2f68:	40000713          	addi	x14,x0,1024
    2f6c:	06442e03          	lw	x28,100(x8)
    2f70:	01c42303          	lw	x6,28(x8)
    2f74:	02442883          	lw	x17,36(x8)
    2f78:	002c                	c.addi4spn	x11,x2,8
    2f7a:	46912a23          	sw	x9,1140(x2)
    2f7e:	47212823          	sw	x18,1136(x2)
    2f82:	46112e23          	sw	x1,1148(x2)
    2f86:	d002                	c.swsp	x0,32(x2)
    2f88:	ca3e                	c.swsp	x15,20(x2)
    2f8a:	d6f2                	c.swsp	x28,108(x2)
    2f8c:	d21a                	c.swsp	x6,36(x2)
    2f8e:	d646                	c.swsp	x17,44(x2)
    2f90:	892a                	c.mv	x18,x10
    2f92:	c442                	c.swsp	x16,8(x2)
    2f94:	cc42                	c.swsp	x16,24(x2)
    2f96:	c83a                	c.swsp	x14,16(x2)
    2f98:	ce3a                	c.swsp	x14,28(x2)
    2f9a:	db7fd0ef          	jal	x1,d50 <_vfprintf_r>
    2f9e:	84aa                	c.mv	x9,x10
    2fa0:	02055963          	bge	x10,x0,2fd2 <__sbprintf+0x8a>
    2fa4:	01415783          	lhu	x15,20(x2)
    2fa8:	0407f793          	andi	x15,x15,64
    2fac:	c799                	c.beqz	x15,2fba <__sbprintf+0x72>
    2fae:	00c45783          	lhu	x15,12(x8)
    2fb2:	0407e793          	ori	x15,x15,64
    2fb6:	00f41623          	sh	x15,12(x8)
    2fba:	47c12083          	lw	x1,1148(x2)
    2fbe:	47812403          	lw	x8,1144(x2)
    2fc2:	8526                	c.mv	x10,x9
    2fc4:	47012903          	lw	x18,1136(x2)
    2fc8:	47412483          	lw	x9,1140(x2)
    2fcc:	48010113          	addi	x2,x2,1152
    2fd0:	8082                	c.jr	x1
    2fd2:	002c                	c.addi4spn	x11,x2,8
    2fd4:	854a                	c.mv	x10,x18
    2fd6:	29e5                	c.jal	34ce <_fflush_r>
    2fd8:	d571                	c.beqz	x10,2fa4 <__sbprintf+0x5c>
    2fda:	54fd                	c.li	x9,-1
    2fdc:	b7e1                	c.j	2fa4 <__sbprintf+0x5c>

00002fde <memcpy>:
    2fde:	00a5c7b3          	xor	x15,x11,x10
    2fe2:	8b8d                	c.andi	x15,3
    2fe4:	00c508b3          	add	x17,x10,x12
    2fe8:	e7b1                	c.bnez	x15,3034 <memcpy+0x56>
    2fea:	478d                	c.li	x15,3
    2fec:	04c7f463          	bgeu	x15,x12,3034 <memcpy+0x56>
    2ff0:	00357793          	andi	x15,x10,3
    2ff4:	872a                	c.mv	x14,x10
    2ff6:	e7dd                	c.bnez	x15,30a4 <memcpy+0xc6>
    2ff8:	ffc8f613          	andi	x12,x17,-4
    2ffc:	40e606b3          	sub	x13,x12,x14
    3000:	02000793          	addi	x15,x0,32
    3004:	04d7c463          	blt	x15,x13,304c <memcpy+0x6e>
    3008:	86ae                	c.mv	x13,x11
    300a:	87ba                	c.mv	x15,x14
    300c:	02c77163          	bgeu	x14,x12,302e <memcpy+0x50>
    3010:	0006a803          	lw	x16,0(x13)
    3014:	0791                	c.addi	x15,4
    3016:	ff07ae23          	sw	x16,-4(x15)
    301a:	0691                	c.addi	x13,4
    301c:	fec7eae3          	bltu	x15,x12,3010 <memcpy+0x32>
    3020:	fff60793          	addi	x15,x12,-1
    3024:	8f99                	c.sub	x15,x14
    3026:	9bf1                	c.andi	x15,-4
    3028:	0791                	c.addi	x15,4
    302a:	973e                	c.add	x14,x15
    302c:	95be                	c.add	x11,x15
    302e:	01176663          	bltu	x14,x17,303a <memcpy+0x5c>
    3032:	8082                	c.jr	x1
    3034:	872a                	c.mv	x14,x10
    3036:	ff157ee3          	bgeu	x10,x17,3032 <memcpy+0x54>
    303a:	0005c783          	lbu	x15,0(x11)
    303e:	0705                	c.addi	x14,1
    3040:	fef70fa3          	sb	x15,-1(x14)
    3044:	0585                	c.addi	x11,1
    3046:	fee89ae3          	bne	x17,x14,303a <memcpy+0x5c>
    304a:	8082                	c.jr	x1
    304c:	02470713          	addi	x14,x14,36
    3050:	5194                	c.lw	x13,32(x11)
    3052:	0005a383          	lw	x7,0(x11)
    3056:	0045a283          	lw	x5,4(x11)
    305a:	0085af83          	lw	x31,8(x11)
    305e:	00c5af03          	lw	x30,12(x11)
    3062:	0105ae83          	lw	x29,16(x11)
    3066:	0145ae03          	lw	x28,20(x11)
    306a:	0185a303          	lw	x6,24(x11)
    306e:	01c5a803          	lw	x16,28(x11)
    3072:	fed72e23          	sw	x13,-4(x14)
    3076:	fc772e23          	sw	x7,-36(x14)
    307a:	fe572023          	sw	x5,-32(x14)
    307e:	fff72223          	sw	x31,-28(x14)
    3082:	ffe72423          	sw	x30,-24(x14)
    3086:	ffd72623          	sw	x29,-20(x14)
    308a:	ffc72823          	sw	x28,-16(x14)
    308e:	fe672a23          	sw	x6,-12(x14)
    3092:	ff072c23          	sw	x16,-8(x14)
    3096:	40e606b3          	sub	x13,x12,x14
    309a:	02458593          	addi	x11,x11,36
    309e:	fad7c7e3          	blt	x15,x13,304c <memcpy+0x6e>
    30a2:	b79d                	c.j	3008 <memcpy+0x2a>
    30a4:	0005c783          	lbu	x15,0(x11)
    30a8:	0705                	c.addi	x14,1
    30aa:	fef70fa3          	sb	x15,-1(x14)
    30ae:	00377793          	andi	x15,x14,3
    30b2:	0585                	c.addi	x11,1
    30b4:	d3b1                	c.beqz	x15,2ff8 <memcpy+0x1a>
    30b6:	0005c783          	lbu	x15,0(x11)
    30ba:	0705                	c.addi	x14,1
    30bc:	fef70fa3          	sb	x15,-1(x14)
    30c0:	00377793          	andi	x15,x14,3
    30c4:	0585                	c.addi	x11,1
    30c6:	fff9                	c.bnez	x15,30a4 <memcpy+0xc6>
    30c8:	bf05                	c.j	2ff8 <memcpy+0x1a>

000030ca <_ldtoa_r>:
    30ca:	0000a317          	auipc	x6,0xa
    30ce:	5d630313          	addi	x6,x6,1494 # d6a0 <zeroes.0+0x7c>
    30d2:	7131                	c.addi16sp	x2,-192
    30d4:	00032e83          	lw	x29,0(x6)
    30d8:	00432e03          	lw	x28,4(x6)
    30dc:	d6f6                	c.swsp	x29,108(x2)
    30de:	d8f2                	c.swsp	x28,112(x2)
    30e0:	00832e83          	lw	x29,8(x6)
    30e4:	00c32e03          	lw	x28,12(x6)
    30e8:	01032303          	lw	x6,16(x6)
    30ec:	88ae                	c.mv	x17,x11
    30ee:	d94a                	c.swsp	x18,176(x2)
    30f0:	d74e                	c.swsp	x19,172(x2)
    30f2:	d552                	c.swsp	x20,168(x2)
    30f4:	d15a                	c.swsp	x22,160(x2)
    30f6:	cf5e                	c.swsp	x23,156(x2)
    30f8:	cd62                	c.swsp	x24,152(x2)
    30fa:	cb66                	c.swsp	x25,148(x2)
    30fc:	c96a                	c.swsp	x26,144(x2)
    30fe:	df06                	c.swsp	x1,188(x2)
    3100:	dd22                	c.swsp	x8,184(x2)
    3102:	db26                	c.swsp	x9,180(x2)
    3104:	d356                	c.swsp	x21,164(x2)
    3106:	c76e                	c.swsp	x27,140(x2)
    3108:	5d0c                	c.lw	x11,56(x10)
    310a:	daf6                	c.swsp	x29,116(x2)
    310c:	dcf2                	c.swsp	x28,120(x2)
    310e:	de9a                	c.swsp	x6,124(x2)
    3110:	d032                	c.swsp	x12,32(x2)
    3112:	d236                	c.swsp	x13,36(x2)
    3114:	8b2a                	c.mv	x22,x10
    3116:	8bba                	c.mv	x23,x14
    3118:	8cbe                	c.mv	x25,x15
    311a:	8d42                	c.mv	x26,x16
    311c:	0008aa03          	lw	x20,0(x17)
    3120:	0048a983          	lw	x19,4(x17)
    3124:	0088a903          	lw	x18,8(x17)
    3128:	00c8ac03          	lw	x24,12(x17)
    312c:	c589                	c.beqz	x11,3136 <_ldtoa_r+0x6c>
    312e:	519020ef          	jal	x1,5e46 <__freedtoa>
    3132:	020b2c23          	sw	x0,56(x22)
    3136:	5666                	c.lwsp	x12,120(x2)
    3138:	01fc5693          	srli	x13,x24,0x1f
    313c:	40165713          	srai	x14,x12,0x1
    3140:	001c1a93          	slli	x21,x24,0x1
    3144:	74f1                	c.lui	x9,0xffffc
    3146:	001c1413          	slli	x8,x24,0x1
    314a:	010c1d93          	slli	x27,x24,0x10
    314e:	8f75                	c.and	x14,x13
    3150:	c0d2                	c.swsp	x20,64(x2)
    3152:	c2ce                	c.swsp	x19,68(x2)
    3154:	c4ca                	c.swsp	x18,72(x2)
    3156:	d852                	c.swsp	x20,48(x2)
    3158:	da4e                	c.swsp	x19,52(x2)
    315a:	dc4a                	c.swsp	x18,56(x2)
    315c:	011ada93          	srli	x21,x21,0x11
    3160:	f9148493          	addi	x9,x9,-111 # ffffbf91 <__heap_end+0xffbfbf91>
    3164:	8005                	c.srli	x8,0x1
    3166:	00dca023          	sw	x13,0(x25)
    316a:	010ddd93          	srli	x27,x27,0x10
    316e:	8f31                	c.xor	x14,x12
    3170:	009a87b3          	add	x15,x21,x9
    3174:	0088                	c.addi4spn	x10,x2,64
    3176:	180c                	c.addi4spn	x11,x2,48
    3178:	c6a2                	c.swsp	x8,76(x2)
    317a:	de22                	c.swsp	x8,60(x2)
    317c:	ced2                	c.swsp	x20,92(x2)
    317e:	d0ce                	c.swsp	x19,96(x2)
    3180:	d2ca                	c.swsp	x18,100(x2)
    3182:	dcba                	c.swsp	x14,120(x2)
    3184:	ce3e                	c.swsp	x15,28(x2)
    3186:	d4ee                	c.swsp	x27,104(x2)
    3188:	2a7090ef          	jal	x1,cc2e <__unordtf2>
    318c:	0e051b63          	bne	x10,x0,3282 <_ldtoa_r+0x1b8>
    3190:	0000a797          	auipc	x15,0xa
    3194:	4e078793          	addi	x15,x15,1248 # d670 <zeroes.0+0x4c>
    3198:	4390                	c.lw	x12,0(x15)
    319a:	43d4                	c.lw	x13,4(x15)
    319c:	4784                	c.lw	x9,8(x15)
    319e:	00c7ac83          	lw	x25,12(x15)
    31a2:	180c                	c.addi4spn	x11,x2,48
    31a4:	0088                	c.addi4spn	x10,x2,64
    31a6:	c0d2                	c.swsp	x20,64(x2)
    31a8:	c2ce                	c.swsp	x19,68(x2)
    31aa:	c4ca                	c.swsp	x18,72(x2)
    31ac:	c6a2                	c.swsp	x8,76(x2)
    31ae:	d832                	c.swsp	x12,48(x2)
    31b0:	d632                	c.swsp	x12,44(x2)
    31b2:	da36                	c.swsp	x13,52(x2)
    31b4:	d436                	c.swsp	x13,40(x2)
    31b6:	dc26                	c.swsp	x9,56(x2)
    31b8:	de66                	c.swsp	x25,60(x2)
    31ba:	275090ef          	jal	x1,cc2e <__unordtf2>
    31be:	ed29                	c.bnez	x10,3218 <_ldtoa_r+0x14e>
    31c0:	180c                	c.addi4spn	x11,x2,48
    31c2:	0088                	c.addi4spn	x10,x2,64
    31c4:	34b070ef          	jal	x1,ad0e <__letf2>
    31c8:	04a05863          	bge	x0,x10,3218 <_ldtoa_r+0x14e>
    31cc:	478d                	c.li	x15,3
    31ce:	ccbe                	c.swsp	x15,88(x2)
    31d0:	5782                	c.lwsp	x15,32(x2)
    31d2:	08b8                	c.addi4spn	x14,x2,88
    31d4:	c06a                	c.swsp	x26,0(x2)
    31d6:	5812                	c.lwsp	x16,36(x2)
    31d8:	4672                	c.lwsp	x12,28(x2)
    31da:	855a                	c.mv	x10,x22
    31dc:	88de                	c.mv	x17,x23
    31de:	08f4                	c.addi4spn	x13,x2,92
    31e0:	10ec                	c.addi4spn	x11,x2,108
    31e2:	545000ef          	jal	x1,3f26 <__gdtoa>
    31e6:	000ba703          	lw	x14,0(x23)
    31ea:	77e1                	c.lui	x15,0xffff8
    31ec:	00f71763          	bne	x14,x15,31fa <_ldtoa_r+0x130>
    31f0:	800007b7          	lui	x15,0x80000
    31f4:	17fd                	c.addi	x15,-1 # 7fffffff <__heap_end+0x7fbfffff>
    31f6:	00fba023          	sw	x15,0(x23)
    31fa:	50fa                	c.lwsp	x1,188(x2)
    31fc:	546a                	c.lwsp	x8,184(x2)
    31fe:	54da                	c.lwsp	x9,180(x2)
    3200:	594a                	c.lwsp	x18,176(x2)
    3202:	59ba                	c.lwsp	x19,172(x2)
    3204:	5a2a                	c.lwsp	x20,168(x2)
    3206:	5a9a                	c.lwsp	x21,164(x2)
    3208:	5b0a                	c.lwsp	x22,160(x2)
    320a:	4bfa                	c.lwsp	x23,156(x2)
    320c:	4c6a                	c.lwsp	x24,152(x2)
    320e:	4cda                	c.lwsp	x25,148(x2)
    3210:	4d4a                	c.lwsp	x26,144(x2)
    3212:	4dba                	c.lwsp	x27,140(x2)
    3214:	6129                	c.addi16sp	x2,192
    3216:	8082                	c.jr	x1
    3218:	0000a797          	auipc	x15,0xa
    321c:	46878793          	addi	x15,x15,1128 # d680 <zeroes.0+0x5c>
    3220:	4398                	c.lw	x14,0(x15)
    3222:	43d4                	c.lw	x13,4(x15)
    3224:	d83a                	c.swsp	x14,48(x2)
    3226:	180c                	c.addi4spn	x11,x2,48
    3228:	4798                	c.lw	x14,8(x15)
    322a:	0088                	c.addi4spn	x10,x2,64
    322c:	47dc                	c.lw	x15,12(x15)
    322e:	c0d2                	c.swsp	x20,64(x2)
    3230:	c2ce                	c.swsp	x19,68(x2)
    3232:	c4ca                	c.swsp	x18,72(x2)
    3234:	c6a2                	c.swsp	x8,76(x2)
    3236:	da36                	c.swsp	x13,52(x2)
    3238:	dc3a                	c.swsp	x14,56(x2)
    323a:	de3e                	c.swsp	x15,60(x2)
    323c:	1b1070ef          	jal	x1,abec <__getf2>
    3240:	00054963          	blt	x10,x0,3252 <_ldtoa_r+0x188>
    3244:	67c1                	c.lui	x15,0x10
    3246:	00fdedb3          	or	x27,x27,x15
    324a:	4785                	c.li	x15,1
    324c:	d4ee                	c.swsp	x27,104(x2)
    324e:	ccbe                	c.swsp	x15,88(x2)
    3250:	b741                	c.j	31d0 <_ldtoa_r+0x106>
    3252:	180c                	c.addi4spn	x11,x2,48
    3254:	0088                	c.addi4spn	x10,x2,64
    3256:	c0d2                	c.swsp	x20,64(x2)
    3258:	c2ce                	c.swsp	x19,68(x2)
    325a:	c4ca                	c.swsp	x18,72(x2)
    325c:	c6e2                	c.swsp	x24,76(x2)
    325e:	d802                	c.swsp	x0,48(x2)
    3260:	da02                	c.swsp	x0,52(x2)
    3262:	dc02                	c.swsp	x0,56(x2)
    3264:	de02                	c.swsp	x0,60(x2)
    3266:	0dd070ef          	jal	x1,ab42 <__eqtf2>
    326a:	e119                	c.bnez	x10,3270 <_ldtoa_r+0x1a6>
    326c:	cc82                	c.swsp	x0,88(x2)
    326e:	b78d                	c.j	31d0 <_ldtoa_r+0x106>
    3270:	74f1                	c.lui	x9,0xffffc
    3272:	f9248493          	addi	x9,x9,-110 # ffffbf92 <__heap_end+0xffbfbf92>
    3276:	4789                	c.li	x15,2
    3278:	009a8733          	add	x14,x21,x9
    327c:	ce3a                	c.swsp	x14,28(x2)
    327e:	ccbe                	c.swsp	x15,88(x2)
    3280:	bf81                	c.j	31d0 <_ldtoa_r+0x106>
    3282:	4791                	c.li	x15,4
    3284:	ccbe                	c.swsp	x15,88(x2)
    3286:	b7a9                	c.j	31d0 <_ldtoa_r+0x106>

00003288 <_ldcheck>:
    3288:	715d                	c.addi16sp	x2,-80
    328a:	c2a6                	c.swsp	x9,68(x2)
    328c:	4544                	c.lw	x9,12(x10)
    328e:	0486                	c.slli	x9,0x1
    3290:	c0ca                	c.swsp	x18,64(x2)
    3292:	de4e                	c.swsp	x19,60(x2)
    3294:	00852903          	lw	x18,8(x10)
    3298:	00452983          	lw	x19,4(x10)
    329c:	dc52                	c.swsp	x20,56(x2)
    329e:	8085                	c.srli	x9,0x1
    32a0:	00052a03          	lw	x20,0(x10)
    32a4:	858a                	c.mv	x11,x2
    32a6:	0808                	c.addi4spn	x10,x2,16
    32a8:	c686                	c.swsp	x1,76(x2)
    32aa:	ce26                	c.swsp	x9,28(x2)
    32ac:	c626                	c.swsp	x9,12(x2)
    32ae:	c852                	c.swsp	x20,16(x2)
    32b0:	c052                	c.swsp	x20,0(x2)
    32b2:	ca4e                	c.swsp	x19,20(x2)
    32b4:	c24e                	c.swsp	x19,4(x2)
    32b6:	cc4a                	c.swsp	x18,24(x2)
    32b8:	c44a                	c.swsp	x18,8(x2)
    32ba:	175090ef          	jal	x1,cc2e <__unordtf2>
    32be:	e525                	c.bnez	x10,3326 <_ldcheck+0x9e>
    32c0:	0000a797          	auipc	x15,0xa
    32c4:	3b078793          	addi	x15,x15,944 # d670 <zeroes.0+0x4c>
    32c8:	da56                	c.swsp	x21,52(x2)
    32ca:	d85a                	c.swsp	x22,48(x2)
    32cc:	d65e                	c.swsp	x23,44(x2)
    32ce:	d462                	c.swsp	x24,40(x2)
    32d0:	0047ab83          	lw	x23,4(x15)
    32d4:	0007ac03          	lw	x24,0(x15)
    32d8:	0087ab03          	lw	x22,8(x15)
    32dc:	00c7aa83          	lw	x21,12(x15)
    32e0:	858a                	c.mv	x11,x2
    32e2:	0808                	c.addi4spn	x10,x2,16
    32e4:	c4a2                	c.swsp	x8,72(x2)
    32e6:	c062                	c.swsp	x24,0(x2)
    32e8:	c25e                	c.swsp	x23,4(x2)
    32ea:	c45a                	c.swsp	x22,8(x2)
    32ec:	c656                	c.swsp	x21,12(x2)
    32ee:	4405                	c.li	x8,1
    32f0:	13f090ef          	jal	x1,cc2e <__unordtf2>
    32f4:	c115                	c.beqz	x10,3318 <_ldcheck+0x90>
    32f6:	00144513          	xori	x10,x8,1
    32fa:	40b6                	c.lwsp	x1,76(x2)
    32fc:	4426                	c.lwsp	x8,72(x2)
    32fe:	0ff57513          	andi	x10,x10,255
    3302:	5ad2                	c.lwsp	x21,52(x2)
    3304:	5b42                	c.lwsp	x22,48(x2)
    3306:	5bb2                	c.lwsp	x23,44(x2)
    3308:	5c22                	c.lwsp	x24,40(x2)
    330a:	4496                	c.lwsp	x9,68(x2)
    330c:	4906                	c.lwsp	x18,64(x2)
    330e:	59f2                	c.lwsp	x19,60(x2)
    3310:	5a62                	c.lwsp	x20,56(x2)
    3312:	0506                	c.slli	x10,0x1
    3314:	6161                	c.addi16sp	x2,80
    3316:	8082                	c.jr	x1
    3318:	858a                	c.mv	x11,x2
    331a:	0808                	c.addi4spn	x10,x2,16
    331c:	1f3070ef          	jal	x1,ad0e <__letf2>
    3320:	00152413          	slti	x8,x10,1
    3324:	bfc9                	c.j	32f6 <_ldcheck+0x6e>
    3326:	40b6                	c.lwsp	x1,76(x2)
    3328:	4496                	c.lwsp	x9,68(x2)
    332a:	4906                	c.lwsp	x18,64(x2)
    332c:	59f2                	c.lwsp	x19,60(x2)
    332e:	5a62                	c.lwsp	x20,56(x2)
    3330:	4505                	c.li	x10,1
    3332:	6161                	c.addi16sp	x2,80
    3334:	8082                	c.jr	x1

00003336 <__sflush_r>:
    3336:	00c59703          	lh	x14,12(x11)
    333a:	1101                	c.addi	x2,-32
    333c:	cc22                	c.swsp	x8,24(x2)
    333e:	c64e                	c.swsp	x19,12(x2)
    3340:	ce06                	c.swsp	x1,28(x2)
    3342:	00877793          	andi	x15,x14,8
    3346:	842e                	c.mv	x8,x11
    3348:	89aa                	c.mv	x19,x10
    334a:	e7e1                	c.bnez	x15,3412 <__sflush_r+0xdc>
    334c:	6785                	c.lui	x15,0x1
    334e:	80078793          	addi	x15,x15,-2048 # 800 <_puts_r+0x16>
    3352:	8fd9                	c.or	x15,x14
    3354:	00f59623          	sh	x15,12(x11)
    3358:	41d4                	c.lw	x13,4(x11)
    335a:	10d05963          	bge	x0,x13,346c <__sflush_r+0x136>
    335e:	02842803          	lw	x16,40(x8)
    3362:	0a080263          	beq	x16,x0,3406 <__sflush_r+0xd0>
    3366:	ca26                	c.swsp	x9,20(x2)
    3368:	01371693          	slli	x13,x14,0x13
    336c:	0009a483          	lw	x9,0(x19)
    3370:	0009a023          	sw	x0,0(x19)
    3374:	1006c363          	blt	x13,x0,347a <__sflush_r+0x144>
    3378:	4601                	c.li	x12,0
    337a:	4685                	c.li	x13,1
    337c:	4c4c                	c.lw	x11,28(x8)
    337e:	854e                	c.mv	x10,x19
    3380:	9802                	c.jalr	x16
    3382:	57fd                	c.li	x15,-1
    3384:	862a                	c.mv	x12,x10
    3386:	12f50163          	beq	x10,x15,34a8 <__sflush_r+0x172>
    338a:	00c41783          	lh	x15,12(x8)
    338e:	02842803          	lw	x16,40(x8)
    3392:	8b91                	c.andi	x15,4
    3394:	c799                	c.beqz	x15,33a2 <__sflush_r+0x6c>
    3396:	4058                	c.lw	x14,4(x8)
    3398:	581c                	c.lw	x15,48(x8)
    339a:	8e19                	c.sub	x12,x14
    339c:	c399                	c.beqz	x15,33a2 <__sflush_r+0x6c>
    339e:	5c5c                	c.lw	x15,60(x8)
    33a0:	8e1d                	c.sub	x12,x15
    33a2:	4681                	c.li	x13,0
    33a4:	4c4c                	c.lw	x11,28(x8)
    33a6:	854e                	c.mv	x10,x19
    33a8:	9802                	c.jalr	x16
    33aa:	577d                	c.li	x14,-1
