
/home/rohan/core-v-verif/cv32e40p/tests/programs/custom/hello-world/hello-world.elf:     file format elf32-littleriscv


Disassembly of section .vectors:

00000000 <__vector_start>:
.section .vectors, "ax"
.option norvc
.global vector_table

vector_table:
	j u_sw_irq_handler
   0:	2000006f          	jal	x0,200 <u_sw_irq_handler>
	j __no_irq_handler
   4:	1c80006f          	jal	x0,1cc <__no_irq_handler>
	j __no_irq_handler
   8:	1c40006f          	jal	x0,1cc <__no_irq_handler>
	j m_software_irq_handler
   c:	1ce0006f          	jal	x0,1da <m_software_irq_handler>
	j __no_irq_handler
  10:	1bc0006f          	jal	x0,1cc <__no_irq_handler>
	j __no_irq_handler
  14:	1b80006f          	jal	x0,1cc <__no_irq_handler>
	j __no_irq_handler
  18:	1b40006f          	jal	x0,1cc <__no_irq_handler>
	j m_timer_irq_handler
  1c:	1c00006f          	jal	x0,1dc <m_timer_irq_handler>
	j __no_irq_handler
  20:	1ac0006f          	jal	x0,1cc <__no_irq_handler>
	j __no_irq_handler
  24:	1a80006f          	jal	x0,1cc <__no_irq_handler>
	j __no_irq_handler
  28:	1a40006f          	jal	x0,1cc <__no_irq_handler>
	j m_external_irq_handler
  2c:	1b20006f          	jal	x0,1de <m_external_irq_handler>
	j __no_irq_handler
  30:	19c0006f          	jal	x0,1cc <__no_irq_handler>
	j __no_irq_handler
  34:	1980006f          	jal	x0,1cc <__no_irq_handler>
	j __no_irq_handler
  38:	1940006f          	jal	x0,1cc <__no_irq_handler>
	j __no_irq_handler
  3c:	1900006f          	jal	x0,1cc <__no_irq_handler>
	j m_fast0_irq_handler
  40:	1a00006f          	jal	x0,1e0 <m_fast0_irq_handler>
	j m_fast1_irq_handler
  44:	19e0006f          	jal	x0,1e2 <m_fast1_irq_handler>
	j m_fast2_irq_handler
  48:	19c0006f          	jal	x0,1e4 <m_fast2_irq_handler>
	j m_fast3_irq_handler
  4c:	19a0006f          	jal	x0,1e6 <m_fast3_irq_handler>
	j m_fast4_irq_handler
  50:	1980006f          	jal	x0,1e8 <m_fast4_irq_handler>
	j m_fast5_irq_handler
  54:	1960006f          	jal	x0,1ea <m_fast5_irq_handler>
	j m_fast6_irq_handler
  58:	1940006f          	jal	x0,1ec <m_fast6_irq_handler>
	j m_fast7_irq_handler
  5c:	1920006f          	jal	x0,1ee <m_fast7_irq_handler>
	j m_fast8_irq_handler
  60:	1900006f          	jal	x0,1f0 <m_fast8_irq_handler>
	j m_fast9_irq_handler
  64:	18e0006f          	jal	x0,1f2 <m_fast9_irq_handler>
	j m_fast10_irq_handler
  68:	18c0006f          	jal	x0,1f4 <m_fast10_irq_handler>
	j m_fast11_irq_handler
  6c:	18a0006f          	jal	x0,1f6 <m_fast11_irq_handler>
	j m_fast12_irq_handler
  70:	1880006f          	jal	x0,1f8 <m_fast12_irq_handler>
	j m_fast13_irq_handler
  74:	1860006f          	jal	x0,1fa <m_fast13_irq_handler>
	j m_fast14_irq_handler
  78:	1840006f          	jal	x0,1fc <m_fast14_irq_handler>
	j m_fast15_irq_handler
  7c:	1820006f          	jal	x0,1fe <m_fast15_irq_handler>

Disassembly of section .init:

00000080 <_start>:

_start:
/* initialize global pointer */
.option push
.option norelax
1:	auipc gp, %pcrel_hi(__global_pointer$)
  80:	0000e197          	auipc	x3,0xe
	addi  gp, gp, %pcrel_lo(1b)
  84:	50818193          	addi	x3,x3,1288 # e588 <__global_pointer$>
.option pop

/* initialize stack pointer */
	la sp, __stack_end
  88:	00400117          	auipc	x2,0x400
  8c:	f7810113          	addi	x2,x2,-136 # 400000 <__heap_end>

/* set vector table address */
	la a0, __vector_start
  90:	00000517          	auipc	x10,0x0
  94:	f7050513          	addi	x10,x10,-144 # 0 <__vector_start>
	ori a0, a0, 1 /*vector mode = vectored */
  98:	00156513          	ori	x10,x10,1
	csrw mtvec, a0
  9c:	30551073          	csrrw	x0,mtvec,x10

/* clear the bss segment */
	la a0, _edata
  a0:	f1818513          	addi	x10,x3,-232 # e4a0 <errno>
	la a2, _end
  a4:	22418613          	addi	x12,x3,548 # e7ac <__bss_end>
	sub a2, a2, a0
  a8:	8e09                	c.sub	x12,x10
	li a1, 0
  aa:	4581                	c.li	x11,0
	call memset
  ac:	2b25                	c.jal	5e4 <memset>

/* new-style constructors and destructors */
	la a0, __libc_fini_array
  ae:	00001517          	auipc	x10,0x1
  b2:	f9650513          	addi	x10,x10,-106 # 1044 <__libc_fini_array>
	call atexit
  b6:	6d5000ef          	jal	x1,f8a <atexit>
	call __libc_init_array
  ba:	2da1                	c.jal	712 <__libc_init_array>
//	lw a0, 0(sp)                    /* a0 = argc */
//	addi a1, sp, __SIZEOF_POINTER__ /* a1 = argv */
//	li a2, 0                        /* a2 = envp = NULL */
// Initialize these variables to 0. Cannot use argc or argv
// since the stack is not initialized
	li a0, 0
  bc:	4501                	c.li	x10,0
	li a1, 0
  be:	4581                	c.li	x11,0
	li a2, 0
  c0:	4601                	c.li	x12,0

	call main
  c2:	2021                	c.jal	ca <main>
	tail exit
  c4:	6170006f          	jal	x0,eda <exit>

000000c8 <_fini>:
.type   _fini, @function
_init:
_fini:
 /* These don't have to do anything since we use init_array/fini_array. Prevent
    missing symbol error */
	ret
  c8:	8082                	c.jr	x1

Disassembly of section .text:

000000ca <main>:
#define EXP_MISA 0x40801104
#endif


int main(int argc, char *argv[])
{
      ca:	1101                	c.addi	x2,-32
      cc:	ce06                	c.swsp	x1,28(x2)
      ce:	cc22                	c.swsp	x8,24(x2)
      d0:	ca26                	c.swsp	x9,20(x2)
             int reserved, tentative, nonstd, user, super;

    mxl = 0; reserved = 0; tentative = 0; nonstd = 0; user = 0; super = 0;

    /* inline assembly: read mvendorid and misa */
    __asm__ volatile("csrr %0, 0xF11" : "=r"(mvendorid_rval));
      d2:	f11025f3          	csrrs	x11,mvendorid,x0
    __asm__ volatile("csrr %0, 0x301" : "=r"(misa_rval));
      d6:	30102473          	csrrs	x8,misa,x0
    __asm__ volatile("csrr %0, 0xF12" : "=r"(marchid_rval));
      da:	f12024f3          	csrrs	x9,marchid,x0
    __asm__ volatile("csrr %0, 0xF13" : "=r"(mimpid_rval));
      de:	f13027f3          	csrrs	x15,mimpid,x0

    /* Check MVENDORID CSR: 0x602 is the value assigned by JEDEC to the OpenHW Group */
    if (mvendorid_rval != 0x00000602) {
      e2:	60200713          	addi	x14,x0,1538
      e6:	00e58863          	beq	x11,x14,f6 <main+0x2c>
      printf("\tERROR: CSR MVENDORID reads as 0x%x - should be 0x00000602 for the OpenHW Group.\n\n", mvendorid_rval);
      ea:	6535                	c.lui	x10,0xd
      ec:	0b050513          	addi	x10,x10,176 # d0b0 <__clzsi2+0x76>
      return EXIT_FAILURE;
    }

    /* Check MARCHID CSR: 0x4 is the value assigned by the RISC-V Foundation to CV32E40P */
    if (marchid_rval != 0x00000004) {
      printf("\tERROR: CSR MARCHID reads as 0x%x - should be 0x00000004 for CV32E40P.\n\n", marchid_rval);
      f0:	6c7000ef          	jal	x1,fb6 <printf>
      return EXIT_FAILURE;
      f4:	a829                	c.j	10e <main+0x44>
    if (misa_rval != EXP_MISA) {
      f6:	40001637          	lui	x12,0x40001
      fa:	10460613          	addi	x12,x12,260 # 40001104 <__heap_end+0x3fc01104>
      fe:	00c40e63          	beq	x8,x12,11a <main+0x50>
      printf("\tERROR: CSR MISA reads as 0x%x - should be 0x%x for this release of CV32E40P!\n\n", misa_rval, EXP_MISA);
     102:	6535                	c.lui	x10,0xd
     104:	85a2                	c.mv	x11,x8
     106:	10450513          	addi	x10,x10,260 # d104 <__clzsi2+0xca>
     10a:	6ad000ef          	jal	x1,fb6 <printf>
      return EXIT_FAILURE;
     10e:	4505                	c.li	x10,1
    }
    else {
      printf("\n");
      return EXIT_SUCCESS;
    }
}
     110:	40f2                	c.lwsp	x1,28(x2)
     112:	4462                	c.lwsp	x8,24(x2)
     114:	44d2                	c.lwsp	x9,20(x2)
     116:	6105                	c.addi16sp	x2,32
     118:	8082                	c.jr	x1
    if (marchid_rval != 0x00000004) {
     11a:	4711                	c.li	x14,4
     11c:	00e48763          	beq	x9,x14,12a <main+0x60>
      printf("\tERROR: CSR MARCHID reads as 0x%x - should be 0x00000004 for CV32E40P.\n\n", marchid_rval);
     120:	6535                	c.lui	x10,0xd
     122:	85a6                	c.mv	x11,x9
     124:	15450513          	addi	x10,x10,340 # d154 <__clzsi2+0x11a>
     128:	b7e1                	c.j	f0 <main+0x26>
    if (mimpid_rval != 0x00000000) {
     12a:	c791                	c.beqz	x15,136 <main+0x6c>
      printf("\tERROR: CSR MIMPID reads as 0x%x - should be 0x00000000 for this release of CV32E40P.\n\n", mimpid_rval);
     12c:	6535                	c.lui	x10,0xd
     12e:	85be                	c.mv	x11,x15
     130:	1a050513          	addi	x10,x10,416 # d1a0 <__clzsi2+0x166>
     134:	bf75                	c.j	f0 <main+0x26>
    printf("\nHELLO WORLD!!!\n");
     136:	6535                	c.lui	x10,0xd
     138:	1f850513          	addi	x10,x10,504 # d1f8 <__clzsi2+0x1be>
     13c:	c62e                	c.swsp	x11,12(x2)
     13e:	259000ef          	jal	x1,b96 <puts>
    printf("This is the OpenHW Group CV32E40P CORE-V processor core.\n");
     142:	6535                	c.lui	x10,0xd
     144:	20850513          	addi	x10,x10,520 # d208 <__clzsi2+0x1ce>
     148:	24f000ef          	jal	x1,b96 <puts>
    printf("CV32E40P is a RISC-V ISA compliant core with the following attributes:\n");
     14c:	6535                	c.lui	x10,0xd
     14e:	24450513          	addi	x10,x10,580 # d244 <__clzsi2+0x20a>
     152:	245000ef          	jal	x1,b96 <puts>
    printf("\tmvendorid = 0x%x\n", mvendorid_rval);
     156:	6535                	c.lui	x10,0xd
     158:	45b2                	c.lwsp	x11,12(x2)
     15a:	28c50513          	addi	x10,x10,652 # d28c <__clzsi2+0x252>
     15e:	659000ef          	jal	x1,fb6 <printf>
    printf("\tmarchid   = 0x%x\n", marchid_rval);
     162:	6535                	c.lui	x10,0xd
     164:	85a6                	c.mv	x11,x9
     166:	2a050513          	addi	x10,x10,672 # d2a0 <__clzsi2+0x266>
     16a:	64d000ef          	jal	x1,fb6 <printf>
    printf("\tmimpid    = 0x%x\n", mimpid_rval);
     16e:	6535                	c.lui	x10,0xd
     170:	4581                	c.li	x11,0
     172:	2b450513          	addi	x10,x10,692 # d2b4 <__clzsi2+0x27a>
     176:	641000ef          	jal	x1,fb6 <printf>
    printf("\tmisa      = 0x%x\n", misa_rval);
     17a:	6535                	c.lui	x10,0xd
     17c:	85a2                	c.mv	x11,x8
     17e:	2c850513          	addi	x10,x10,712 # d2c8 <__clzsi2+0x28e>
     182:	635000ef          	jal	x1,fb6 <printf>
      case 1:  printf("\tXLEN is 32-bits\n");
     186:	6535                	c.lui	x10,0xd
     188:	2dc50513          	addi	x10,x10,732 # d2dc <__clzsi2+0x2a2>
     18c:	20b000ef          	jal	x1,b96 <puts>
    printf("\tSupported Instructions Extensions: ");
     190:	6535                	c.lui	x10,0xd
     192:	2f050513          	addi	x10,x10,752 # d2f0 <__clzsi2+0x2b6>
     196:	621000ef          	jal	x1,fb6 <printf>
    if ((misa_rval >> 12) & 0x00000001) printf("M");
     19a:	04d00513          	addi	x10,x0,77
     19e:	2ebd                	c.jal	51c <putchar>
    if ((misa_rval >>  8) & 0x00000001) printf("I");
     1a0:	04900513          	addi	x10,x0,73
     1a4:	2ea5                	c.jal	51c <putchar>
    if ((misa_rval >>  2) & 0x00000001) printf("C");
     1a6:	04300513          	addi	x10,x0,67
     1aa:	2e8d                	c.jal	51c <putchar>
    printf("\n");
     1ac:	4529                	c.li	x10,10
     1ae:	26bd                	c.jal	51c <putchar>
      printf("\n");
     1b0:	4529                	c.li	x10,10
     1b2:	26ad                	c.jal	51c <putchar>
      return EXIT_SUCCESS;
     1b4:	4501                	c.li	x10,0
     1b6:	bfa9                	c.j	110 <main+0x46>

000001b8 <register_fini>:
     1b8:	00000793          	addi	x15,x0,0
     1bc:	c799                	c.beqz	x15,1ca <register_fini+0x12>
     1be:	00001517          	auipc	x10,0x1
     1c2:	e8650513          	addi	x10,x10,-378 # 1044 <__libc_fini_array>
     1c6:	5c50006f          	jal	x0,f8a <atexit>
     1ca:	8082                	c.jr	x1

000001cc <__no_irq_handler>:
.weak m_fast15_irq_handler


/* exception handling */
__no_irq_handler:
	la a0, no_exception_handler_msg
     1cc:	0000d517          	auipc	x10,0xd
     1d0:	35f50513          	addi	x10,x10,863 # d52b <no_exception_handler_msg>
	jal ra, puts
     1d4:	1c3000ef          	jal	x1,b96 <puts>
	j __no_irq_handler
     1d8:	bfd5                	c.j	1cc <__no_irq_handler>

000001da <m_software_irq_handler>:

m_software_irq_handler:
	j __no_irq_handler
     1da:	bfcd                	c.j	1cc <__no_irq_handler>

000001dc <m_timer_irq_handler>:

m_timer_irq_handler:
	j __no_irq_handler
     1dc:	bfc5                	c.j	1cc <__no_irq_handler>

000001de <m_external_irq_handler>:

m_external_irq_handler:
	j __no_irq_handler
     1de:	b7fd                	c.j	1cc <__no_irq_handler>

000001e0 <m_fast0_irq_handler>:

m_fast0_irq_handler:
	j __no_irq_handler
     1e0:	b7f5                	c.j	1cc <__no_irq_handler>

000001e2 <m_fast1_irq_handler>:

m_fast1_irq_handler:
	j __no_irq_handler
     1e2:	b7ed                	c.j	1cc <__no_irq_handler>

000001e4 <m_fast2_irq_handler>:

m_fast2_irq_handler:
	j __no_irq_handler
     1e4:	b7e5                	c.j	1cc <__no_irq_handler>

000001e6 <m_fast3_irq_handler>:

m_fast3_irq_handler:
	j __no_irq_handler
     1e6:	b7dd                	c.j	1cc <__no_irq_handler>

000001e8 <m_fast4_irq_handler>:

m_fast4_irq_handler:
	j __no_irq_handler
     1e8:	b7d5                	c.j	1cc <__no_irq_handler>

000001ea <m_fast5_irq_handler>:

m_fast5_irq_handler:
	j __no_irq_handler
     1ea:	b7cd                	c.j	1cc <__no_irq_handler>

000001ec <m_fast6_irq_handler>:

m_fast6_irq_handler:
	j __no_irq_handler
     1ec:	b7c5                	c.j	1cc <__no_irq_handler>

000001ee <m_fast7_irq_handler>:

m_fast7_irq_handler:
	j __no_irq_handler
     1ee:	bff9                	c.j	1cc <__no_irq_handler>

000001f0 <m_fast8_irq_handler>:

m_fast8_irq_handler:
	j __no_irq_handler
     1f0:	bff1                	c.j	1cc <__no_irq_handler>

000001f2 <m_fast9_irq_handler>:

m_fast9_irq_handler:
	j __no_irq_handler
     1f2:	bfe9                	c.j	1cc <__no_irq_handler>

000001f4 <m_fast10_irq_handler>:

m_fast10_irq_handler:
	j __no_irq_handler
     1f4:	bfe1                	c.j	1cc <__no_irq_handler>

000001f6 <m_fast11_irq_handler>:

m_fast11_irq_handler:
	j __no_irq_handler
     1f6:	bfd9                	c.j	1cc <__no_irq_handler>

000001f8 <m_fast12_irq_handler>:

m_fast12_irq_handler:
	j __no_irq_handler
     1f8:	bfd1                	c.j	1cc <__no_irq_handler>

000001fa <m_fast13_irq_handler>:

m_fast13_irq_handler:
	j __no_irq_handler
     1fa:	bfc9                	c.j	1cc <__no_irq_handler>

000001fc <m_fast14_irq_handler>:

m_fast14_irq_handler:
	j __no_irq_handler
     1fc:	bfc1                	c.j	1cc <__no_irq_handler>

000001fe <m_fast15_irq_handler>:

m_fast15_irq_handler:
	j __no_irq_handler
     1fe:	b7f9                	c.j	1cc <__no_irq_handler>

00000200 <u_sw_irq_handler>:

u_sw_irq_handler:
	/* While we are still using puts in handlers, save all caller saved
	   regs.  Eventually, some of these saves could be deferred.  */
	addi sp,sp,-64
     200:	7139                	c.addi16sp	x2,-64
	sw ra, 0(sp)
     202:	c006                	c.swsp	x1,0(x2)
	sw a0, 4(sp)
     204:	c22a                	c.swsp	x10,4(x2)
	sw a1, 8(sp)
     206:	c42e                	c.swsp	x11,8(x2)
	sw a2, 12(sp)
     208:	c632                	c.swsp	x12,12(x2)
	sw a3, 16(sp)
     20a:	c836                	c.swsp	x13,16(x2)
	sw a4, 20(sp)
     20c:	ca3a                	c.swsp	x14,20(x2)
	sw a5, 24(sp)
     20e:	cc3e                	c.swsp	x15,24(x2)
	sw a6, 28(sp)
     210:	ce42                	c.swsp	x16,28(x2)
	sw a7, 32(sp)
     212:	d046                	c.swsp	x17,32(x2)
	sw t0, 36(sp)
     214:	d216                	c.swsp	x5,36(x2)
	sw t1, 40(sp)
     216:	d41a                	c.swsp	x6,40(x2)
	sw t2, 44(sp)
     218:	d61e                	c.swsp	x7,44(x2)
	sw t3, 48(sp)
     21a:	d872                	c.swsp	x28,48(x2)
	sw t4, 52(sp)
     21c:	da76                	c.swsp	x29,52(x2)
	sw t5, 56(sp)
     21e:	dc7a                	c.swsp	x30,56(x2)
	sw t6, 60(sp)
     220:	de7e                	c.swsp	x31,60(x2)
	csrr t0, mcause
     222:	342022f3          	csrrs	x5,mcause,x0
	li t1, EXCEPTION_ILLEGAL_INSN
     226:	4309                	c.li	x6,2
	beq t0, t1, handle_illegal_insn
     228:	02628363          	beq	x5,x6,24e <handle_illegal_insn>
	li t1, EXCEPTION_ECALL_M
     22c:	432d                	c.li	x6,11
	beq t0, t1, handle_ecall
     22e:	00628663          	beq	x5,x6,23a <handle_ecall>
	li t1, EXCEPTION_BREAKPOINT
     232:	430d                	c.li	x6,3
	beq t0, t1, handle_ebreak
     234:	00628663          	beq	x5,x6,240 <handle_ebreak>
	j handle_unknown
     238:	a015                	c.j	25c <handle_unknown>

0000023a <handle_ecall>:

handle_ecall:
	jal ra, handle_syscall
     23a:	204000ef          	jal	x1,43e <handle_syscall>
	j end_handler_incr_mepc
     23e:	a035                	c.j	26a <end_handler_incr_mepc>

00000240 <handle_ebreak>:

handle_ebreak:
	/* TODO support debug handling requirements.  */
	la a0, ebreak_msg
     240:	0000d517          	auipc	x10,0xd
     244:	28a50513          	addi	x10,x10,650 # d4ca <ebreak_msg>
	jal ra, puts
     248:	14f000ef          	jal	x1,b96 <puts>
	j end_handler_incr_mepc
     24c:	a839                	c.j	26a <end_handler_incr_mepc>

0000024e <handle_illegal_insn>:

handle_illegal_insn:
	la a0, illegal_insn_msg
     24e:	0000d517          	auipc	x10,0xd
     252:	21050513          	addi	x10,x10,528 # d45e <illegal_insn_msg>
	jal ra, puts
     256:	141000ef          	jal	x1,b96 <puts>
	j end_handler_incr_mepc
     25a:	a801                	c.j	26a <end_handler_incr_mepc>

0000025c <handle_unknown>:

handle_unknown:
	la a0, unknown_msg
     25c:	0000d517          	auipc	x10,0xd
     260:	29e50513          	addi	x10,x10,670 # d4fa <unknown_msg>
	jal ra, puts
     264:	133000ef          	jal	x1,b96 <puts>
	/* We don't know what interrupt/exception is being handled, so don't
	   increment mepc.  */
	j end_handler_ret
     268:	a831                	c.j	284 <end_handler_ret>

0000026a <end_handler_incr_mepc>:

end_handler_incr_mepc:
	csrr t0, mepc
     26a:	341022f3          	csrrs	x5,mepc,x0
	lb t1, 0(t0)
     26e:	00028303          	lb	x6,0(x5)
	li a0, 0x3
     272:	450d                	c.li	x10,3
	and t1, t1, a0
     274:	00a37333          	and	x6,x6,x10
	/* Increment mepc by 2 or 4 depending on whether the instruction at mepc
	   is compressed or not.  */
	bne t1, a0, end_handler_incr_mepc2
     278:	00a31363          	bne	x6,x10,27e <end_handler_incr_mepc2>
	addi t0, t0, 2
     27c:	0289                	c.addi	x5,2

0000027e <end_handler_incr_mepc2>:
end_handler_incr_mepc2:
	addi t0, t0, 2
     27e:	0289                	c.addi	x5,2
	csrw mepc, t0
     280:	34129073          	csrrw	x0,mepc,x5

00000284 <end_handler_ret>:
end_handler_ret:
	lw ra, 0(sp)
     284:	4082                	c.lwsp	x1,0(x2)
	lw a0, 4(sp)
     286:	4512                	c.lwsp	x10,4(x2)
	lw a1, 8(sp)
     288:	45a2                	c.lwsp	x11,8(x2)
	lw a2, 12(sp)
     28a:	4632                	c.lwsp	x12,12(x2)
	lw a3, 16(sp)
     28c:	46c2                	c.lwsp	x13,16(x2)
	lw a4, 20(sp)
     28e:	4752                	c.lwsp	x14,20(x2)
	lw a5, 24(sp)
     290:	47e2                	c.lwsp	x15,24(x2)
	lw a6, 28(sp)
     292:	4872                	c.lwsp	x16,28(x2)
	lw a7, 32(sp)
     294:	5882                	c.lwsp	x17,32(x2)
	lw t0, 36(sp)
     296:	5292                	c.lwsp	x5,36(x2)
	lw t1, 40(sp)
     298:	5322                	c.lwsp	x6,40(x2)
	lw t2, 44(sp)
     29a:	53b2                	c.lwsp	x7,44(x2)
	lw t3, 48(sp)
     29c:	5e42                	c.lwsp	x28,48(x2)
	lw t4, 52(sp)
     29e:	5ed2                	c.lwsp	x29,52(x2)
	lw t5, 56(sp)
     2a0:	5f62                	c.lwsp	x30,56(x2)
	lw t6, 60(sp)
     2a2:	5ff2                	c.lwsp	x31,60(x2)
	addi sp,sp,64
     2a4:	6121                	c.addi16sp	x2,64
	mret
     2a6:	30200073          	mret

000002aa <__syscall_error>:
#endif
/* Upstream newlib now defines this in libgloss/riscv/internal_syscall.h.  */
long
__syscall_error(long a0)
{
  errno = -a0;
     2aa:	40a00533          	sub	x10,x0,x10
     2ae:	f0a1ac23          	sw	x10,-232(x3) # e4a0 <errno>
  return -1;
}
     2b2:	557d                	c.li	x10,-1
     2b4:	8082                	c.jr	x1

000002b6 <unimplemented_syscall>:

void unimplemented_syscall()
{
  const char *p = "BSP: Unimplemented system call called!\n";
     2b6:	67b5                	c.lui	x15,0xd
     2b8:	31878793          	addi	x15,x15,792 # d318 <__clzsi2+0x2de>
  while (*p)
    *(volatile int *)STDOUT_REG = *(p++);
     2bc:	100006b7          	lui	x13,0x10000
  while (*p)
     2c0:	0007c703          	lbu	x14,0(x15)
     2c4:	e311                	c.bnez	x14,2c8 <unimplemented_syscall+0x12>
}
     2c6:	8082                	c.jr	x1
    *(volatile int *)STDOUT_REG = *(p++);
     2c8:	0785                	c.addi	x15,1
     2ca:	c298                	c.sw	x14,0(x13)
     2cc:	bfd5                	c.j	2c0 <unimplemented_syscall+0xa>

000002ce <nanosleep>:

int nanosleep(const struct timespec *rqtp, struct timespec *rmtp)
{
  errno = ENOSYS;
     2ce:	05800713          	addi	x14,x0,88
     2d2:	f0e1ac23          	sw	x14,-232(x3) # e4a0 <errno>
  return -1;
}
     2d6:	557d                	c.li	x10,-1
     2d8:	8082                	c.jr	x1

000002da <_access>:

int _access(const char *file, int mode)
{
  errno = ENOSYS;
     2da:	05800713          	addi	x14,x0,88
     2de:	f0e1ac23          	sw	x14,-232(x3) # e4a0 <errno>
  return -1;
}
     2e2:	557d                	c.li	x10,-1
     2e4:	8082                	c.jr	x1

000002e6 <_chdir>:

int _chdir(const char *path)
{
  errno = ENOSYS;
     2e6:	05800713          	addi	x14,x0,88
     2ea:	f0e1ac23          	sw	x14,-232(x3) # e4a0 <errno>
  return -1;
}
     2ee:	557d                	c.li	x10,-1
     2f0:	8082                	c.jr	x1

000002f2 <_chmod>:

int _chmod(const char *path, mode_t mode)
{
  errno = ENOSYS;
     2f2:	05800713          	addi	x14,x0,88
     2f6:	f0e1ac23          	sw	x14,-232(x3) # e4a0 <errno>
  return -1;
}
     2fa:	557d                	c.li	x10,-1
     2fc:	8082                	c.jr	x1

000002fe <_chown>:

int _chown(const char *path, uid_t owner, gid_t group)
{
  errno = ENOSYS;
     2fe:	05800713          	addi	x14,x0,88
     302:	f0e1ac23          	sw	x14,-232(x3) # e4a0 <errno>
  return -1;
}
     306:	557d                	c.li	x10,-1
     308:	8082                	c.jr	x1

0000030a <_close>:

int _close(int file)
{
  return -1;
}
     30a:	557d                	c.li	x10,-1
     30c:	8082                	c.jr	x1

0000030e <_execve>:

int _execve(const char *name, char *const argv[], char *const env[])
{
  errno = ENOMEM;
     30e:	4731                	c.li	x14,12
     310:	f0e1ac23          	sw	x14,-232(x3) # e4a0 <errno>
  return -1;
}
     314:	557d                	c.li	x10,-1
     316:	8082                	c.jr	x1

00000318 <_exit>:

void _exit(int exit_status)
{
  *(volatile int *)EXIT_REG = exit_status;
     318:	200007b7          	lui	x15,0x20000
     31c:	c3c8                	c.sw	x10,4(x15)
  asm volatile("wfi");
     31e:	10500073          	wfi
  /* _exit should not return */
  while (1) {};
     322:	a001                	c.j	322 <_exit+0xa>

00000324 <_faccessat>:
}

int _faccessat(int dirfd, const char *file, int mode, int flags)
{
  errno = ENOSYS;
     324:	05800713          	addi	x14,x0,88
     328:	f0e1ac23          	sw	x14,-232(x3) # e4a0 <errno>
  return -1;
}
     32c:	557d                	c.li	x10,-1
     32e:	8082                	c.jr	x1

00000330 <_fork>:

int _fork(void)
{
  errno = EAGAIN;
     330:	472d                	c.li	x14,11
     332:	f0e1ac23          	sw	x14,-232(x3) # e4a0 <errno>
  return -1;
}
     336:	557d                	c.li	x10,-1
     338:	8082                	c.jr	x1

0000033a <_fstat>:

int _fstat(int file, struct stat *st)
{
  st->st_mode = S_IFCHR;
     33a:	6789                	c.lui	x15,0x2
     33c:	c1dc                	c.sw	x15,4(x11)
  return 0;
  // errno = -ENOSYS;
  // return -1;
}
     33e:	4501                	c.li	x10,0
     340:	8082                	c.jr	x1

00000342 <_fstatat>:

int _fstatat(int dirfd, const char *file, struct stat *st, int flags)
{
  errno = ENOSYS;
     342:	05800713          	addi	x14,x0,88
     346:	f0e1ac23          	sw	x14,-232(x3) # e4a0 <errno>
  return -1;
}
     34a:	557d                	c.li	x10,-1
     34c:	8082                	c.jr	x1

0000034e <_ftime>:

int _ftime(struct timeb *tp)
     34e:	05800713          	addi	x14,x0,88
     352:	f0e1ac23          	sw	x14,-232(x3) # e4a0 <errno>
     356:	557d                	c.li	x10,-1
     358:	8082                	c.jr	x1

0000035a <_getcwd>:
  return -1;
}

char *_getcwd(char *buf, size_t size)
{
  errno = -ENOSYS;
     35a:	fa800713          	addi	x14,x0,-88
     35e:	f0e1ac23          	sw	x14,-232(x3) # e4a0 <errno>
  return NULL;
}
     362:	4501                	c.li	x10,0
     364:	8082                	c.jr	x1

00000366 <_getpid>:

int _getpid()
{
  return 1;
}
     366:	4505                	c.li	x10,1
     368:	8082                	c.jr	x1

0000036a <_gettimeofday>:

int _gettimeofday(struct timeval *tp, void *tzp)
{
  errno = -ENOSYS;
     36a:	fa800713          	addi	x14,x0,-88
     36e:	f0e1ac23          	sw	x14,-232(x3) # e4a0 <errno>
  return -1;
}
     372:	557d                	c.li	x10,-1
     374:	8082                	c.jr	x1

00000376 <_isatty>:

int _isatty(int file)
{
  return (file == STDOUT_FILENO);
     376:	157d                	c.addi	x10,-1
}
     378:	00153513          	sltiu	x10,x10,1
     37c:	8082                	c.jr	x1

0000037e <_kill>:

int _kill(int pid, int sig)
{
  errno = EINVAL;
     37e:	4759                	c.li	x14,22
     380:	f0e1ac23          	sw	x14,-232(x3) # e4a0 <errno>
  return -1;
}
     384:	557d                	c.li	x10,-1
     386:	8082                	c.jr	x1

00000388 <_link>:

int _link(const char *old_name, const char *new_name)
{
  errno = EMLINK;
     388:	477d                	c.li	x14,31
     38a:	f0e1ac23          	sw	x14,-232(x3) # e4a0 <errno>
  return -1;
}
     38e:	557d                	c.li	x10,-1
     390:	8082                	c.jr	x1

00000392 <_lseek>:

off_t _lseek(int file, off_t ptr, int dir)
{
  return 0;
}
     392:	4501                	c.li	x10,0
     394:	8082                	c.jr	x1

00000396 <_lstat>:

int _lstat(const char *file, struct stat *st)
     396:	05800713          	addi	x14,x0,88
     39a:	f0e1ac23          	sw	x14,-232(x3) # e4a0 <errno>
     39e:	557d                	c.li	x10,-1
     3a0:	8082                	c.jr	x1

000003a2 <_open>:
}

int _open(const char *name, int flags, int mode)
{
  return -1;
}
     3a2:	557d                	c.li	x10,-1
     3a4:	8082                	c.jr	x1

000003a6 <_openat>:

int _openat(int dirfd, const char *name, int flags, int mode)
     3a6:	05800713          	addi	x14,x0,88
     3aa:	f0e1ac23          	sw	x14,-232(x3) # e4a0 <errno>
     3ae:	557d                	c.li	x10,-1
     3b0:	8082                	c.jr	x1

000003b2 <_read>:
}

ssize_t _read(int file, void *ptr, size_t len)
{
  return 0;
}
     3b2:	4501                	c.li	x10,0
     3b4:	8082                	c.jr	x1

000003b6 <_stat>:

int _stat(const char *file, struct stat *st)
{
  st->st_mode = S_IFCHR;
     3b6:	6789                	c.lui	x15,0x2
     3b8:	c1dc                	c.sw	x15,4(x11)
  return 0;
  // errno = ENOSYS;
  // return -1;
}
     3ba:	4501                	c.li	x10,0
     3bc:	8082                	c.jr	x1

000003be <_sysconf>:

long _sysconf(int name)
     3be:	557d                	c.li	x10,-1
     3c0:	8082                	c.jr	x1

000003c2 <_times>:
}

clock_t _times(struct tms *buf)
{
  return -1;
}
     3c2:	557d                	c.li	x10,-1
     3c4:	8082                	c.jr	x1

000003c6 <_unlink>:

int _unlink(const char *name)
{
  errno = ENOENT;
     3c6:	4709                	c.li	x14,2
     3c8:	f0e1ac23          	sw	x14,-232(x3) # e4a0 <errno>
  return -1;
}
     3cc:	557d                	c.li	x10,-1
     3ce:	8082                	c.jr	x1

000003d0 <_utime>:

int _utime(const char *path, const struct utimbuf *times)
     3d0:	05800713          	addi	x14,x0,88
     3d4:	f0e1ac23          	sw	x14,-232(x3) # e4a0 <errno>
     3d8:	557d                	c.li	x10,-1
     3da:	8082                	c.jr	x1

000003dc <_wait>:
  return -1;
}

int _wait(int *status)
{
  errno = ECHILD;
     3dc:	4729                	c.li	x14,10
     3de:	f0e1ac23          	sw	x14,-232(x3) # e4a0 <errno>
  return -1;
}
     3e2:	557d                	c.li	x10,-1
     3e4:	8082                	c.jr	x1

000003e6 <_write>:

ssize_t _write(int file, const void *ptr, size_t len)
{
  const char *cptr = (char *)ptr;
  if (file != STDOUT_FILENO)
     3e6:	4685                	c.li	x13,1
    {
      errno = ENOSYS;
      return -1;
    }

  const void *eptr = cptr + len;
     3e8:	00c587b3          	add	x15,x11,x12
  while (cptr != eptr)
    *(volatile int *)STDOUT_REG = *cptr++;
     3ec:	10000737          	lui	x14,0x10000
  if (file != STDOUT_FILENO)
     3f0:	00d50c63          	beq	x10,x13,408 <_write+0x22>
      errno = ENOSYS;
     3f4:	05800713          	addi	x14,x0,88
     3f8:	f0e1ac23          	sw	x14,-232(x3) # e4a0 <errno>
      return -1;
     3fc:	557d                	c.li	x10,-1
     3fe:	8082                	c.jr	x1
    *(volatile int *)STDOUT_REG = *cptr++;
     400:	0005c683          	lbu	x13,0(x11)
     404:	0585                	c.addi	x11,1
     406:	c314                	c.sw	x13,0(x14)
  while (cptr != eptr)
     408:	fef59ce3          	bne	x11,x15,400 <_write+0x1a>
  return len;
     40c:	8532                	c.mv	x10,x12
}
     40e:	8082                	c.jr	x1

00000410 <_brk>:
extern char __heap_end[];
static char *brk = __heap_start;

int _brk(void *addr)
{
  brk = addr;
     410:	f0a1a423          	sw	x10,-248(x3) # e490 <brk>
  return 0;
}
     414:	4501                	c.li	x10,0
     416:	8082                	c.jr	x1

00000418 <_sbrk>:

void *_sbrk(ptrdiff_t incr)
{
     418:	87aa                	c.mv	x15,x10
  char *old_brk = brk;
     41a:	f081a503          	lw	x10,-248(x3) # e490 <brk>
  register long sp asm("sp");

  char *new_brk = brk += incr;
     41e:	97aa                	c.add	x15,x10
     420:	f0f1a423          	sw	x15,-248(x3) # e490 <brk>
  if (new_brk < (char *) sp && new_brk < __heap_end)
     424:	0027f863          	bgeu	x15,x2,434 <_sbrk+0x1c>
     428:	00400737          	lui	x14,0x400
     42c:	00070713          	addi	x14,x14,0 # 400000 <__heap_end>
     430:	00e7e663          	bltu	x15,x14,43c <_sbrk+0x24>

      return old_brk;
    }
  else
    {
      errno = ENOMEM;
     434:	4731                	c.li	x14,12
     436:	f0e1ac23          	sw	x14,-232(x3) # e4a0 <errno>
      return (void *) -1;
     43a:	557d                	c.li	x10,-1
    }
}
     43c:	8082                	c.jr	x1

0000043e <handle_syscall>:
    register long syscall_id asm("t0");
  #else
    long syscall_id = a7;
  #endif

  switch (syscall_id) {
     43e:	08100793          	addi	x15,x0,129
     442:	0af88c63          	beq	x17,x15,4fa <handle_syscall+0xbc>
     446:	0717c763          	blt	x15,x17,4b4 <handle_syscall+0x76>
     44a:	04000793          	addi	x15,x0,64
     44e:	0517c663          	blt	x15,x17,49a <handle_syscall+0x5c>
     452:	02f00793          	addi	x15,x0,47
     456:	0317c563          	blt	x15,x17,480 <handle_syscall+0x42>
     45a:	47c5                	c.li	x15,17
     45c:	04f89b63          	bne	x17,x15,4b2 <handle_syscall+0x74>
  errno = -ENOSYS;
     460:	fa800713          	addi	x14,x0,-88
     464:	a861                	c.j	4fc <handle_syscall+0xbe>
  switch (syscall_id) {
     466:	c0088893          	addi	x17,x17,-1024
     46a:	47bd                	c.li	x15,15
     46c:	0517e363          	bltu	x15,x17,4b2 <handle_syscall+0x74>
     470:	67b5                	c.lui	x15,0xd
     472:	55c78793          	addi	x15,x15,1372 # d55c <no_exception_handler_msg+0x31>
     476:	088a                	c.slli	x17,0x2
     478:	98be                	c.add	x17,x15
     47a:	0008a783          	lw	x15,0(x17)
     47e:	8782                	c.jr	x15
     480:	fd088893          	addi	x17,x17,-48
     484:	47c1                	c.li	x15,16
     486:	0317e663          	bltu	x15,x17,4b2 <handle_syscall+0x74>
     48a:	67b5                	c.lui	x15,0xd
     48c:	59c78793          	addi	x15,x15,1436 # d59c <no_exception_handler_msg+0x71>
     490:	088a                	c.slli	x17,0x2
     492:	98be                	c.add	x17,x15
     494:	0008a783          	lw	x15,0(x17)
     498:	8782                	c.jr	x15
     49a:	05000793          	addi	x15,x0,80
     49e:	06f88963          	beq	x17,x15,510 <handle_syscall+0xd2>
     4a2:	05d00793          	addi	x15,x0,93
     4a6:	04f88363          	beq	x17,x15,4ec <handle_syscall+0xae>
     4aa:	04f00793          	addi	x15,x0,79
     4ae:	04f88a63          	beq	x17,x15,502 <handle_syscall+0xc4>
      break;
    case SYS_times:
      _times ((struct tms *) a0);
      break;
    default:
      unimplemented_syscall ();
     4b2:	b511                	c.j	2b6 <unimplemented_syscall>
  switch (syscall_id) {
     4b4:	40f00793          	addi	x15,x0,1039
     4b8:	ff17cde3          	blt	x15,x17,4b2 <handle_syscall+0x74>
     4bc:	3ff00793          	addi	x15,x0,1023
     4c0:	fb17c3e3          	blt	x15,x17,466 <handle_syscall+0x28>
     4c4:	0ac00793          	addi	x15,x0,172
     4c8:	04f88763          	beq	x17,x15,516 <handle_syscall+0xd8>
     4cc:	0117c963          	blt	x15,x17,4de <handle_syscall+0xa0>
     4d0:	09900793          	addi	x15,x0,153
     4d4:	04f88163          	beq	x17,x15,516 <handle_syscall+0xd8>
     4d8:	0a900793          	addi	x15,x0,169
     4dc:	b741                	c.j	45c <handle_syscall+0x1e>
     4de:	0d600793          	addi	x15,x0,214
     4e2:	fcf898e3          	bne	x17,x15,4b2 <handle_syscall+0x74>
  brk = addr;
     4e6:	f0a1a423          	sw	x10,-248(x3) # e490 <brk>
  return 0;
     4ea:	8082                	c.jr	x1
  *(volatile int *)EXIT_REG = exit_status;
     4ec:	200007b7          	lui	x15,0x20000
     4f0:	c3c8                	c.sw	x10,4(x15)
  asm volatile("wfi");
     4f2:	10500073          	wfi
  while (1) {};
     4f6:	a001                	c.j	4f6 <handle_syscall+0xb8>
      _write (a0, (const void *) a1, a2);
     4f8:	b5fd                	c.j	3e6 <_write>
  errno = EINVAL;
     4fa:	4759                	c.li	x14,22
  errno = ENOSYS;
     4fc:	f0e1ac23          	sw	x14,-232(x3) # e4a0 <errno>
  return -1;
     500:	8082                	c.jr	x1
  errno = ENOSYS;
     502:	05800713          	addi	x14,x0,88
     506:	bfdd                	c.j	4fc <handle_syscall+0xbe>
  errno = EMLINK;
     508:	477d                	c.li	x14,31
     50a:	bfcd                	c.j	4fc <handle_syscall+0xbe>
  errno = ENOENT;
     50c:	4709                	c.li	x14,2
     50e:	b7fd                	c.j	4fc <handle_syscall+0xbe>
  st->st_mode = S_IFCHR;
     510:	6789                	c.lui	x15,0x2
     512:	c1dc                	c.sw	x15,4(x11)
  return 0;
     514:	8082                	c.jr	x1
      break;
  }
}
     516:	8082                	c.jr	x1

00000518 <_putchar_r>:
     518:	4510                	c.lw	x12,8(x10)
     51a:	a039                	c.j	528 <_putc_r>

0000051c <putchar>:
     51c:	f0c1a783          	lw	x15,-244(x3) # e494 <_impure_ptr>
     520:	85aa                	c.mv	x11,x10
     522:	4790                	c.lw	x12,8(x15)
     524:	853e                	c.mv	x10,x15
     526:	a009                	c.j	528 <_putc_r>

00000528 <_putc_r>:
     528:	1101                	c.addi	x2,-32
     52a:	cc22                	c.swsp	x8,24(x2)
     52c:	ce06                	c.swsp	x1,28(x2)
     52e:	842a                	c.mv	x8,x10
     530:	c119                	c.beqz	x10,536 <_putc_r+0xe>
     532:	595c                	c.lw	x15,52(x10)
     534:	cf9d                	c.beqz	x15,572 <_putc_r+0x4a>
     536:	461c                	c.lw	x15,8(x12)
     538:	17fd                	c.addi	x15,-1 # 1fff <_vfprintf_r+0xf11>
     53a:	c61c                	c.sw	x15,8(x12)
     53c:	0007da63          	bge	x15,x0,550 <_putc_r+0x28>
     540:	4e18                	c.lw	x14,24(x12)
     542:	02e7c363          	blt	x15,x14,568 <_putc_r+0x40>
     546:	0ff5f793          	andi	x15,x11,255
     54a:	4729                	c.li	x14,10
     54c:	00e78e63          	beq	x15,x14,568 <_putc_r+0x40>
     550:	421c                	c.lw	x15,0(x12)
     552:	00178713          	addi	x14,x15,1
     556:	c218                	c.sw	x14,0(x12)
     558:	00b78023          	sb	x11,0(x15)
     55c:	40f2                	c.lwsp	x1,28(x2)
     55e:	4462                	c.lwsp	x8,24(x2)
     560:	0ff5f513          	andi	x10,x11,255
     564:	6105                	c.addi16sp	x2,32
     566:	8082                	c.jr	x1
     568:	8522                	c.mv	x10,x8
     56a:	4462                	c.lwsp	x8,24(x2)
     56c:	40f2                	c.lwsp	x1,28(x2)
     56e:	6105                	c.addi16sp	x2,32
     570:	a431                	c.j	77c <__swbuf_r>
     572:	c632                	c.swsp	x12,12(x2)
     574:	c42e                	c.swsp	x11,8(x2)
     576:	2bb9                	c.jal	ad4 <__sinit>
     578:	4632                	c.lwsp	x12,12(x2)
     57a:	45a2                	c.lwsp	x11,8(x2)
     57c:	bf6d                	c.j	536 <_putc_r+0xe>

0000057e <putc>:
     57e:	1101                	c.addi	x2,-32
     580:	ca4a                	c.swsp	x18,20(x2)
     582:	f0c1a903          	lw	x18,-244(x3) # e494 <_impure_ptr>
     586:	cc26                	c.swsp	x9,24(x2)
     588:	ce06                	c.swsp	x1,28(x2)
     58a:	84aa                	c.mv	x9,x10
     58c:	00090563          	beq	x18,x0,596 <putc+0x18>
     590:	03492783          	lw	x15,52(x18)
     594:	c3b9                	c.beqz	x15,5da <putc+0x5c>
     596:	459c                	c.lw	x15,8(x11)
     598:	17fd                	c.addi	x15,-1
     59a:	c59c                	c.sw	x15,8(x11)
     59c:	0007da63          	bge	x15,x0,5b0 <putc+0x32>
     5a0:	4d98                	c.lw	x14,24(x11)
     5a2:	02e7c463          	blt	x15,x14,5ca <putc+0x4c>
     5a6:	0ff4f793          	andi	x15,x9,255
     5aa:	4729                	c.li	x14,10
     5ac:	00e78f63          	beq	x15,x14,5ca <putc+0x4c>
     5b0:	419c                	c.lw	x15,0(x11)
     5b2:	00178713          	addi	x14,x15,1
     5b6:	c198                	c.sw	x14,0(x11)
     5b8:	00978023          	sb	x9,0(x15)
     5bc:	40f2                	c.lwsp	x1,28(x2)
     5be:	0ff4f513          	andi	x10,x9,255
     5c2:	4952                	c.lwsp	x18,20(x2)
     5c4:	44e2                	c.lwsp	x9,24(x2)
     5c6:	6105                	c.addi16sp	x2,32
     5c8:	8082                	c.jr	x1
     5ca:	40f2                	c.lwsp	x1,28(x2)
     5cc:	862e                	c.mv	x12,x11
     5ce:	854a                	c.mv	x10,x18
     5d0:	85a6                	c.mv	x11,x9
     5d2:	4952                	c.lwsp	x18,20(x2)
     5d4:	44e2                	c.lwsp	x9,24(x2)
     5d6:	6105                	c.addi16sp	x2,32
     5d8:	a255                	c.j	77c <__swbuf_r>
     5da:	854a                	c.mv	x10,x18
     5dc:	c62e                	c.swsp	x11,12(x2)
     5de:	29dd                	c.jal	ad4 <__sinit>
     5e0:	45b2                	c.lwsp	x11,12(x2)
     5e2:	bf55                	c.j	596 <putc+0x18>

000005e4 <memset>:
     5e4:	433d                	c.li	x6,15
     5e6:	872a                	c.mv	x14,x10
     5e8:	02c37363          	bgeu	x6,x12,60e <memset+0x2a>
     5ec:	00f77793          	andi	x15,x14,15
     5f0:	efbd                	c.bnez	x15,66e <memset+0x8a>
     5f2:	e5ad                	c.bnez	x11,65c <memset+0x78>
     5f4:	ff067693          	andi	x13,x12,-16
     5f8:	8a3d                	c.andi	x12,15
     5fa:	96ba                	c.add	x13,x14
     5fc:	c30c                	c.sw	x11,0(x14)
     5fe:	c34c                	c.sw	x11,4(x14)
     600:	c70c                	c.sw	x11,8(x14)
     602:	c74c                	c.sw	x11,12(x14)
     604:	0741                	c.addi	x14,16
     606:	fed76be3          	bltu	x14,x13,5fc <memset+0x18>
     60a:	e211                	c.bnez	x12,60e <memset+0x2a>
     60c:	8082                	c.jr	x1
     60e:	40c306b3          	sub	x13,x6,x12
     612:	068a                	c.slli	x13,0x2
     614:	00000297          	auipc	x5,0x0
     618:	9696                	c.add	x13,x5
     61a:	00a68067          	jalr	x0,10(x13) # 1000000a <__heap_end+0xfc0000a>
     61e:	00b70723          	sb	x11,14(x14)
     622:	00b706a3          	sb	x11,13(x14)
     626:	00b70623          	sb	x11,12(x14)
     62a:	00b705a3          	sb	x11,11(x14)
     62e:	00b70523          	sb	x11,10(x14)
     632:	00b704a3          	sb	x11,9(x14)
     636:	00b70423          	sb	x11,8(x14)
     63a:	00b703a3          	sb	x11,7(x14)
     63e:	00b70323          	sb	x11,6(x14)
     642:	00b702a3          	sb	x11,5(x14)
     646:	00b70223          	sb	x11,4(x14)
     64a:	00b701a3          	sb	x11,3(x14)
     64e:	00b70123          	sb	x11,2(x14)
     652:	00b700a3          	sb	x11,1(x14)
     656:	00b70023          	sb	x11,0(x14)
     65a:	8082                	c.jr	x1
     65c:	0ff5f593          	andi	x11,x11,255
     660:	00859693          	slli	x13,x11,0x8
     664:	8dd5                	c.or	x11,x13
     666:	01059693          	slli	x13,x11,0x10
     66a:	8dd5                	c.or	x11,x13
     66c:	b761                	c.j	5f4 <memset+0x10>
     66e:	00279693          	slli	x13,x15,0x2
     672:	00000297          	auipc	x5,0x0
     676:	9696                	c.add	x13,x5
     678:	8286                	c.mv	x5,x1
     67a:	fa8680e7          	jalr	x1,-88(x13)
     67e:	8096                	c.mv	x1,x5
     680:	17c1                	c.addi	x15,-16
     682:	8f1d                	c.sub	x14,x15
     684:	963e                	c.add	x12,x15
     686:	f8c374e3          	bgeu	x6,x12,60e <memset+0x2a>
     68a:	b7a5                	c.j	5f2 <memset+0xe>

0000068c <_reclaim_reent>:
     68c:	f0c1a783          	lw	x15,-244(x3) # e494 <_impure_ptr>
     690:	08a78063          	beq	x15,x10,710 <_reclaim_reent+0x84>
     694:	1101                	c.addi	x2,-32
     696:	ca26                	c.swsp	x9,20(x2)
     698:	ce06                	c.swsp	x1,28(x2)
     69a:	cc22                	c.swsp	x8,24(x2)
     69c:	416c                	c.lw	x11,68(x10)
     69e:	84aa                	c.mv	x9,x10
     6a0:	c98d                	c.beqz	x11,6d2 <_reclaim_reent+0x46>
     6a2:	c84a                	c.swsp	x18,16(x2)
     6a4:	c64e                	c.swsp	x19,12(x2)
     6a6:	4901                	c.li	x18,0
     6a8:	08000993          	addi	x19,x0,128
     6ac:	012587b3          	add	x15,x11,x18
     6b0:	4380                	c.lw	x8,0(x15)
     6b2:	c801                	c.beqz	x8,6c2 <_reclaim_reent+0x36>
     6b4:	85a2                	c.mv	x11,x8
     6b6:	8526                	c.mv	x10,x9
     6b8:	4000                	c.lw	x8,0(x8)
     6ba:	1e3030ef          	jal	x1,409c <_free_r>
     6be:	f87d                	c.bnez	x8,6b4 <_reclaim_reent+0x28>
     6c0:	40ec                	c.lw	x11,68(x9)
     6c2:	0911                	c.addi	x18,4
     6c4:	ff3914e3          	bne	x18,x19,6ac <_reclaim_reent+0x20>
     6c8:	8526                	c.mv	x10,x9
     6ca:	1d3030ef          	jal	x1,409c <_free_r>
     6ce:	4942                	c.lwsp	x18,16(x2)
     6d0:	49b2                	c.lwsp	x19,12(x2)
     6d2:	5c8c                	c.lw	x11,56(x9)
     6d4:	c581                	c.beqz	x11,6dc <_reclaim_reent+0x50>
     6d6:	8526                	c.mv	x10,x9
     6d8:	1c5030ef          	jal	x1,409c <_free_r>
     6dc:	40a0                	c.lw	x8,64(x9)
     6de:	c419                	c.beqz	x8,6ec <_reclaim_reent+0x60>
     6e0:	85a2                	c.mv	x11,x8
     6e2:	8526                	c.mv	x10,x9
     6e4:	4000                	c.lw	x8,0(x8)
     6e6:	1b7030ef          	jal	x1,409c <_free_r>
     6ea:	f87d                	c.bnez	x8,6e0 <_reclaim_reent+0x54>
     6ec:	44ec                	c.lw	x11,76(x9)
     6ee:	c581                	c.beqz	x11,6f6 <_reclaim_reent+0x6a>
     6f0:	8526                	c.mv	x10,x9
     6f2:	1ab030ef          	jal	x1,409c <_free_r>
     6f6:	58dc                	c.lw	x15,52(x9)
     6f8:	c799                	c.beqz	x15,706 <_reclaim_reent+0x7a>
     6fa:	4462                	c.lwsp	x8,24(x2)
     6fc:	40f2                	c.lwsp	x1,28(x2)
     6fe:	8526                	c.mv	x10,x9
     700:	44d2                	c.lwsp	x9,20(x2)
     702:	6105                	c.addi16sp	x2,32
     704:	8782                	c.jr	x15
     706:	40f2                	c.lwsp	x1,28(x2)
     708:	4462                	c.lwsp	x8,24(x2)
     70a:	44d2                	c.lwsp	x9,20(x2)
     70c:	6105                	c.addi16sp	x2,32
     70e:	8082                	c.jr	x1
     710:	8082                	c.jr	x1

00000712 <__libc_init_array>:
     712:	1141                	c.addi	x2,-16
     714:	c422                	c.swsp	x8,8(x2)
     716:	c04a                	c.swsp	x18,0(x2)
     718:	0000d797          	auipc	x15,0xd
     71c:	66878793          	addi	x15,x15,1640 # dd80 <__init_array_start>
     720:	0000d417          	auipc	x8,0xd
     724:	66040413          	addi	x8,x8,1632 # dd80 <__init_array_start>
     728:	c606                	c.swsp	x1,12(x2)
     72a:	c226                	c.swsp	x9,4(x2)
     72c:	40878933          	sub	x18,x15,x8
     730:	00878b63          	beq	x15,x8,746 <__libc_init_array+0x34>
     734:	40295913          	srai	x18,x18,0x2
     738:	4481                	c.li	x9,0
     73a:	401c                	c.lw	x15,0(x8)
     73c:	0485                	c.addi	x9,1
     73e:	9782                	c.jalr	x15
     740:	0411                	c.addi	x8,4
     742:	ff24ece3          	bltu	x9,x18,73a <__libc_init_array+0x28>
     746:	0000d797          	auipc	x15,0xd
     74a:	63e78793          	addi	x15,x15,1598 # dd84 <__fini_array_end>
     74e:	0000d417          	auipc	x8,0xd
     752:	63240413          	addi	x8,x8,1586 # dd80 <__init_array_start>
     756:	40878933          	sub	x18,x15,x8
     75a:	40295913          	srai	x18,x18,0x2
     75e:	00878963          	beq	x15,x8,770 <__libc_init_array+0x5e>
     762:	4481                	c.li	x9,0
     764:	401c                	c.lw	x15,0(x8)
     766:	0485                	c.addi	x9,1
     768:	9782                	c.jalr	x15
     76a:	0411                	c.addi	x8,4
     76c:	ff24ece3          	bltu	x9,x18,764 <__libc_init_array+0x52>
     770:	40b2                	c.lwsp	x1,12(x2)
     772:	4422                	c.lwsp	x8,8(x2)
     774:	4492                	c.lwsp	x9,4(x2)
     776:	4902                	c.lwsp	x18,0(x2)
     778:	0141                	c.addi	x2,16
     77a:	8082                	c.jr	x1

0000077c <__swbuf_r>:
     77c:	1101                	c.addi	x2,-32
     77e:	cc22                	c.swsp	x8,24(x2)
     780:	ca26                	c.swsp	x9,20(x2)
     782:	c84a                	c.swsp	x18,16(x2)
     784:	ce06                	c.swsp	x1,28(x2)
     786:	892a                	c.mv	x18,x10
     788:	84ae                	c.mv	x9,x11
     78a:	8432                	c.mv	x8,x12
     78c:	c119                	c.beqz	x10,792 <__swbuf_r+0x16>
     78e:	595c                	c.lw	x15,52(x10)
     790:	c7ed                	c.beqz	x15,87a <__swbuf_r+0xfe>
     792:	00c41783          	lh	x15,12(x8)
     796:	4c18                	c.lw	x14,24(x8)
     798:	c418                	c.sw	x14,8(x8)
     79a:	0087f713          	andi	x14,x15,8
     79e:	c725                	c.beqz	x14,806 <__swbuf_r+0x8a>
     7a0:	4818                	c.lw	x14,16(x8)
     7a2:	c335                	c.beqz	x14,806 <__swbuf_r+0x8a>
     7a4:	c64e                	c.swsp	x19,12(x2)
     7a6:	01279693          	slli	x13,x15,0x12
     7aa:	0ff4f993          	andi	x19,x9,255
     7ae:	5078                	c.lw	x14,100(x8)
     7b0:	0ff4f493          	andi	x9,x9,255
     7b4:	6609                	c.lui	x12,0x2
     7b6:	0606da63          	bge	x13,x0,82a <__swbuf_r+0xae>
     7ba:	01271793          	slli	x15,x14,0x12
     7be:	0a07cb63          	blt	x15,x0,874 <__swbuf_r+0xf8>
     7c2:	4018                	c.lw	x14,0(x8)
     7c4:	481c                	c.lw	x15,16(x8)
     7c6:	40f707b3          	sub	x15,x14,x15
     7ca:	4854                	c.lw	x13,20(x8)
     7cc:	06d7dd63          	bge	x15,x13,846 <__swbuf_r+0xca>
     7d0:	4414                	c.lw	x13,8(x8)
     7d2:	00170613          	addi	x12,x14,1
     7d6:	16fd                	c.addi	x13,-1
     7d8:	c414                	c.sw	x13,8(x8)
     7da:	c010                	c.sw	x12,0(x8)
     7dc:	01370023          	sb	x19,0(x14)
     7e0:	0785                	c.addi	x15,1
     7e2:	4858                	c.lw	x14,20(x8)
     7e4:	08f70363          	beq	x14,x15,86a <__swbuf_r+0xee>
     7e8:	00c45783          	lhu	x15,12(x8)
     7ec:	8b85                	c.andi	x15,1
     7ee:	c781                	c.beqz	x15,7f6 <__swbuf_r+0x7a>
     7f0:	47a9                	c.li	x15,10
     7f2:	06f48c63          	beq	x9,x15,86a <__swbuf_r+0xee>
     7f6:	49b2                	c.lwsp	x19,12(x2)
     7f8:	40f2                	c.lwsp	x1,28(x2)
     7fa:	4462                	c.lwsp	x8,24(x2)
     7fc:	8526                	c.mv	x10,x9
     7fe:	4942                	c.lwsp	x18,16(x2)
     800:	44d2                	c.lwsp	x9,20(x2)
     802:	6105                	c.addi16sp	x2,32
     804:	8082                	c.jr	x1
     806:	85a2                	c.mv	x11,x8
     808:	854a                	c.mv	x10,x18
     80a:	6aa030ef          	jal	x1,3eb4 <__swsetup_r>
     80e:	e525                	c.bnez	x10,876 <__swbuf_r+0xfa>
     810:	00c41783          	lh	x15,12(x8)
     814:	c64e                	c.swsp	x19,12(x2)
     816:	5078                	c.lw	x14,100(x8)
     818:	01279693          	slli	x13,x15,0x12
     81c:	0ff4f993          	andi	x19,x9,255
     820:	6609                	c.lui	x12,0x2
     822:	0ff4f493          	andi	x9,x9,255
     826:	f806cae3          	blt	x13,x0,7ba <__swbuf_r+0x3e>
     82a:	76f9                	c.lui	x13,0xffffe
     82c:	16fd                	c.addi	x13,-1 # ffffdfff <__heap_end+0xffbfdfff>
     82e:	8f75                	c.and	x14,x13
     830:	8fd1                	c.or	x15,x12
     832:	00f41623          	sh	x15,12(x8)
     836:	d078                	c.sw	x14,100(x8)
     838:	481c                	c.lw	x15,16(x8)
     83a:	4018                	c.lw	x14,0(x8)
     83c:	40f707b3          	sub	x15,x14,x15
     840:	4854                	c.lw	x13,20(x8)
     842:	f8d7c7e3          	blt	x15,x13,7d0 <__swbuf_r+0x54>
     846:	85a2                	c.mv	x11,x8
     848:	854a                	c.mv	x10,x18
     84a:	022030ef          	jal	x1,386c <_fflush_r>
     84e:	e11d                	c.bnez	x10,874 <__swbuf_r+0xf8>
     850:	4018                	c.lw	x14,0(x8)
     852:	4414                	c.lw	x13,8(x8)
     854:	00170613          	addi	x12,x14,1
     858:	16fd                	c.addi	x13,-1
     85a:	c414                	c.sw	x13,8(x8)
     85c:	c010                	c.sw	x12,0(x8)
     85e:	01370023          	sb	x19,0(x14)
     862:	4785                	c.li	x15,1
     864:	4858                	c.lw	x14,20(x8)
     866:	f8f711e3          	bne	x14,x15,7e8 <__swbuf_r+0x6c>
     86a:	85a2                	c.mv	x11,x8
     86c:	854a                	c.mv	x10,x18
     86e:	7ff020ef          	jal	x1,386c <_fflush_r>
     872:	d151                	c.beqz	x10,7f6 <__swbuf_r+0x7a>
     874:	49b2                	c.lwsp	x19,12(x2)
     876:	54fd                	c.li	x9,-1
     878:	b741                	c.j	7f8 <__swbuf_r+0x7c>
     87a:	2ca9                	c.jal	ad4 <__sinit>
     87c:	bf19                	c.j	792 <__swbuf_r+0x16>

0000087e <__swbuf>:
     87e:	87aa                	c.mv	x15,x10
     880:	f0c1a503          	lw	x10,-244(x3) # e494 <_impure_ptr>
     884:	862e                	c.mv	x12,x11
     886:	85be                	c.mv	x11,x15
     888:	bdd5                	c.j	77c <__swbuf_r>

0000088a <__fp_lock>:
     88a:	4501                	c.li	x10,0
     88c:	8082                	c.jr	x1

0000088e <stdio_exit_handler>:
     88e:	0000d617          	auipc	x12,0xd
     892:	4fa60613          	addi	x12,x12,1274 # dd88 <__sglue>
     896:	00004597          	auipc	x11,0x4
     89a:	a2c58593          	addi	x11,x11,-1492 # 42c2 <_fclose_r>
     89e:	0000d517          	auipc	x10,0xd
     8a2:	4fa50513          	addi	x10,x10,1274 # dd98 <_impure_data>
     8a6:	7d60006f          	jal	x0,107c <_fwalk_sglue>

000008aa <cleanup_stdio>:
     8aa:	1141                	c.addi	x2,-16
     8ac:	c422                	c.swsp	x8,8(x2)
     8ae:	c606                	c.swsp	x1,12(x2)
     8b0:	414c                	c.lw	x11,4(x10)
     8b2:	f3418793          	addi	x15,x3,-204 # e4bc <__sf>
     8b6:	842a                	c.mv	x8,x10
     8b8:	00f58463          	beq	x11,x15,8c0 <cleanup_stdio+0x16>
     8bc:	207030ef          	jal	x1,42c2 <_fclose_r>
     8c0:	440c                	c.lw	x11,8(x8)
     8c2:	f9c18793          	addi	x15,x3,-100 # e524 <__sf+0x68>
     8c6:	00f58563          	beq	x11,x15,8d0 <cleanup_stdio+0x26>
     8ca:	8522                	c.mv	x10,x8
     8cc:	1f7030ef          	jal	x1,42c2 <_fclose_r>
     8d0:	444c                	c.lw	x11,12(x8)
     8d2:	00418793          	addi	x15,x3,4 # e58c <__global_pointer$+0x4>
     8d6:	00f58863          	beq	x11,x15,8e6 <cleanup_stdio+0x3c>
     8da:	8522                	c.mv	x10,x8
     8dc:	4422                	c.lwsp	x8,8(x2)
     8de:	40b2                	c.lwsp	x1,12(x2)
     8e0:	0141                	c.addi	x2,16
     8e2:	1e10306f          	jal	x0,42c2 <_fclose_r>
     8e6:	40b2                	c.lwsp	x1,12(x2)
     8e8:	4422                	c.lwsp	x8,8(x2)
     8ea:	0141                	c.addi	x2,16
     8ec:	8082                	c.jr	x1

000008ee <__fp_unlock>:
     8ee:	4501                	c.li	x10,0
     8f0:	8082                	c.jr	x1

000008f2 <global_stdio_init.part.0>:
     8f2:	1101                	c.addi	x2,-32
     8f4:	ce06                	c.swsp	x1,28(x2)
     8f6:	cc22                	c.swsp	x8,24(x2)
     8f8:	ca26                	c.swsp	x9,20(x2)
     8fa:	f3418413          	addi	x8,x3,-204 # e4bc <__sf>
     8fe:	c84a                	c.swsp	x18,16(x2)
     900:	c64e                	c.swsp	x19,12(x2)
     902:	c452                	c.swsp	x20,8(x2)
     904:	00000717          	auipc	x14,0x0
     908:	f8a70713          	addi	x14,x14,-118 # 88e <stdio_exit_handler>
     90c:	4791                	c.li	x15,4
     90e:	4621                	c.li	x12,8
     910:	4581                	c.li	x11,0
     912:	f9018513          	addi	x10,x3,-112 # e518 <__sf+0x5c>
     916:	f0e1ae23          	sw	x14,-228(x3) # e4a4 <__stdio_exit_handler>
     91a:	c45c                	c.sw	x15,12(x8)
     91c:	00042023          	sw	x0,0(x8)
     920:	00042223          	sw	x0,4(x8)
     924:	00042423          	sw	x0,8(x8)
     928:	06042223          	sw	x0,100(x8)
     92c:	00042823          	sw	x0,16(x8)
     930:	00042a23          	sw	x0,20(x8)
     934:	00042c23          	sw	x0,24(x8)
     938:	3175                	c.jal	5e4 <memset>
     93a:	67c1                	c.lui	x15,0x10
     93c:	00005a17          	auipc	x20,0x5
     940:	0c2a0a13          	addi	x20,x20,194 # 59fe <__sread>
     944:	00005997          	auipc	x19,0x5
     948:	0f698993          	addi	x19,x19,246 # 5a3a <__swrite>
     94c:	00005917          	auipc	x18,0x5
     950:	14090913          	addi	x18,x18,320 # 5a8c <__sseek>
     954:	00005497          	auipc	x9,0x5
     958:	17648493          	addi	x9,x9,374 # 5aca <__sclose>
     95c:	07a5                	c.addi	x15,9 # 10009 <__heap_start+0x1859>
     95e:	4621                	c.li	x12,8
     960:	4581                	c.li	x11,0
     962:	ff818513          	addi	x10,x3,-8 # e580 <__sf+0xc4>
     966:	d87c                	c.sw	x15,116(x8)
     968:	03442023          	sw	x20,32(x8)
     96c:	03342223          	sw	x19,36(x8)
     970:	03242423          	sw	x18,40(x8)
     974:	d444                	c.sw	x9,44(x8)
     976:	cc40                	c.sw	x8,28(x8)
     978:	06042423          	sw	x0,104(x8)
     97c:	06042623          	sw	x0,108(x8)
     980:	06042823          	sw	x0,112(x8)
     984:	0c042623          	sw	x0,204(x8)
     988:	06042c23          	sw	x0,120(x8)
     98c:	06042e23          	sw	x0,124(x8)
     990:	08042023          	sw	x0,128(x8)
     994:	3981                	c.jal	5e4 <memset>
     996:	000207b7          	lui	x15,0x20
     99a:	07c9                	c.addi	x15,18 # 20012 <__heap_start+0x11862>
     99c:	f9c18713          	addi	x14,x3,-100 # e524 <__sf+0x68>
     9a0:	4621                	c.li	x12,8
     9a2:	4581                	c.li	x11,0
     9a4:	06018513          	addi	x10,x3,96 # e5e8 <__global_pointer$+0x60>
     9a8:	09442423          	sw	x20,136(x8)
     9ac:	09342623          	sw	x19,140(x8)
     9b0:	09242823          	sw	x18,144(x8)
     9b4:	08942a23          	sw	x9,148(x8)
     9b8:	0cf42e23          	sw	x15,220(x8)
     9bc:	0c042823          	sw	x0,208(x8)
     9c0:	0c042a23          	sw	x0,212(x8)
     9c4:	0c042c23          	sw	x0,216(x8)
     9c8:	12042a23          	sw	x0,308(x8)
     9cc:	0e042023          	sw	x0,224(x8)
     9d0:	0e042223          	sw	x0,228(x8)
     9d4:	0e042423          	sw	x0,232(x8)
     9d8:	08e42223          	sw	x14,132(x8)
     9dc:	3121                	c.jal	5e4 <memset>
     9de:	00418793          	addi	x15,x3,4 # e58c <__global_pointer$+0x4>
     9e2:	0f442823          	sw	x20,240(x8)
     9e6:	0f342a23          	sw	x19,244(x8)
     9ea:	0f242c23          	sw	x18,248(x8)
     9ee:	0e942e23          	sw	x9,252(x8)
     9f2:	0ef42623          	sw	x15,236(x8)
     9f6:	40f2                	c.lwsp	x1,28(x2)
     9f8:	4462                	c.lwsp	x8,24(x2)
     9fa:	44d2                	c.lwsp	x9,20(x2)
     9fc:	4942                	c.lwsp	x18,16(x2)
     9fe:	49b2                	c.lwsp	x19,12(x2)
     a00:	4a22                	c.lwsp	x20,8(x2)
     a02:	6105                	c.addi16sp	x2,32
     a04:	8082                	c.jr	x1

00000a06 <__sfp>:
     a06:	f1c1a783          	lw	x15,-228(x3) # e4a4 <__stdio_exit_handler>
     a0a:	1101                	c.addi	x2,-32
     a0c:	c64e                	c.swsp	x19,12(x2)
     a0e:	ce06                	c.swsp	x1,28(x2)
     a10:	cc22                	c.swsp	x8,24(x2)
     a12:	ca26                	c.swsp	x9,20(x2)
     a14:	c84a                	c.swsp	x18,16(x2)
     a16:	89aa                	c.mv	x19,x10
     a18:	c7d5                	c.beqz	x15,ac4 <__sfp+0xbe>
     a1a:	0000d917          	auipc	x18,0xd
     a1e:	36e90913          	addi	x18,x18,878 # dd88 <__sglue>
     a22:	54fd                	c.li	x9,-1
     a24:	00492783          	lw	x15,4(x18)
     a28:	17fd                	c.addi	x15,-1
     a2a:	00892403          	lw	x8,8(x18)
     a2e:	0007d763          	bge	x15,x0,a3c <__sfp+0x36>
     a32:	a8b9                	c.j	a90 <__sfp+0x8a>
     a34:	06840413          	addi	x8,x8,104
     a38:	04978c63          	beq	x15,x9,a90 <__sfp+0x8a>
     a3c:	00c41703          	lh	x14,12(x8)
     a40:	17fd                	c.addi	x15,-1
     a42:	fb6d                	c.bnez	x14,a34 <__sfp+0x2e>
     a44:	77c1                	c.lui	x15,0xffff0
     a46:	0785                	c.addi	x15,1 # ffff0001 <__heap_end+0xffbf0001>
     a48:	06042223          	sw	x0,100(x8)
     a4c:	00042023          	sw	x0,0(x8)
     a50:	00042423          	sw	x0,8(x8)
     a54:	00042223          	sw	x0,4(x8)
     a58:	00042823          	sw	x0,16(x8)
     a5c:	00042a23          	sw	x0,20(x8)
     a60:	00042c23          	sw	x0,24(x8)
     a64:	c45c                	c.sw	x15,12(x8)
     a66:	4621                	c.li	x12,8
     a68:	4581                	c.li	x11,0
     a6a:	05c40513          	addi	x10,x8,92
     a6e:	3e9d                	c.jal	5e4 <memset>
     a70:	02042823          	sw	x0,48(x8)
     a74:	02042a23          	sw	x0,52(x8)
     a78:	04042223          	sw	x0,68(x8)
     a7c:	04042423          	sw	x0,72(x8)
     a80:	8522                	c.mv	x10,x8
     a82:	40f2                	c.lwsp	x1,28(x2)
     a84:	4462                	c.lwsp	x8,24(x2)
     a86:	44d2                	c.lwsp	x9,20(x2)
     a88:	4942                	c.lwsp	x18,16(x2)
     a8a:	49b2                	c.lwsp	x19,12(x2)
     a8c:	6105                	c.addi16sp	x2,32
     a8e:	8082                	c.jr	x1
     a90:	00092403          	lw	x8,0(x18)
     a94:	c019                	c.beqz	x8,a9a <__sfp+0x94>
     a96:	8922                	c.mv	x18,x8
     a98:	b771                	c.j	a24 <__sfp+0x1e>
     a9a:	1ac00593          	addi	x11,x0,428
     a9e:	854e                	c.mv	x10,x19
     aa0:	659020ef          	jal	x1,38f8 <_malloc_r>
     aa4:	842a                	c.mv	x8,x10
     aa6:	c10d                	c.beqz	x10,ac8 <__sfp+0xc2>
     aa8:	4791                	c.li	x15,4
     aaa:	0531                	c.addi	x10,12
     aac:	00042023          	sw	x0,0(x8)
     ab0:	c05c                	c.sw	x15,4(x8)
     ab2:	c408                	c.sw	x10,8(x8)
     ab4:	1a000613          	addi	x12,x0,416
     ab8:	4581                	c.li	x11,0
     aba:	362d                	c.jal	5e4 <memset>
     abc:	00892023          	sw	x8,0(x18)
     ac0:	8922                	c.mv	x18,x8
     ac2:	b78d                	c.j	a24 <__sfp+0x1e>
     ac4:	353d                	c.jal	8f2 <global_stdio_init.part.0>
     ac6:	bf91                	c.j	a1a <__sfp+0x14>
     ac8:	00092023          	sw	x0,0(x18)
     acc:	47b1                	c.li	x15,12
     ace:	00f9a023          	sw	x15,0(x19)
     ad2:	b77d                	c.j	a80 <__sfp+0x7a>

00000ad4 <__sinit>:
     ad4:	595c                	c.lw	x15,52(x10)
     ad6:	c391                	c.beqz	x15,ada <__sinit+0x6>
     ad8:	8082                	c.jr	x1
     ada:	f1c1a783          	lw	x15,-228(x3) # e4a4 <__stdio_exit_handler>
     ade:	00000717          	auipc	x14,0x0
     ae2:	dcc70713          	addi	x14,x14,-564 # 8aa <cleanup_stdio>
     ae6:	d958                	c.sw	x14,52(x10)
     ae8:	fbe5                	c.bnez	x15,ad8 <__sinit+0x4>
     aea:	b521                	c.j	8f2 <global_stdio_init.part.0>

00000aec <__sfp_lock_acquire>:
     aec:	8082                	c.jr	x1

00000aee <__sfp_lock_release>:
     aee:	8082                	c.jr	x1

00000af0 <__fp_lock_all>:
     af0:	0000d617          	auipc	x12,0xd
     af4:	29860613          	addi	x12,x12,664 # dd88 <__sglue>
     af8:	00000597          	auipc	x11,0x0
     afc:	d9258593          	addi	x11,x11,-622 # 88a <__fp_lock>
     b00:	4501                	c.li	x10,0
     b02:	abad                	c.j	107c <_fwalk_sglue>

00000b04 <__fp_unlock_all>:
     b04:	0000d617          	auipc	x12,0xd
     b08:	28460613          	addi	x12,x12,644 # dd88 <__sglue>
     b0c:	00000597          	auipc	x11,0x0
     b10:	de258593          	addi	x11,x11,-542 # 8ee <__fp_unlock>
     b14:	4501                	c.li	x10,0
     b16:	a39d                	c.j	107c <_fwalk_sglue>

00000b18 <_puts_r>:
     b18:	7139                	c.addi16sp	x2,-64
     b1a:	dc22                	c.swsp	x8,56(x2)
     b1c:	842a                	c.mv	x8,x10
     b1e:	852e                	c.mv	x10,x11
     b20:	da26                	c.swsp	x9,52(x2)
     b22:	de06                	c.swsp	x1,60(x2)
     b24:	84ae                	c.mv	x9,x11
     b26:	296d                	c.jal	fe0 <strlen>
     b28:	00150593          	addi	x11,x10,1
     b2c:	4789                	c.li	x15,2
     b2e:	0000d617          	auipc	x12,0xd
     b32:	81260613          	addi	x12,x12,-2030 # d340 <__clzsi2+0x306>
     b36:	4685                	c.li	x13,1
     b38:	1018                	c.addi4spn	x14,x2,32
     b3a:	ce2e                	c.swsp	x11,28(x2)
     b3c:	cc3e                	c.swsp	x15,24(x2)
     b3e:	d026                	c.swsp	x9,32(x2)
     b40:	d22a                	c.swsp	x10,36(x2)
     b42:	d432                	c.swsp	x12,40(x2)
     b44:	d636                	c.swsp	x13,44(x2)
     b46:	ca3a                	c.swsp	x14,20(x2)
     b48:	585c                	c.lw	x15,52(x8)
     b4a:	440c                	c.lw	x11,8(x8)
     b4c:	c3a1                	c.beqz	x15,b8c <_puts_r+0x74>
     b4e:	00c59783          	lh	x15,12(x11)
     b52:	51f8                	c.lw	x14,100(x11)
     b54:	6609                	c.lui	x12,0x2
     b56:	01279693          	slli	x13,x15,0x12
     b5a:	0206c363          	blt	x13,x0,b80 <_puts_r+0x68>
     b5e:	76f9                	c.lui	x13,0xffffe
     b60:	16fd                	c.addi	x13,-1 # ffffdfff <__heap_end+0xffbfdfff>
     b62:	8fd1                	c.or	x15,x12
     b64:	8f75                	c.and	x14,x13
     b66:	00f59623          	sh	x15,12(x11)
     b6a:	d1f8                	c.sw	x14,100(x11)
     b6c:	8522                	c.mv	x10,x8
     b6e:	0850                	c.addi4spn	x12,x2,20
     b70:	203d                	c.jal	b9e <__sfvwrite_r>
     b72:	e919                	c.bnez	x10,b88 <_puts_r+0x70>
     b74:	4529                	c.li	x10,10
     b76:	50f2                	c.lwsp	x1,60(x2)
     b78:	5462                	c.lwsp	x8,56(x2)
     b7a:	54d2                	c.lwsp	x9,52(x2)
     b7c:	6121                	c.addi16sp	x2,64
     b7e:	8082                	c.jr	x1
     b80:	01271793          	slli	x15,x14,0x12
     b84:	fe07d4e3          	bge	x15,x0,b6c <_puts_r+0x54>
     b88:	557d                	c.li	x10,-1
     b8a:	b7f5                	c.j	b76 <_puts_r+0x5e>
     b8c:	8522                	c.mv	x10,x8
     b8e:	c62e                	c.swsp	x11,12(x2)
     b90:	3791                	c.jal	ad4 <__sinit>
     b92:	45b2                	c.lwsp	x11,12(x2)
     b94:	bf6d                	c.j	b4e <_puts_r+0x36>

00000b96 <puts>:
     b96:	85aa                	c.mv	x11,x10
     b98:	f0c1a503          	lw	x10,-244(x3) # e494 <_impure_ptr>
     b9c:	bfb5                	c.j	b18 <_puts_r>

00000b9e <__sfvwrite_r>:
     b9e:	461c                	c.lw	x15,8(x12)
     ba0:	18078763          	beq	x15,x0,d2e <__sfvwrite_r+0x190>
     ba4:	00c59703          	lh	x14,12(x11)
     ba8:	7179                	c.addi16sp	x2,-48
     baa:	d422                	c.swsp	x8,40(x2)
     bac:	cc52                	c.swsp	x20,24(x2)
     bae:	ca56                	c.swsp	x21,20(x2)
     bb0:	d606                	c.swsp	x1,44(x2)
     bb2:	00877793          	andi	x15,x14,8
     bb6:	8a32                	c.mv	x20,x12
     bb8:	8aaa                	c.mv	x21,x10
     bba:	842e                	c.mv	x8,x11
     bbc:	c7ad                	c.beqz	x15,c26 <__sfvwrite_r+0x88>
     bbe:	499c                	c.lw	x15,16(x11)
     bc0:	c3bd                	c.beqz	x15,c26 <__sfvwrite_r+0x88>
     bc2:	d04a                	c.swsp	x18,32(x2)
     bc4:	d226                	c.swsp	x9,36(x2)
     bc6:	ce4e                	c.swsp	x19,28(x2)
     bc8:	c85a                	c.swsp	x22,16(x2)
     bca:	00277793          	andi	x15,x14,2
     bce:	000a2903          	lw	x18,0(x20)
     bd2:	cbbd                	c.beqz	x15,c48 <__sfvwrite_r+0xaa>
     bd4:	80000b37          	lui	x22,0x80000
     bd8:	c00b0b13          	addi	x22,x22,-1024 # 7ffffc00 <__heap_end+0x7fbffc00>
     bdc:	4981                	c.li	x19,0
     bde:	4481                	c.li	x9,0
     be0:	864e                	c.mv	x12,x19
     be2:	8556                	c.mv	x10,x21
     be4:	12048f63          	beq	x9,x0,d22 <__sfvwrite_r+0x184>
     be8:	800007b7          	lui	x15,0x80000
     bec:	86a6                	c.mv	x13,x9
     bee:	009b7463          	bgeu	x22,x9,bf6 <__sfvwrite_r+0x58>
     bf2:	c0078693          	addi	x13,x15,-1024 # 7ffffc00 <__heap_end+0x7fbffc00>
     bf6:	505c                	c.lw	x15,36(x8)
     bf8:	4c4c                	c.lw	x11,28(x8)
     bfa:	9782                	c.jalr	x15
     bfc:	2ca05363          	bge	x0,x10,ec2 <__sfvwrite_r+0x324>
     c00:	008a2783          	lw	x15,8(x20)
     c04:	8f89                	c.sub	x15,x10
     c06:	00fa2423          	sw	x15,8(x20)
     c0a:	99aa                	c.add	x19,x10
     c0c:	8c89                	c.sub	x9,x10
     c0e:	fbe9                	c.bnez	x15,be0 <__sfvwrite_r+0x42>
     c10:	4501                	c.li	x10,0
     c12:	5492                	c.lwsp	x9,36(x2)
     c14:	5902                	c.lwsp	x18,32(x2)
     c16:	49f2                	c.lwsp	x19,28(x2)
     c18:	4b42                	c.lwsp	x22,16(x2)
     c1a:	50b2                	c.lwsp	x1,44(x2)
     c1c:	5422                	c.lwsp	x8,40(x2)
     c1e:	4a62                	c.lwsp	x20,24(x2)
     c20:	4ad2                	c.lwsp	x21,20(x2)
     c22:	6145                	c.addi16sp	x2,48
     c24:	8082                	c.jr	x1
     c26:	85a2                	c.mv	x11,x8
     c28:	8556                	c.mv	x10,x21
     c2a:	28a030ef          	jal	x1,3eb4 <__swsetup_r>
     c2e:	1a051c63          	bne	x10,x0,de6 <__sfvwrite_r+0x248>
     c32:	00c41703          	lh	x14,12(x8)
     c36:	d04a                	c.swsp	x18,32(x2)
     c38:	d226                	c.swsp	x9,36(x2)
     c3a:	ce4e                	c.swsp	x19,28(x2)
     c3c:	c85a                	c.swsp	x22,16(x2)
     c3e:	00277793          	andi	x15,x14,2
     c42:	000a2903          	lw	x18,0(x20)
     c46:	f7d9                	c.bnez	x15,bd4 <__sfvwrite_r+0x36>
     c48:	c65e                	c.swsp	x23,12(x2)
     c4a:	c462                	c.swsp	x24,8(x2)
     c4c:	00177793          	andi	x15,x14,1
     c50:	e3ed                	c.bnez	x15,d32 <__sfvwrite_r+0x194>
     c52:	80000b37          	lui	x22,0x80000
     c56:	c266                	c.swsp	x25,4(x2)
     c58:	1b7d                	c.addi	x22,-1 # 7fffffff <__heap_end+0x7fbfffff>
     c5a:	4b81                	c.li	x23,0
     c5c:	4981                	c.li	x19,0
     c5e:	0a098c63          	beq	x19,x0,d16 <__sfvwrite_r+0x178>
     c62:	20077793          	andi	x15,x14,512
     c66:	4008                	c.lw	x10,0(x8)
     c68:	4404                	c.lw	x9,8(x8)
     c6a:	18078063          	beq	x15,x0,dea <__sfvwrite_r+0x24c>
     c6e:	8c26                	c.mv	x24,x9
     c70:	1e99e963          	bltu	x19,x9,e62 <__sfvwrite_r+0x2c4>
     c74:	48077793          	andi	x15,x14,1152
     c78:	c7bd                	c.beqz	x15,ce6 <__sfvwrite_r+0x148>
     c7a:	4854                	c.lw	x13,20(x8)
     c7c:	00169793          	slli	x15,x13,0x1
     c80:	97b6                	c.add	x15,x13
     c82:	480c                	c.lw	x11,16(x8)
     c84:	01f7d493          	srli	x9,x15,0x1f
     c88:	40b50c33          	sub	x24,x10,x11
     c8c:	94be                	c.add	x9,x15
     c8e:	001c0793          	addi	x15,x24,1
     c92:	8485                	c.srai	x9,0x1
     c94:	97ce                	c.add	x15,x19
     c96:	8626                	c.mv	x12,x9
     c98:	00f4f463          	bgeu	x9,x15,ca0 <__sfvwrite_r+0x102>
     c9c:	84be                	c.mv	x9,x15
     c9e:	863e                	c.mv	x12,x15
     ca0:	40077713          	andi	x14,x14,1024
     ca4:	1e070663          	beq	x14,x0,e90 <__sfvwrite_r+0x2f2>
     ca8:	85b2                	c.mv	x11,x12
     caa:	8556                	c.mv	x10,x21
     cac:	44d020ef          	jal	x1,38f8 <_malloc_r>
     cb0:	8caa                	c.mv	x25,x10
     cb2:	20050b63          	beq	x10,x0,ec8 <__sfvwrite_r+0x32a>
     cb6:	8662                	c.mv	x12,x24
     cb8:	480c                	c.lw	x11,16(x8)
     cba:	6c2020ef          	jal	x1,337c <memcpy>
     cbe:	00c45783          	lhu	x15,12(x8)
     cc2:	b7f7f793          	andi	x15,x15,-1153
     cc6:	0807e793          	ori	x15,x15,128
     cca:	00f41623          	sh	x15,12(x8)
     cce:	018c8533          	add	x10,x25,x24
     cd2:	41848c33          	sub	x24,x9,x24
     cd6:	01842423          	sw	x24,8(x8)
     cda:	c844                	c.sw	x9,20(x8)
     cdc:	01942823          	sw	x25,16(x8)
     ce0:	c008                	c.sw	x10,0(x8)
     ce2:	84ce                	c.mv	x9,x19
     ce4:	8c4e                	c.mv	x24,x19
     ce6:	85de                	c.mv	x11,x23
     ce8:	8662                	c.mv	x12,x24
     cea:	28e050ef          	jal	x1,5f78 <memmove>
     cee:	401c                	c.lw	x15,0(x8)
     cf0:	4418                	c.lw	x14,8(x8)
     cf2:	97e2                	c.add	x15,x24
     cf4:	8f05                	c.sub	x14,x9
     cf6:	c01c                	c.sw	x15,0(x8)
     cf8:	84ce                	c.mv	x9,x19
     cfa:	008a2783          	lw	x15,8(x20)
     cfe:	c418                	c.sw	x14,8(x8)
     d00:	8f85                	c.sub	x15,x9
     d02:	00fa2423          	sw	x15,8(x20)
     d06:	4981                	c.li	x19,0
     d08:	9ba6                	c.add	x23,x9
     d0a:	10078f63          	beq	x15,x0,e28 <__sfvwrite_r+0x28a>
     d0e:	00c41703          	lh	x14,12(x8)
     d12:	f40998e3          	bne	x19,x0,c62 <__sfvwrite_r+0xc4>
     d16:	00092b83          	lw	x23,0(x18)
     d1a:	00492983          	lw	x19,4(x18)
     d1e:	0921                	c.addi	x18,8
     d20:	bf3d                	c.j	c5e <__sfvwrite_r+0xc0>
     d22:	00092983          	lw	x19,0(x18)
     d26:	00492483          	lw	x9,4(x18)
     d2a:	0921                	c.addi	x18,8
     d2c:	bd55                	c.j	be0 <__sfvwrite_r+0x42>
     d2e:	4501                	c.li	x10,0
     d30:	8082                	c.jr	x1
     d32:	4b01                	c.li	x22,0
     d34:	4501                	c.li	x10,0
     d36:	4c01                	c.li	x24,0
     d38:	4981                	c.li	x19,0
     d3a:	04098c63          	beq	x19,x0,d92 <__sfvwrite_r+0x1f4>
     d3e:	c135                	c.beqz	x10,da2 <__sfvwrite_r+0x204>
     d40:	87da                	c.mv	x15,x22
     d42:	8bce                	c.mv	x23,x19
     d44:	0137f363          	bgeu	x15,x19,d4a <__sfvwrite_r+0x1ac>
     d48:	8bbe                	c.mv	x23,x15
     d4a:	4008                	c.lw	x10,0(x8)
     d4c:	481c                	c.lw	x15,16(x8)
     d4e:	4854                	c.lw	x13,20(x8)
     d50:	00a7f663          	bgeu	x15,x10,d5c <__sfvwrite_r+0x1be>
     d54:	4404                	c.lw	x9,8(x8)
     d56:	94b6                	c.add	x9,x13
     d58:	0574cf63          	blt	x9,x23,db6 <__sfvwrite_r+0x218>
     d5c:	10dbcd63          	blt	x23,x13,e76 <__sfvwrite_r+0x2d8>
     d60:	505c                	c.lw	x15,36(x8)
     d62:	8662                	c.mv	x12,x24
     d64:	4c4c                	c.lw	x11,28(x8)
     d66:	8556                	c.mv	x10,x21
     d68:	9782                	c.jalr	x15
     d6a:	84aa                	c.mv	x9,x10
     d6c:	06a05163          	bge	x0,x10,dce <__sfvwrite_r+0x230>
     d70:	409b0b33          	sub	x22,x22,x9
     d74:	4505                	c.li	x10,1
     d76:	0e0b0963          	beq	x22,x0,e68 <__sfvwrite_r+0x2ca>
     d7a:	008a2783          	lw	x15,8(x20)
     d7e:	8f85                	c.sub	x15,x9
     d80:	00fa2423          	sw	x15,8(x20)
     d84:	9c26                	c.add	x24,x9
     d86:	409989b3          	sub	x19,x19,x9
     d8a:	fbc5                	c.bnez	x15,d3a <__sfvwrite_r+0x19c>
     d8c:	4bb2                	c.lwsp	x23,12(x2)
     d8e:	4c22                	c.lwsp	x24,8(x2)
     d90:	b541                	c.j	c10 <__sfvwrite_r+0x72>
     d92:	00492983          	lw	x19,4(x18)
     d96:	87ca                	c.mv	x15,x18
     d98:	0921                	c.addi	x18,8
     d9a:	fe098ce3          	beq	x19,x0,d92 <__sfvwrite_r+0x1f4>
     d9e:	0007ac03          	lw	x24,0(x15)
     da2:	864e                	c.mv	x12,x19
     da4:	45a9                	c.li	x11,10
     da6:	8562                	c.mv	x10,x24
     da8:	22b9                	c.jal	ef6 <memchr>
     daa:	10050863          	beq	x10,x0,eba <__sfvwrite_r+0x31c>
     dae:	0505                	c.addi	x10,1
     db0:	41850b33          	sub	x22,x10,x24
     db4:	b771                	c.j	d40 <__sfvwrite_r+0x1a2>
     db6:	85e2                	c.mv	x11,x24
     db8:	8626                	c.mv	x12,x9
     dba:	1be050ef          	jal	x1,5f78 <memmove>
     dbe:	401c                	c.lw	x15,0(x8)
     dc0:	97a6                	c.add	x15,x9
     dc2:	c01c                	c.sw	x15,0(x8)
     dc4:	85a2                	c.mv	x11,x8
     dc6:	8556                	c.mv	x10,x21
     dc8:	2a5020ef          	jal	x1,386c <_fflush_r>
     dcc:	d155                	c.beqz	x10,d70 <__sfvwrite_r+0x1d2>
     dce:	00c41783          	lh	x15,12(x8)
     dd2:	4bb2                	c.lwsp	x23,12(x2)
     dd4:	4c22                	c.lwsp	x24,8(x2)
     dd6:	0407e793          	ori	x15,x15,64
     dda:	00f41623          	sh	x15,12(x8)
     dde:	5492                	c.lwsp	x9,36(x2)
     de0:	5902                	c.lwsp	x18,32(x2)
     de2:	49f2                	c.lwsp	x19,28(x2)
     de4:	4b42                	c.lwsp	x22,16(x2)
     de6:	557d                	c.li	x10,-1
     de8:	bd0d                	c.j	c1a <__sfvwrite_r+0x7c>
     dea:	481c                	c.lw	x15,16(x8)
     dec:	04a7e263          	bltu	x15,x10,e30 <__sfvwrite_r+0x292>
     df0:	485c                	c.lw	x15,20(x8)
     df2:	02f9ef63          	bltu	x19,x15,e30 <__sfvwrite_r+0x292>
     df6:	86ce                	c.mv	x13,x19
     df8:	013b7363          	bgeu	x22,x19,dfe <__sfvwrite_r+0x260>
     dfc:	86da                	c.mv	x13,x22
     dfe:	02f6e7b3          	rem	x15,x13,x15
     e02:	5058                	c.lw	x14,36(x8)
     e04:	865e                	c.mv	x12,x23
     e06:	4c4c                	c.lw	x11,28(x8)
     e08:	8556                	c.mv	x10,x21
     e0a:	8e9d                	c.sub	x13,x15
     e0c:	9702                	c.jalr	x14
     e0e:	84aa                	c.mv	x9,x10
     e10:	04a05363          	bge	x0,x10,e56 <__sfvwrite_r+0x2b8>
     e14:	008a2783          	lw	x15,8(x20)
     e18:	8f85                	c.sub	x15,x9
     e1a:	00fa2423          	sw	x15,8(x20)
     e1e:	409989b3          	sub	x19,x19,x9
     e22:	9ba6                	c.add	x23,x9
     e24:	ee0795e3          	bne	x15,x0,d0e <__sfvwrite_r+0x170>
     e28:	4bb2                	c.lwsp	x23,12(x2)
     e2a:	4c22                	c.lwsp	x24,8(x2)
     e2c:	4c92                	c.lwsp	x25,4(x2)
     e2e:	b3cd                	c.j	c10 <__sfvwrite_r+0x72>
     e30:	0099f363          	bgeu	x19,x9,e36 <__sfvwrite_r+0x298>
     e34:	84ce                	c.mv	x9,x19
     e36:	8626                	c.mv	x12,x9
     e38:	85de                	c.mv	x11,x23
     e3a:	13e050ef          	jal	x1,5f78 <memmove>
     e3e:	4018                	c.lw	x14,0(x8)
     e40:	441c                	c.lw	x15,8(x8)
     e42:	9726                	c.add	x14,x9
     e44:	8f85                	c.sub	x15,x9
     e46:	c018                	c.sw	x14,0(x8)
     e48:	c41c                	c.sw	x15,8(x8)
     e4a:	f7e9                	c.bnez	x15,e14 <__sfvwrite_r+0x276>
     e4c:	85a2                	c.mv	x11,x8
     e4e:	8556                	c.mv	x10,x21
     e50:	21d020ef          	jal	x1,386c <_fflush_r>
     e54:	d161                	c.beqz	x10,e14 <__sfvwrite_r+0x276>
     e56:	00c41783          	lh	x15,12(x8)
     e5a:	4bb2                	c.lwsp	x23,12(x2)
     e5c:	4c22                	c.lwsp	x24,8(x2)
     e5e:	4c92                	c.lwsp	x25,4(x2)
     e60:	bf9d                	c.j	dd6 <__sfvwrite_r+0x238>
     e62:	84ce                	c.mv	x9,x19
     e64:	8c4e                	c.mv	x24,x19
     e66:	b541                	c.j	ce6 <__sfvwrite_r+0x148>
     e68:	85a2                	c.mv	x11,x8
     e6a:	8556                	c.mv	x10,x21
     e6c:	201020ef          	jal	x1,386c <_fflush_r>
     e70:	f00505e3          	beq	x10,x0,d7a <__sfvwrite_r+0x1dc>
     e74:	bfa9                	c.j	dce <__sfvwrite_r+0x230>
     e76:	865e                	c.mv	x12,x23
     e78:	85e2                	c.mv	x11,x24
     e7a:	0fe050ef          	jal	x1,5f78 <memmove>
     e7e:	4418                	c.lw	x14,8(x8)
     e80:	401c                	c.lw	x15,0(x8)
     e82:	41770733          	sub	x14,x14,x23
     e86:	97de                	c.add	x15,x23
     e88:	c418                	c.sw	x14,8(x8)
     e8a:	c01c                	c.sw	x15,0(x8)
     e8c:	84de                	c.mv	x9,x23
     e8e:	b5cd                	c.j	d70 <__sfvwrite_r+0x1d2>
     e90:	8556                	c.mv	x10,x21
     e92:	4a9040ef          	jal	x1,5b3a <_realloc_r>
     e96:	8caa                	c.mv	x25,x10
     e98:	e2051be3          	bne	x10,x0,cce <__sfvwrite_r+0x130>
     e9c:	480c                	c.lw	x11,16(x8)
     e9e:	8556                	c.mv	x10,x21
     ea0:	1fc030ef          	jal	x1,409c <_free_r>
     ea4:	00c41783          	lh	x15,12(x8)
     ea8:	4731                	c.li	x14,12
     eaa:	00eaa023          	sw	x14,0(x21)
     eae:	f7f7f793          	andi	x15,x15,-129
     eb2:	4bb2                	c.lwsp	x23,12(x2)
     eb4:	4c22                	c.lwsp	x24,8(x2)
     eb6:	4c92                	c.lwsp	x25,4(x2)
     eb8:	bf39                	c.j	dd6 <__sfvwrite_r+0x238>
     eba:	00198793          	addi	x15,x19,1
     ebe:	8b3e                	c.mv	x22,x15
     ec0:	b549                	c.j	d42 <__sfvwrite_r+0x1a4>
     ec2:	00c41783          	lh	x15,12(x8)
     ec6:	bf01                	c.j	dd6 <__sfvwrite_r+0x238>
     ec8:	47b1                	c.li	x15,12
     eca:	00faa023          	sw	x15,0(x21)
     ece:	4bb2                	c.lwsp	x23,12(x2)
     ed0:	00c41783          	lh	x15,12(x8)
     ed4:	4c22                	c.lwsp	x24,8(x2)
     ed6:	4c92                	c.lwsp	x25,4(x2)
     ed8:	bdfd                	c.j	dd6 <__sfvwrite_r+0x238>

00000eda <exit>:
     eda:	1141                	c.addi	x2,-16
     edc:	4581                	c.li	x11,0
     ede:	c422                	c.swsp	x8,8(x2)
     ee0:	c606                	c.swsp	x1,12(x2)
     ee2:	842a                	c.mv	x8,x10
     ee4:	249040ef          	jal	x1,592c <__call_exitprocs>
     ee8:	f1c1a783          	lw	x15,-228(x3) # e4a4 <__stdio_exit_handler>
     eec:	c391                	c.beqz	x15,ef0 <exit+0x16>
     eee:	9782                	c.jalr	x15
     ef0:	8522                	c.mv	x10,x8
     ef2:	c26ff0ef          	jal	x1,318 <_exit>

00000ef6 <memchr>:
     ef6:	00357713          	andi	x14,x10,3
     efa:	87aa                	c.mv	x15,x10
     efc:	0ff5f813          	andi	x16,x11,255
     f00:	832a                	c.mv	x6,x10
     f02:	c70d                	c.beqz	x14,f2c <memchr+0x36>
     f04:	00c508b3          	add	x17,x10,x12
     f08:	a039                	c.j	f16 <memchr+0x20>
     f0a:	0007c683          	lbu	x13,0(x15)
     f0e:	07068c63          	beq	x13,x16,f86 <memchr+0x90>
     f12:	cb11                	c.beqz	x14,f26 <memchr+0x30>
     f14:	87aa                	c.mv	x15,x10
     f16:	00178513          	addi	x10,x15,1
     f1a:	00357713          	andi	x14,x10,3
     f1e:	fef896e3          	bne	x17,x15,f0a <memchr+0x14>
     f22:	4501                	c.li	x10,0
     f24:	8082                	c.jr	x1
     f26:	167d                	c.addi	x12,-1 # 1fff <_vfprintf_r+0xf11>
     f28:	961a                	c.add	x12,x6
     f2a:	8e1d                	c.sub	x12,x15
     f2c:	478d                	c.li	x15,3
     f2e:	04c7f163          	bgeu	x15,x12,f70 <memchr+0x7a>
     f32:	0ff5f593          	andi	x11,x11,255
     f36:	00859693          	slli	x13,x11,0x8
     f3a:	96ae                	c.add	x13,x11
     f3c:	01069713          	slli	x14,x13,0x10
     f40:	feff0337          	lui	x6,0xfeff0
     f44:	808088b7          	lui	x17,0x80808
     f48:	85be                	c.mv	x11,x15
     f4a:	96ba                	c.add	x13,x14
     f4c:	eff30313          	addi	x6,x6,-257 # fefefeff <__heap_end+0xfebefeff>
     f50:	08088893          	addi	x17,x17,128 # 80808080 <__heap_end+0x80408080>
     f54:	411c                	c.lw	x15,0(x10)
     f56:	8fb5                	c.xor	x15,x13
     f58:	00678733          	add	x14,x15,x6
     f5c:	fff7c793          	xori	x15,x15,-1
     f60:	8ff9                	c.and	x15,x14
     f62:	0117f7b3          	and	x15,x15,x17
     f66:	e791                	c.bnez	x15,f72 <memchr+0x7c>
     f68:	1671                	c.addi	x12,-4
     f6a:	0511                	c.addi	x10,4
     f6c:	fec5e4e3          	bltu	x11,x12,f54 <memchr+0x5e>
     f70:	da4d                	c.beqz	x12,f22 <memchr+0x2c>
     f72:	962a                	c.add	x12,x10
     f74:	a021                	c.j	f7c <memchr+0x86>
     f76:	0505                	c.addi	x10,1
     f78:	faa605e3          	beq	x12,x10,f22 <memchr+0x2c>
     f7c:	00054783          	lbu	x15,0(x10)
     f80:	ff079be3          	bne	x15,x16,f76 <memchr+0x80>
     f84:	8082                	c.jr	x1
     f86:	853e                	c.mv	x10,x15
     f88:	8082                	c.jr	x1

00000f8a <atexit>:
     f8a:	85aa                	c.mv	x11,x10
     f8c:	4681                	c.li	x13,0
     f8e:	4601                	c.li	x12,0
     f90:	4501                	c.li	x10,0
     f92:	3410406f          	jal	x0,5ad2 <__register_exitproc>

00000f96 <_printf_r>:
     f96:	7139                	c.addi16sp	x2,-64
     f98:	d432                	c.swsp	x12,40(x2)
     f9a:	d636                	c.swsp	x13,44(x2)
     f9c:	d83a                	c.swsp	x14,48(x2)
     f9e:	da3e                	c.swsp	x15,52(x2)
     fa0:	dc42                	c.swsp	x16,56(x2)
     fa2:	de46                	c.swsp	x17,60(x2)
     fa4:	1034                	c.addi4spn	x13,x2,40
     fa6:	862e                	c.mv	x12,x11
     fa8:	450c                	c.lw	x11,8(x10)
     faa:	ce06                	c.swsp	x1,28(x2)
     fac:	c636                	c.swsp	x13,12(x2)
     fae:	2281                	c.jal	10ee <_vfprintf_r>
     fb0:	40f2                	c.lwsp	x1,28(x2)
     fb2:	6121                	c.addi16sp	x2,64
     fb4:	8082                	c.jr	x1

00000fb6 <printf>:
     fb6:	f0c1a303          	lw	x6,-244(x3) # e494 <_impure_ptr>
     fba:	7139                	c.addi16sp	x2,-64
     fbc:	d432                	c.swsp	x12,40(x2)
     fbe:	d636                	c.swsp	x13,44(x2)
     fc0:	d22e                	c.swsp	x11,36(x2)
     fc2:	d83a                	c.swsp	x14,48(x2)
     fc4:	da3e                	c.swsp	x15,52(x2)
     fc6:	dc42                	c.swsp	x16,56(x2)
     fc8:	de46                	c.swsp	x17,60(x2)
     fca:	1054                	c.addi4spn	x13,x2,36
     fcc:	862a                	c.mv	x12,x10
     fce:	00832583          	lw	x11,8(x6)
     fd2:	851a                	c.mv	x10,x6
     fd4:	ce06                	c.swsp	x1,28(x2)
     fd6:	c636                	c.swsp	x13,12(x2)
     fd8:	2a19                	c.jal	10ee <_vfprintf_r>
     fda:	40f2                	c.lwsp	x1,28(x2)
     fdc:	6121                	c.addi16sp	x2,64
     fde:	8082                	c.jr	x1

00000fe0 <strlen>:
     fe0:	00357793          	andi	x15,x10,3
     fe4:	872a                	c.mv	x14,x10
     fe6:	ef9d                	c.bnez	x15,1024 <strlen+0x44>
     fe8:	7f7f86b7          	lui	x13,0x7f7f8
     fec:	f7f68693          	addi	x13,x13,-129 # 7f7f7f7f <__heap_end+0x7f3f7f7f>
     ff0:	55fd                	c.li	x11,-1
     ff2:	4310                	c.lw	x12,0(x14)
     ff4:	00d677b3          	and	x15,x12,x13
     ff8:	97b6                	c.add	x15,x13
     ffa:	8fd1                	c.or	x15,x12
     ffc:	8fd5                	c.or	x15,x13
     ffe:	0711                	c.addi	x14,4
    1000:	feb789e3          	beq	x15,x11,ff2 <strlen+0x12>
    1004:	ffc74683          	lbu	x13,-4(x14)
    1008:	40a707b3          	sub	x15,x14,x10
    100c:	ca8d                	c.beqz	x13,103e <strlen+0x5e>
    100e:	ffd74683          	lbu	x13,-3(x14)
    1012:	c29d                	c.beqz	x13,1038 <strlen+0x58>
    1014:	ffe74503          	lbu	x10,-2(x14)
    1018:	00a03533          	sltu	x10,x0,x10
    101c:	953e                	c.add	x10,x15
    101e:	1579                	c.addi	x10,-2
    1020:	8082                	c.jr	x1
    1022:	d2f9                	c.beqz	x13,fe8 <strlen+0x8>
    1024:	00074783          	lbu	x15,0(x14)
    1028:	0705                	c.addi	x14,1
    102a:	00377693          	andi	x13,x14,3
    102e:	fbf5                	c.bnez	x15,1022 <strlen+0x42>
    1030:	8f09                	c.sub	x14,x10
    1032:	fff70513          	addi	x10,x14,-1
    1036:	8082                	c.jr	x1
    1038:	ffd78513          	addi	x10,x15,-3
    103c:	8082                	c.jr	x1
    103e:	ffc78513          	addi	x10,x15,-4
    1042:	8082                	c.jr	x1

00001044 <__libc_fini_array>:
    1044:	1141                	c.addi	x2,-16
    1046:	c422                	c.swsp	x8,8(x2)
    1048:	0000d797          	auipc	x15,0xd
    104c:	d3c78793          	addi	x15,x15,-708 # dd84 <__fini_array_end>
    1050:	0000d417          	auipc	x8,0xd
    1054:	d3440413          	addi	x8,x8,-716 # dd84 <__fini_array_end>
    1058:	8c1d                	c.sub	x8,x15
    105a:	c226                	c.swsp	x9,4(x2)
    105c:	c606                	c.swsp	x1,12(x2)
    105e:	40245493          	srai	x9,x8,0x2
    1062:	c881                	c.beqz	x9,1072 <__libc_fini_array+0x2e>
    1064:	1471                	c.addi	x8,-4
    1066:	943e                	c.add	x8,x15
    1068:	401c                	c.lw	x15,0(x8)
    106a:	14fd                	c.addi	x9,-1
    106c:	9782                	c.jalr	x15
    106e:	1471                	c.addi	x8,-4
    1070:	fce5                	c.bnez	x9,1068 <__libc_fini_array+0x24>
    1072:	40b2                	c.lwsp	x1,12(x2)
    1074:	4422                	c.lwsp	x8,8(x2)
    1076:	4492                	c.lwsp	x9,4(x2)
    1078:	0141                	c.addi	x2,16
    107a:	8082                	c.jr	x1

0000107c <_fwalk_sglue>:
    107c:	7179                	c.addi16sp	x2,-48
    107e:	d04a                	c.swsp	x18,32(x2)
    1080:	ce4e                	c.swsp	x19,28(x2)
    1082:	cc52                	c.swsp	x20,24(x2)
    1084:	ca56                	c.swsp	x21,20(x2)
    1086:	c85a                	c.swsp	x22,16(x2)
    1088:	c65e                	c.swsp	x23,12(x2)
    108a:	d606                	c.swsp	x1,44(x2)
    108c:	d422                	c.swsp	x8,40(x2)
    108e:	d226                	c.swsp	x9,36(x2)
    1090:	8b2a                	c.mv	x22,x10
    1092:	8bae                	c.mv	x23,x11
    1094:	8ab2                	c.mv	x21,x12
    1096:	4a01                	c.li	x20,0
    1098:	4985                	c.li	x19,1
    109a:	597d                	c.li	x18,-1
    109c:	004aa483          	lw	x9,4(x21)
    10a0:	14fd                	c.addi	x9,-1
    10a2:	008aa403          	lw	x8,8(x21)
    10a6:	0204c463          	blt	x9,x0,10ce <_fwalk_sglue+0x52>
    10aa:	00c45783          	lhu	x15,12(x8)
    10ae:	00f9fb63          	bgeu	x19,x15,10c4 <_fwalk_sglue+0x48>
    10b2:	00e41783          	lh	x15,14(x8)
    10b6:	85a2                	c.mv	x11,x8
    10b8:	855a                	c.mv	x10,x22
    10ba:	01278563          	beq	x15,x18,10c4 <_fwalk_sglue+0x48>
    10be:	9b82                	c.jalr	x23
    10c0:	00aa6a33          	or	x20,x20,x10
    10c4:	14fd                	c.addi	x9,-1
    10c6:	06840413          	addi	x8,x8,104
    10ca:	ff2490e3          	bne	x9,x18,10aa <_fwalk_sglue+0x2e>
    10ce:	000aaa83          	lw	x21,0(x21)
    10d2:	fc0a95e3          	bne	x21,x0,109c <_fwalk_sglue+0x20>
    10d6:	50b2                	c.lwsp	x1,44(x2)
    10d8:	5422                	c.lwsp	x8,40(x2)
    10da:	8552                	c.mv	x10,x20
    10dc:	5492                	c.lwsp	x9,36(x2)
    10de:	5902                	c.lwsp	x18,32(x2)
    10e0:	49f2                	c.lwsp	x19,28(x2)
    10e2:	4a62                	c.lwsp	x20,24(x2)
    10e4:	4ad2                	c.lwsp	x21,20(x2)
    10e6:	4b42                	c.lwsp	x22,16(x2)
    10e8:	4bb2                	c.lwsp	x23,12(x2)
    10ea:	6145                	c.addi16sp	x2,48
    10ec:	8082                	c.jr	x1

000010ee <_vfprintf_r>:
    10ee:	7145                	c.addi16sp	x2,-464
    10f0:	1c112623          	sw	x1,460(x2)
    10f4:	1c812423          	sw	x8,456(x2)
    10f8:	1b912223          	sw	x25,420(x2)
    10fc:	c432                	c.swsp	x12,8(x2)
    10fe:	8cae                	c.mv	x25,x11
    1100:	ca36                	c.swsp	x13,20(x2)
    1102:	842a                	c.mv	x8,x10
    1104:	c22a                	c.swsp	x10,4(x2)
    1106:	094060ef          	jal	x1,719a <_localeconv_r>
    110a:	411c                	c.lw	x15,0(x10)
    110c:	853e                	c.mv	x10,x15
    110e:	d63e                	c.swsp	x15,44(x2)
    1110:	3dc1                	c.jal	fe0 <strlen>
    1112:	d22a                	c.swsp	x10,36(x2)
    1114:	c982                	c.swsp	x0,208(x2)
    1116:	cb82                	c.swsp	x0,212(x2)
    1118:	cd82                	c.swsp	x0,216(x2)
    111a:	cf82                	c.swsp	x0,220(x2)
    111c:	47a2                	c.lwsp	x15,8(x2)
    111e:	c409                	c.beqz	x8,1128 <_vfprintf_r+0x3a>
    1120:	5858                	c.lw	x14,52(x8)
    1122:	e319                	c.bnez	x14,1128 <_vfprintf_r+0x3a>
    1124:	2fc0106f          	jal	x0,2420 <_vfprintf_r+0x1332>
    1128:	00cc9703          	lh	x14,12(x25)
    112c:	064ca683          	lw	x13,100(x25)
    1130:	6589                	c.lui	x11,0x2
    1132:	01271613          	slli	x12,x14,0x12
    1136:	26064963          	blt	x12,x0,13a8 <_vfprintf_r+0x2ba>
    113a:	7679                	c.lui	x12,0xffffe
    113c:	8f4d                	c.or	x14,x11
    113e:	167d                	c.addi	x12,-1 # ffffdfff <__heap_end+0xffbfdfff>
    1140:	8ef1                	c.and	x13,x12
    1142:	00ec9623          	sh	x14,12(x25)
    1146:	0742                	c.slli	x14,0x10
    1148:	8741                	c.srai	x14,0x10
    114a:	06dca223          	sw	x13,100(x25)
    114e:	00877693          	andi	x13,x14,8
    1152:	1e068a63          	beq	x13,x0,1346 <_vfprintf_r+0x258>
    1156:	010ca683          	lw	x13,16(x25)
    115a:	1e068663          	beq	x13,x0,1346 <_vfprintf_r+0x258>
    115e:	8b69                	c.andi	x14,26
    1160:	46a9                	c.li	x13,10
    1162:	1ed70f63          	beq	x14,x13,1360 <_vfprintf_r+0x272>
    1166:	1d212023          	sw	x18,448(x2)
    116a:	1b312e23          	sw	x19,444(x2)
    116e:	1b412c23          	sw	x20,440(x2)
    1172:	1b512a23          	sw	x21,436(x2)
    1176:	0ec10a13          	addi	x20,x2,236
    117a:	1c912223          	sw	x9,452(x2)
    117e:	1b612823          	sw	x22,432(x2)
    1182:	1b712623          	sw	x23,428(x2)
    1186:	1b812423          	sw	x24,424(x2)
    118a:	1ba12023          	sw	x26,416(x2)
    118e:	19b12e23          	sw	x27,412(x2)
    1192:	8abe                	c.mv	x21,x15
    1194:	c782                	c.swsp	x0,204(x2)
    1196:	c582                	c.swsp	x0,200(x2)
    1198:	c3d2                	c.swsp	x20,196(x2)
    119a:	cc02                	c.swsp	x0,24(x2)
    119c:	da02                	c.swsp	x0,52(x2)
    119e:	d402                	c.swsp	x0,40(x2)
    11a0:	c082                	c.swsp	x0,64(x2)
    11a2:	dc02                	c.swsp	x0,56(x2)
    11a4:	c602                	c.swsp	x0,12(x2)
    11a6:	c466                	c.swsp	x25,8(x2)
    11a8:	000ac783          	lbu	x15,0(x21)
    11ac:	8452                	c.mv	x8,x20
    11ae:	02500913          	addi	x18,x0,37
    11b2:	49c1                	c.li	x19,16
    11b4:	16078e63          	beq	x15,x0,1330 <_vfprintf_r+0x242>
    11b8:	84d6                	c.mv	x9,x21
    11ba:	1d278863          	beq	x15,x18,138a <_vfprintf_r+0x29c>
    11be:	0014c783          	lbu	x15,1(x9)
    11c2:	0485                	c.addi	x9,1
    11c4:	fbfd                	c.bnez	x15,11ba <_vfprintf_r+0xcc>
    11c6:	41548d33          	sub	x26,x9,x21
    11ca:	17548363          	beq	x9,x21,1330 <_vfprintf_r+0x242>
    11ce:	47be                	c.lwsp	x15,204(x2)
    11d0:	46ae                	c.lwsp	x13,200(x2)
    11d2:	97ea                	c.add	x15,x26
    11d4:	0685                	c.addi	x13,1
    11d6:	01542023          	sw	x21,0(x8)
    11da:	01a42223          	sw	x26,4(x8)
    11de:	c7be                	c.swsp	x15,204(x2)
    11e0:	c5b6                	c.swsp	x13,200(x2)
    11e2:	479d                	c.li	x15,7
    11e4:	0421                	c.addi	x8,8
    11e6:	1ad7c763          	blt	x15,x13,1394 <_vfprintf_r+0x2a6>
    11ea:	47b2                	c.lwsp	x15,12(x2)
    11ec:	97ea                	c.add	x15,x26
    11ee:	c63e                	c.swsp	x15,12(x2)
    11f0:	0004c783          	lbu	x15,0(x9)
    11f4:	12078e63          	beq	x15,x0,1330 <_vfprintf_r+0x242>
    11f8:	4301                	c.li	x6,0
    11fa:	00148c13          	addi	x24,x9,1
    11fe:	0014c883          	lbu	x17,1(x9)
    1202:	0a0103a3          	sb	x0,167(x2)
    1206:	54fd                	c.li	x9,-1
    1208:	4b81                	c.li	x23,0
    120a:	05a00d13          	addi	x26,x0,90
    120e:	8b1a                	c.mv	x22,x6
    1210:	0c05                	c.addi	x24,1
    1212:	fe088793          	addi	x15,x17,-32
    1216:	04fd6163          	bltu	x26,x15,1258 <_vfprintf_r+0x16a>
    121a:	0000c717          	auipc	x14,0xc
    121e:	3c670713          	addi	x14,x14,966 # d5e0 <no_exception_handler_msg+0xb5>
    1222:	078a                	c.slli	x15,0x2
    1224:	97ba                	c.add	x15,x14
    1226:	439c                	c.lw	x15,0(x15)
    1228:	97ba                	c.add	x15,x14
    122a:	8782                	c.jr	x15
    122c:	fd088793          	addi	x15,x17,-48
    1230:	4b01                	c.li	x22,0
    1232:	46a5                	c.li	x13,9
    1234:	002b1713          	slli	x14,x22,0x2
    1238:	01670333          	add	x6,x14,x22
    123c:	0306                	c.slli	x6,0x1
    123e:	000c4883          	lbu	x17,0(x24)
    1242:	00678b33          	add	x22,x15,x6
    1246:	fd088793          	addi	x15,x17,-48
    124a:	0c05                	c.addi	x24,1
    124c:	fef6f4e3          	bgeu	x13,x15,1234 <_vfprintf_r+0x146>
    1250:	fe088793          	addi	x15,x17,-32
    1254:	fcfd73e3          	bgeu	x26,x15,121a <_vfprintf_r+0x12c>
    1258:	835a                	c.mv	x6,x22
    125a:	0c088b63          	beq	x17,x0,1330 <_vfprintf_r+0x242>
    125e:	4d85                	c.li	x27,1
    1260:	13110623          	sb	x17,300(x2)
    1264:	0a0103a3          	sb	x0,167(x2)
    1268:	8d6e                	c.mv	x26,x27
    126a:	c802                	c.swsp	x0,16(x2)
    126c:	4481                	c.li	x9,0
    126e:	d002                	c.swsp	x0,32(x2)
    1270:	ce02                	c.swsp	x0,28(x2)
    1272:	4b01                	c.li	x22,0
    1274:	12c10a93          	addi	x21,x2,300
    1278:	463e                	c.lwsp	x12,204(x2)
    127a:	084bfc93          	andi	x25,x23,132
    127e:	85b2                	c.mv	x11,x12
    1280:	3c0c8663          	beq	x25,x0,164c <_vfprintf_r+0x55e>
    1284:	0a714783          	lbu	x15,167(x2)
    1288:	cf95                	c.beqz	x15,12c4 <_vfprintf_r+0x1d6>
    128a:	452e                	c.lwsp	x10,200(x2)
    128c:	4781                	c.li	x15,0
    128e:	4685                	c.li	x13,1
    1290:	0605                	c.addi	x12,1
    1292:	0505                	c.addi	x10,1
    1294:	0a710593          	addi	x11,x2,167
    1298:	c054                	c.sw	x13,4(x8)
    129a:	c00c                	c.sw	x11,0(x8)
    129c:	c7b2                	c.swsp	x12,204(x2)
    129e:	c5aa                	c.swsp	x10,200(x2)
    12a0:	469d                	c.li	x13,7
    12a2:	0421                	c.addi	x8,8
    12a4:	1ea6c363          	blt	x13,x10,148a <_vfprintf_r+0x39c>
    12a8:	cf91                	c.beqz	x15,12c4 <_vfprintf_r+0x1d6>
    12aa:	452e                	c.lwsp	x10,200(x2)
    12ac:	4789                	c.li	x15,2
    12ae:	0609                	c.addi	x12,2
    12b0:	0505                	c.addi	x10,1
    12b2:	1134                	c.addi4spn	x13,x2,168
    12b4:	c05c                	c.sw	x15,4(x8)
    12b6:	c014                	c.sw	x13,0(x8)
    12b8:	c7b2                	c.swsp	x12,204(x2)
    12ba:	c5aa                	c.swsp	x10,200(x2)
    12bc:	479d                	c.li	x15,7
    12be:	0421                	c.addi	x8,8
    12c0:	2ea7c1e3          	blt	x15,x10,1da2 <_vfprintf_r+0xcb4>
    12c4:	08000793          	addi	x15,x0,128
    12c8:	1cfc87e3          	beq	x25,x15,1c96 <_vfprintf_r+0xba8>
    12cc:	41b484b3          	sub	x9,x9,x27
    12d0:	38904a63          	blt	x0,x9,1664 <_vfprintf_r+0x576>
    12d4:	100bf793          	andi	x15,x23,256
    12d8:	42079263          	bne	x15,x0,16fc <_vfprintf_r+0x60e>
    12dc:	47ae                	c.lwsp	x15,200(x2)
    12de:	966e                	c.add	x12,x27
    12e0:	0785                	c.addi	x15,1
    12e2:	c7b2                	c.swsp	x12,204(x2)
    12e4:	01542023          	sw	x21,0(x8)
    12e8:	01b42223          	sw	x27,4(x8)
    12ec:	c5be                	c.swsp	x15,200(x2)
    12ee:	469d                	c.li	x13,7
    12f0:	26f6c163          	blt	x13,x15,1552 <_vfprintf_r+0x464>
    12f4:	0421                	c.addi	x8,8
    12f6:	004bfe13          	andi	x28,x23,4
    12fa:	000e0663          	beq	x28,x0,1306 <_vfprintf_r+0x218>
    12fe:	41a304b3          	sub	x9,x6,x26
    1302:	26904463          	blt	x0,x9,156a <_vfprintf_r+0x47c>
    1306:	01a35363          	bge	x6,x26,130c <_vfprintf_r+0x21e>
    130a:	836a                	c.mv	x6,x26
    130c:	47b2                	c.lwsp	x15,12(x2)
    130e:	979a                	c.add	x15,x6
    1310:	c63e                	c.swsp	x15,12(x2)
    1312:	220616e3          	bne	x12,x0,1d3e <_vfprintf_r+0xc50>
    1316:	c582                	c.swsp	x0,200(x2)
    1318:	47c2                	c.lwsp	x15,16(x2)
    131a:	c789                	c.beqz	x15,1324 <_vfprintf_r+0x236>
    131c:	45c2                	c.lwsp	x11,16(x2)
    131e:	4512                	c.lwsp	x10,4(x2)
    1320:	57d020ef          	jal	x1,409c <_free_r>
    1324:	8452                	c.mv	x8,x20
    1326:	8ae2                	c.mv	x21,x24
    1328:	000ac783          	lbu	x15,0(x21)
    132c:	e80796e3          	bne	x15,x0,11b8 <_vfprintf_r+0xca>
    1330:	47be                	c.lwsp	x15,204(x2)
    1332:	4ca2                	c.lwsp	x25,8(x2)
    1334:	220784e3          	beq	x15,x0,1d5c <_vfprintf_r+0xc6e>
    1338:	4512                	c.lwsp	x10,4(x2)
    133a:	01d0                	c.addi4spn	x12,x2,196
    133c:	85e6                	c.mv	x11,x25
    133e:	13c050ef          	jal	x1,647a <__sprint_r>
    1342:	21b0006f          	jal	x0,1d5c <_vfprintf_r+0xc6e>
    1346:	85e6                	c.mv	x11,x25
    1348:	4512                	c.lwsp	x10,4(x2)
    134a:	c43e                	c.swsp	x15,8(x2)
    134c:	369020ef          	jal	x1,3eb4 <__swsetup_r>
    1350:	e125                	c.bnez	x10,13b0 <_vfprintf_r+0x2c2>
    1352:	00cc9703          	lh	x14,12(x25)
    1356:	46a9                	c.li	x13,10
    1358:	47a2                	c.lwsp	x15,8(x2)
    135a:	8b69                	c.andi	x14,26
    135c:	e0d715e3          	bne	x14,x13,1166 <_vfprintf_r+0x78>
    1360:	00ec9703          	lh	x14,14(x25)
    1364:	e00741e3          	blt	x14,x0,1166 <_vfprintf_r+0x78>
    1368:	46d2                	c.lwsp	x13,20(x2)
    136a:	863e                	c.mv	x12,x15
    136c:	85e6                	c.mv	x11,x25
    136e:	4512                	c.lwsp	x10,4(x2)
    1370:	777010ef          	jal	x1,32e6 <__sbprintf>
    1374:	c62a                	c.swsp	x10,12(x2)
    1376:	21b0006f          	jal	x0,1d90 <_vfprintf_r+0xca2>
    137a:	000c4883          	lbu	x17,0(x24)
    137e:	bd49                	c.j	1210 <_vfprintf_r+0x122>
    1380:	020beb93          	ori	x23,x23,32
    1384:	000c4883          	lbu	x17,0(x24)
    1388:	b561                	c.j	1210 <_vfprintf_r+0x122>
    138a:	41548d33          	sub	x26,x9,x21
    138e:	e75481e3          	beq	x9,x21,11f0 <_vfprintf_r+0x102>
    1392:	bd35                	c.j	11ce <_vfprintf_r+0xe0>
    1394:	01d0                	c.addi4spn	x12,x2,196
    1396:	45a2                	c.lwsp	x11,8(x2)
    1398:	4512                	c.lwsp	x10,4(x2)
    139a:	0e0050ef          	jal	x1,647a <__sprint_r>
    139e:	c119                	c.beqz	x10,13a4 <_vfprintf_r+0x2b6>
    13a0:	6650106f          	jal	x0,3204 <_vfprintf_r+0x2116>
    13a4:	8452                	c.mv	x8,x20
    13a6:	b591                	c.j	11ea <_vfprintf_r+0xfc>
    13a8:	01269613          	slli	x12,x13,0x12
    13ac:	da0651e3          	bge	x12,x0,114e <_vfprintf_r+0x60>
    13b0:	57fd                	c.li	x15,-1
    13b2:	c63e                	c.swsp	x15,12(x2)
    13b4:	1dd0006f          	jal	x0,1d90 <_vfprintf_r+0xca2>
    13b8:	008bf793          	andi	x15,x23,8
    13bc:	835a                	c.mv	x6,x22
    13be:	44079ae3          	bne	x15,x0,2012 <_vfprintf_r+0xf24>
    13c2:	47d2                	c.lwsp	x15,20(x2)
    13c4:	079d                	c.addi	x15,7
    13c6:	9be1                	c.andi	x15,-8
    13c8:	43d0                	c.lw	x12,4(x15)
    13ca:	438c                	c.lw	x11,0(x15)
    13cc:	0908                	c.addi4spn	x10,x2,144
    13ce:	07a1                	c.addi	x15,8
    13d0:	ce46                	c.swsp	x17,28(x2)
    13d2:	ca3e                	c.swsp	x15,20(x2)
    13d4:	c85a                	c.swsp	x22,16(x2)
    13d6:	2d10b0ef          	jal	x1,cea6 <__extenddftf2>
    13da:	464a                	c.lwsp	x12,144(x2)
    13dc:	46da                	c.lwsp	x13,148(x2)
    13de:	476a                	c.lwsp	x14,152(x2)
    13e0:	47fa                	c.lwsp	x15,156(x2)
    13e2:	48f2                	c.lwsp	x17,28(x2)
    13e4:	4342                	c.lwsp	x6,16(x2)
    13e6:	0988                	c.addi4spn	x10,x2,208
    13e8:	ce46                	c.swsp	x17,28(x2)
    13ea:	c81a                	c.swsp	x6,16(x2)
    13ec:	cfbe                	c.swsp	x15,220(x2)
    13ee:	c9b2                	c.swsp	x12,208(x2)
    13f0:	cbb6                	c.swsp	x13,212(x2)
    13f2:	cdba                	c.swsp	x14,216(x2)
    13f4:	232020ef          	jal	x1,3626 <_ldcheck>
    13f8:	d72a                	c.swsp	x10,172(x2)
    13fa:	4789                	c.li	x15,2
    13fc:	4342                	c.lwsp	x6,16(x2)
    13fe:	48f2                	c.lwsp	x17,28(x2)
    1400:	00f51463          	bne	x10,x15,1408 <_vfprintf_r+0x31a>
    1404:	06a0106f          	jal	x0,246e <_vfprintf_r+0x1380>
    1408:	4785                	c.li	x15,1
    140a:	00f51463          	bne	x10,x15,1412 <_vfprintf_r+0x324>
    140e:	1a20106f          	jal	x0,25b0 <_vfprintf_r+0x14c2>
    1412:	06100713          	addi	x14,x0,97
    1416:	00e89463          	bne	x17,x14,141e <_vfprintf_r+0x330>
    141a:	3150106f          	jal	x0,2f2e <_vfprintf_r+0x1e40>
    141e:	04100713          	addi	x14,x0,65
    1422:	00e89463          	bne	x17,x14,142a <_vfprintf_r+0x33c>
    1426:	6160106f          	jal	x0,2a3c <_vfprintf_r+0x194e>
    142a:	577d                	c.li	x14,-1
    142c:	00e49463          	bne	x9,x14,1434 <_vfprintf_r+0x346>
    1430:	4f70106f          	jal	x0,3126 <_vfprintf_r+0x2038>
    1434:	fdf8f713          	andi	x14,x17,-33
    1438:	04700693          	addi	x13,x0,71
    143c:	c802                	c.swsp	x0,16(x2)
    143e:	00d71463          	bne	x14,x13,1446 <_vfprintf_r+0x358>
    1442:	4d90106f          	jal	x0,311a <_vfprintf_r+0x202c>
    1446:	100be793          	ori	x15,x23,256
    144a:	4f7e                	c.lwsp	x30,220(x2)
    144c:	de3e                	c.swsp	x15,60(x2)
    144e:	d802                	c.swsp	x0,48(x2)
    1450:	43ce                	c.lwsp	x7,208(x2)
    1452:	42de                	c.lwsp	x5,212(x2)
    1454:	4fee                	c.lwsp	x31,216(x2)
    1456:	000f5963          	bge	x30,x0,1468 <_vfprintf_r+0x37a>
    145a:	800007b7          	lui	x15,0x80000
    145e:	00ff4f33          	xor	x30,x30,x15
    1462:	02d00793          	addi	x15,x0,45
    1466:	d83e                	c.swsp	x15,48(x2)
    1468:	fbf88793          	addi	x15,x17,-65
    146c:	02500713          	addi	x14,x0,37
    1470:	00f77463          	bgeu	x14,x15,1478 <_vfprintf_r+0x38a>
    1474:	4140106f          	jal	x0,2888 <_vfprintf_r+0x179a>
    1478:	0000c717          	auipc	x14,0xc
    147c:	2d470713          	addi	x14,x14,724 # d74c <no_exception_handler_msg+0x221>
    1480:	078a                	c.slli	x15,0x2
    1482:	97ba                	c.add	x15,x14
    1484:	439c                	c.lw	x15,0(x15)
    1486:	97ba                	c.add	x15,x14
    1488:	8782                	c.jr	x15
    148a:	01d0                	c.addi4spn	x12,x2,196
    148c:	45a2                	c.lwsp	x11,8(x2)
    148e:	4512                	c.lwsp	x10,4(x2)
    1490:	c2c6                	c.swsp	x17,68(x2)
    1492:	de3e                	c.swsp	x15,60(x2)
    1494:	d81a                	c.swsp	x6,48(x2)
    1496:	7e5040ef          	jal	x1,647a <__sprint_r>
    149a:	0a0519e3          	bne	x10,x0,1d4c <_vfprintf_r+0xc5e>
    149e:	463e                	c.lwsp	x12,204(x2)
    14a0:	8452                	c.mv	x8,x20
    14a2:	4896                	c.lwsp	x17,68(x2)
    14a4:	57f2                	c.lwsp	x15,60(x2)
    14a6:	5342                	c.lwsp	x6,48(x2)
    14a8:	b501                	c.j	12a8 <_vfprintf_r+0x1ba>
    14aa:	47ae                	c.lwsp	x15,200(x2)
    14ac:	4585                	c.li	x11,1
    14ae:	00b784b3          	add	x9,x15,x11
    14b2:	47e2                	c.lwsp	x15,24(x2)
    14b4:	00b60db3          	add	x27,x12,x11
    14b8:	00840693          	addi	x13,x8,8
    14bc:	28f5dfe3          	bge	x11,x15,1f5a <_vfprintf_r+0xe6c>
    14c0:	4785                	c.li	x15,1
    14c2:	c05c                	c.sw	x15,4(x8)
    14c4:	01542023          	sw	x21,0(x8)
    14c8:	c7ee                	c.swsp	x27,204(x2)
    14ca:	c5a6                	c.swsp	x9,200(x2)
    14cc:	479d                	c.li	x15,7
    14ce:	6497c3e3          	blt	x15,x9,2314 <_vfprintf_r+0x1226>
    14d2:	5792                	c.lwsp	x15,36(x2)
    14d4:	9dbe                	c.add	x27,x15
    14d6:	0485                	c.addi	x9,1
    14d8:	5732                	c.lwsp	x14,44(x2)
    14da:	c2dc                	c.sw	x15,4(x13)
    14dc:	c298                	c.sw	x14,0(x13)
    14de:	c7ee                	c.swsp	x27,204(x2)
    14e0:	c5a6                	c.swsp	x9,200(x2)
    14e2:	479d                	c.li	x15,7
    14e4:	06a1                	c.addi	x13,8
    14e6:	6497c5e3          	blt	x15,x9,2330 <_vfprintf_r+0x1242>
    14ea:	454e                	c.lwsp	x10,208(x2)
    14ec:	45de                	c.lwsp	x11,212(x2)
    14ee:	47fe                	c.lwsp	x15,220(x2)
    14f0:	466e                	c.lwsp	x12,216(x2)
    14f2:	c92a                	c.swsp	x10,144(x2)
    14f4:	cb2e                	c.swsp	x11,148(x2)
    14f6:	cf3e                	c.swsp	x15,156(x2)
    14f8:	010c                	c.addi4spn	x11,x2,128
    14fa:	47e2                	c.lwsp	x15,24(x2)
    14fc:	0908                	c.addi4spn	x10,x2,144
    14fe:	d036                	c.swsp	x13,32(x2)
    1500:	ce1a                	c.swsp	x6,28(x2)
    1502:	c102                	c.swsp	x0,128(x2)
    1504:	c302                	c.swsp	x0,132(x2)
    1506:	c502                	c.swsp	x0,136(x2)
    1508:	c702                	c.swsp	x0,140(x2)
    150a:	cd32                	c.swsp	x12,152(x2)
    150c:	fff78413          	addi	x8,x15,-1 # 7fffffff <__heap_end+0x7fbfffff>
    1510:	6cc090ef          	jal	x1,abdc <__eqtf2>
    1514:	4372                	c.lwsp	x6,28(x2)
    1516:	5682                	c.lwsp	x13,32(x2)
    1518:	26050be3          	beq	x10,x0,1f8e <_vfprintf_r+0xea0>
    151c:	0485                	c.addi	x9,1
    151e:	9da2                	c.add	x27,x8
    1520:	0a85                	c.addi	x21,1
    1522:	c5a6                	c.swsp	x9,200(x2)
    1524:	c7ee                	c.swsp	x27,204(x2)
    1526:	0156a023          	sw	x21,0(x13)
    152a:	c2c0                	c.sw	x8,4(x13)
    152c:	479d                	c.li	x15,7
    152e:	2497c2e3          	blt	x15,x9,1f72 <_vfprintf_r+0xe84>
    1532:	06a1                	c.addi	x13,8
    1534:	5752                	c.lwsp	x14,52(x2)
    1536:	194c                	c.addi4spn	x11,x2,180
    1538:	01b70633          	add	x12,x14,x27
    153c:	00148793          	addi	x15,x9,1
    1540:	c28c                	c.sw	x11,0(x13)
    1542:	c7b2                	c.swsp	x12,204(x2)
    1544:	c5be                	c.swsp	x15,200(x2)
    1546:	c2d8                	c.sw	x14,4(x13)
    1548:	459d                	c.li	x11,7
    154a:	00868413          	addi	x8,x13,8
    154e:	daf5d4e3          	bge	x11,x15,12f6 <_vfprintf_r+0x208>
    1552:	01d0                	c.addi4spn	x12,x2,196
    1554:	45a2                	c.lwsp	x11,8(x2)
    1556:	4512                	c.lwsp	x10,4(x2)
    1558:	ce1a                	c.swsp	x6,28(x2)
    155a:	721040ef          	jal	x1,647a <__sprint_r>
    155e:	7e051763          	bne	x10,x0,1d4c <_vfprintf_r+0xc5e>
    1562:	463e                	c.lwsp	x12,204(x2)
    1564:	8452                	c.mv	x8,x20
    1566:	4372                	c.lwsp	x6,28(x2)
    1568:	b379                	c.j	12f6 <_vfprintf_r+0x208>
    156a:	4ac1                	c.li	x21,16
    156c:	47ae                	c.lwsp	x15,200(x2)
    156e:	0000c697          	auipc	x13,0xc
    1572:	27668693          	addi	x13,x13,630 # d7e4 <blanks.1>
    1576:	049ad763          	bge	x21,x9,15c4 <_vfprintf_r+0x4d6>
    157a:	8722                	c.mv	x14,x8
    157c:	8bd6                	c.mv	x23,x21
    157e:	4d9d                	c.li	x27,7
    1580:	841a                	c.mv	x8,x6
    1582:	4ca2                	c.lwsp	x25,8(x2)
    1584:	8b36                	c.mv	x22,x13
    1586:	a021                	c.j	158e <_vfprintf_r+0x4a0>
    1588:	14c1                	c.addi	x9,-16
    158a:	029bda63          	bge	x23,x9,15be <_vfprintf_r+0x4d0>
    158e:	0641                	c.addi	x12,16
    1590:	0785                	c.addi	x15,1
    1592:	01672023          	sw	x22,0(x14)
    1596:	01572223          	sw	x21,4(x14)
    159a:	c7b2                	c.swsp	x12,204(x2)
    159c:	c5be                	c.swsp	x15,200(x2)
    159e:	0721                	c.addi	x14,8
    15a0:	fefdd4e3          	bge	x27,x15,1588 <_vfprintf_r+0x49a>
    15a4:	01d0                	c.addi4spn	x12,x2,196
    15a6:	85e6                	c.mv	x11,x25
    15a8:	4512                	c.lwsp	x10,4(x2)
    15aa:	6d1040ef          	jal	x1,647a <__sprint_r>
    15ae:	68051ce3          	bne	x10,x0,2446 <_vfprintf_r+0x1358>
    15b2:	14c1                	c.addi	x9,-16
    15b4:	463e                	c.lwsp	x12,204(x2)
    15b6:	47ae                	c.lwsp	x15,200(x2)
    15b8:	8752                	c.mv	x14,x20
    15ba:	fc9bcae3          	blt	x23,x9,158e <_vfprintf_r+0x4a0>
    15be:	8322                	c.mv	x6,x8
    15c0:	86da                	c.mv	x13,x22
    15c2:	843a                	c.mv	x8,x14
    15c4:	9626                	c.add	x12,x9
    15c6:	0785                	c.addi	x15,1
    15c8:	c014                	c.sw	x13,0(x8)
    15ca:	c7b2                	c.swsp	x12,204(x2)
    15cc:	c5be                	c.swsp	x15,200(x2)
    15ce:	c044                	c.sw	x9,4(x8)
    15d0:	469d                	c.li	x13,7
    15d2:	d2f6dae3          	bge	x13,x15,1306 <_vfprintf_r+0x218>
    15d6:	01d0                	c.addi4spn	x12,x2,196
    15d8:	45a2                	c.lwsp	x11,8(x2)
    15da:	4512                	c.lwsp	x10,4(x2)
    15dc:	ce1a                	c.swsp	x6,28(x2)
    15de:	69d040ef          	jal	x1,647a <__sprint_r>
    15e2:	76051563          	bne	x10,x0,1d4c <_vfprintf_r+0xc5e>
    15e6:	463e                	c.lwsp	x12,204(x2)
    15e8:	4372                	c.lwsp	x6,28(x2)
    15ea:	bb31                	c.j	1306 <_vfprintf_r+0x218>
    15ec:	47d2                	c.lwsp	x15,20(x2)
    15ee:	0a0103a3          	sb	x0,167(x2)
    15f2:	0007aa83          	lw	x21,0(x15)
    15f6:	835a                	c.mv	x6,x22
    15f8:	00478b13          	addi	x22,x15,4
    15fc:	3e0a83e3          	beq	x21,x0,21e2 <_vfprintf_r+0x10f4>
    1600:	4404cbe3          	blt	x9,x0,2256 <_vfprintf_r+0x1168>
    1604:	8626                	c.mv	x12,x9
    1606:	4581                	c.li	x11,0
    1608:	8556                	c.mv	x10,x21
    160a:	ce46                	c.swsp	x17,28(x2)
    160c:	ca1a                	c.swsp	x6,20(x2)
    160e:	8e9ff0ef          	jal	x1,ef6 <memchr>
    1612:	c82a                	c.swsp	x10,16(x2)
    1614:	0a714783          	lbu	x15,167(x2)
    1618:	4352                	c.lwsp	x6,20(x2)
    161a:	48f2                	c.lwsp	x17,28(x2)
    161c:	e119                	c.bnez	x10,1622 <_vfprintf_r+0x534>
    161e:	1d70106f          	jal	x0,2ff4 <_vfprintf_r+0x1f06>
    1622:	41550db3          	sub	x27,x10,x21
    1626:	fffdc713          	xori	x14,x27,-1
    162a:	877d                	c.srai	x14,0x1f
    162c:	00edfd33          	and	x26,x27,x14
    1630:	440794e3          	bne	x15,x0,2278 <_vfprintf_r+0x118a>
    1634:	ca5a                	c.swsp	x22,20(x2)
    1636:	463e                	c.lwsp	x12,204(x2)
    1638:	c802                	c.swsp	x0,16(x2)
    163a:	d002                	c.swsp	x0,32(x2)
    163c:	ce02                	c.swsp	x0,28(x2)
    163e:	084bfc93          	andi	x25,x23,132
    1642:	4481                	c.li	x9,0
    1644:	4b01                	c.li	x22,0
    1646:	85b2                	c.mv	x11,x12
    1648:	c20c9ee3          	bne	x25,x0,1284 <_vfprintf_r+0x196>
    164c:	41a307b3          	sub	x15,x6,x26
    1650:	06f04de3          	blt	x0,x15,1eca <_vfprintf_r+0xddc>
    1654:	0a714783          	lbu	x15,167(x2)
    1658:	c20799e3          	bne	x15,x0,128a <_vfprintf_r+0x19c>
    165c:	41b484b3          	sub	x9,x9,x27
    1660:	c6905ae3          	bge	x0,x9,12d4 <_vfprintf_r+0x1e6>
    1664:	45ae                	c.lwsp	x11,200(x2)
    1666:	0000cc97          	auipc	x25,0xc
    166a:	18ec8c93          	addi	x25,x25,398 # d7f4 <zeroes.0>
    166e:	0499db63          	bge	x19,x9,16c4 <_vfprintf_r+0x5d6>
    1672:	87a2                	c.mv	x15,x8
    1674:	469d                	c.li	x13,7
    1676:	8426                	c.mv	x8,x9
    1678:	d81a                	c.swsp	x6,48(x2)
    167a:	84e6                	c.mv	x9,x25
    167c:	8cd6                	c.mv	x25,x21
    167e:	8ac6                	c.mv	x21,x17
    1680:	a021                	c.j	1688 <_vfprintf_r+0x59a>
    1682:	1441                	c.addi	x8,-16
    1684:	0289da63          	bge	x19,x8,16b8 <_vfprintf_r+0x5ca>
    1688:	0641                	c.addi	x12,16
    168a:	0585                	c.addi	x11,1 # 2001 <_vfprintf_r+0xf13>
    168c:	c384                	c.sw	x9,0(x15)
    168e:	0137a223          	sw	x19,4(x15)
    1692:	c7b2                	c.swsp	x12,204(x2)
    1694:	c5ae                	c.swsp	x11,200(x2)
    1696:	07a1                	c.addi	x15,8
    1698:	feb6d5e3          	bge	x13,x11,1682 <_vfprintf_r+0x594>
    169c:	01d0                	c.addi4spn	x12,x2,196
    169e:	45a2                	c.lwsp	x11,8(x2)
    16a0:	4512                	c.lwsp	x10,4(x2)
    16a2:	5d9040ef          	jal	x1,647a <__sprint_r>
    16a6:	6a051363          	bne	x10,x0,1d4c <_vfprintf_r+0xc5e>
    16aa:	1441                	c.addi	x8,-16
    16ac:	463e                	c.lwsp	x12,204(x2)
    16ae:	45ae                	c.lwsp	x11,200(x2)
    16b0:	87d2                	c.mv	x15,x20
    16b2:	469d                	c.li	x13,7
    16b4:	fc89cae3          	blt	x19,x8,1688 <_vfprintf_r+0x59a>
    16b8:	88d6                	c.mv	x17,x21
    16ba:	5342                	c.lwsp	x6,48(x2)
    16bc:	8ae6                	c.mv	x21,x25
    16be:	8ca6                	c.mv	x25,x9
    16c0:	84a2                	c.mv	x9,x8
    16c2:	843e                	c.mv	x8,x15
    16c4:	9626                	c.add	x12,x9
    16c6:	0585                	c.addi	x11,1
    16c8:	01942023          	sw	x25,0(x8)
    16cc:	c044                	c.sw	x9,4(x8)
    16ce:	c7b2                	c.swsp	x12,204(x2)
    16d0:	c5ae                	c.swsp	x11,200(x2)
    16d2:	479d                	c.li	x15,7
    16d4:	0421                	c.addi	x8,8
    16d6:	beb7dfe3          	bge	x15,x11,12d4 <_vfprintf_r+0x1e6>
    16da:	01d0                	c.addi4spn	x12,x2,196
    16dc:	45a2                	c.lwsp	x11,8(x2)
    16de:	4512                	c.lwsp	x10,4(x2)
    16e0:	de46                	c.swsp	x17,60(x2)
    16e2:	d81a                	c.swsp	x6,48(x2)
    16e4:	597040ef          	jal	x1,647a <__sprint_r>
    16e8:	66051263          	bne	x10,x0,1d4c <_vfprintf_r+0xc5e>
    16ec:	100bf793          	andi	x15,x23,256
    16f0:	463e                	c.lwsp	x12,204(x2)
    16f2:	8452                	c.mv	x8,x20
    16f4:	58f2                	c.lwsp	x17,60(x2)
    16f6:	5342                	c.lwsp	x6,48(x2)
    16f8:	be0782e3          	beq	x15,x0,12dc <_vfprintf_r+0x1ee>
    16fc:	06500793          	addi	x15,x0,101
    1700:	db17d5e3          	bge	x15,x17,14aa <_vfprintf_r+0x3bc>
    1704:	47ce                	c.lwsp	x15,208(x2)
    1706:	45de                	c.lwsp	x11,212(x2)
    1708:	46ee                	c.lwsp	x13,216(x2)
    170a:	c93e                	c.swsp	x15,144(x2)
    170c:	cb2e                	c.swsp	x11,148(x2)
    170e:	47fe                	c.lwsp	x15,220(x2)
    1710:	010c                	c.addi4spn	x11,x2,128
    1712:	0908                	c.addi4spn	x10,x2,144
    1714:	de32                	c.swsp	x12,60(x2)
    1716:	d81a                	c.swsp	x6,48(x2)
    1718:	c102                	c.swsp	x0,128(x2)
    171a:	c302                	c.swsp	x0,132(x2)
    171c:	c502                	c.swsp	x0,136(x2)
    171e:	c702                	c.swsp	x0,140(x2)
    1720:	cd36                	c.swsp	x13,152(x2)
    1722:	cf3e                	c.swsp	x15,156(x2)
    1724:	4b8090ef          	jal	x1,abdc <__eqtf2>
    1728:	5342                	c.lwsp	x6,48(x2)
    172a:	5672                	c.lwsp	x12,60(x2)
    172c:	68051963          	bne	x10,x0,1dbe <_vfprintf_r+0xcd0>
    1730:	47ae                	c.lwsp	x15,200(x2)
    1732:	4685                	c.li	x13,1
    1734:	0605                	c.addi	x12,1
    1736:	0785                	c.addi	x15,1
    1738:	0000c597          	auipc	x11,0xc
    173c:	c4c58593          	addi	x11,x11,-948 # d384 <__clzsi2+0x34a>
    1740:	c054                	c.sw	x13,4(x8)
    1742:	c00c                	c.sw	x11,0(x8)
    1744:	c7b2                	c.swsp	x12,204(x2)
    1746:	c5be                	c.swsp	x15,200(x2)
    1748:	469d                	c.li	x13,7
    174a:	0421                	c.addi	x8,8
    174c:	4ef6c0e3          	blt	x13,x15,242c <_vfprintf_r+0x133e>
    1750:	57ba                	c.lwsp	x15,172(x2)
    1752:	4762                	c.lwsp	x14,24(x2)
    1754:	08e7d8e3          	bge	x15,x14,1fe4 <_vfprintf_r+0xef6>
    1758:	47ae                	c.lwsp	x15,200(x2)
    175a:	5712                	c.lwsp	x14,36(x2)
    175c:	56b2                	c.lwsp	x13,44(x2)
    175e:	963a                	c.add	x12,x14
    1760:	0785                	c.addi	x15,1
    1762:	c014                	c.sw	x13,0(x8)
    1764:	c058                	c.sw	x14,4(x8)
    1766:	c7b2                	c.swsp	x12,204(x2)
    1768:	c5be                	c.swsp	x15,200(x2)
    176a:	469d                	c.li	x13,7
    176c:	0421                	c.addi	x8,8
    176e:	22f6cfe3          	blt	x13,x15,21ac <_vfprintf_r+0x10be>
    1772:	47e2                	c.lwsp	x15,24(x2)
    1774:	fff78493          	addi	x9,x15,-1
    1778:	b6905fe3          	bge	x0,x9,12f6 <_vfprintf_r+0x208>
    177c:	4ac1                	c.li	x21,16
    177e:	46ae                	c.lwsp	x13,200(x2)
    1780:	0000cc97          	auipc	x25,0xc
    1784:	074c8c93          	addi	x25,x25,116 # d7f4 <zeroes.0>
    1788:	4c9ad5e3          	bge	x21,x9,2452 <_vfprintf_r+0x1364>
    178c:	87a2                	c.mv	x15,x8
    178e:	8856                	c.mv	x16,x21
    1790:	8466                	c.mv	x8,x25
    1792:	4d9d                	c.li	x27,7
    1794:	8ca6                	c.mv	x25,x9
    1796:	4b12                	c.lwsp	x22,4(x2)
    1798:	849a                	c.mv	x9,x6
    179a:	a021                	c.j	17a2 <_vfprintf_r+0x6b4>
    179c:	1cc1                	c.addi	x25,-16
    179e:	4b9856e3          	bge	x16,x25,244a <_vfprintf_r+0x135c>
    17a2:	0641                	c.addi	x12,16
    17a4:	0685                	c.addi	x13,1
    17a6:	c380                	c.sw	x8,0(x15)
    17a8:	0157a223          	sw	x21,4(x15)
    17ac:	c7b2                	c.swsp	x12,204(x2)
    17ae:	c5b6                	c.swsp	x13,200(x2)
    17b0:	07a1                	c.addi	x15,8
    17b2:	feddd5e3          	bge	x27,x13,179c <_vfprintf_r+0x6ae>
    17b6:	01d0                	c.addi4spn	x12,x2,196
    17b8:	45a2                	c.lwsp	x11,8(x2)
    17ba:	855a                	c.mv	x10,x22
    17bc:	4bf040ef          	jal	x1,647a <__sprint_r>
    17c0:	58051663          	bne	x10,x0,1d4c <_vfprintf_r+0xc5e>
    17c4:	463e                	c.lwsp	x12,204(x2)
    17c6:	46ae                	c.lwsp	x13,200(x2)
    17c8:	87d2                	c.mv	x15,x20
    17ca:	4841                	c.li	x16,16
    17cc:	bfc1                	c.j	179c <_vfprintf_r+0x6ae>
    17ce:	4752                	c.lwsp	x14,20(x2)
    17d0:	431c                	c.lw	x15,0(x14)
    17d2:	12f10623          	sb	x15,300(x2)
    17d6:	00470793          	addi	x15,x14,4
    17da:	835a                	c.mv	x6,x22
    17dc:	4d85                	c.li	x27,1
    17de:	0a0103a3          	sb	x0,167(x2)
    17e2:	ca3e                	c.swsp	x15,20(x2)
    17e4:	b451                	c.j	1268 <_vfprintf_r+0x17a>
    17e6:	020bf793          	andi	x15,x23,32
    17ea:	835a                	c.mv	x6,x22
    17ec:	efa9                	c.bnez	x15,1846 <_vfprintf_r+0x758>
    17ee:	4752                	c.lwsp	x14,20(x2)
    17f0:	010bf793          	andi	x15,x23,16
    17f4:	00072d03          	lw	x26,0(x14)
    17f8:	00470693          	addi	x13,x14,4
    17fc:	c399                	c.beqz	x15,1802 <_vfprintf_r+0x714>
    17fe:	0870106f          	jal	x0,3084 <_vfprintf_r+0x1f96>
    1802:	040bf793          	andi	x15,x23,64
    1806:	580788e3          	beq	x15,x0,2596 <_vfprintf_r+0x14a8>
    180a:	0d42                	c.slli	x26,0x10
    180c:	410d5d13          	srai	x26,x26,0x10
    1810:	41fd5d93          	srai	x27,x26,0x1f
    1814:	ca36                	c.swsp	x13,20(x2)
    1816:	876e                	c.mv	x14,x27
    1818:	04074363          	blt	x14,x0,185e <_vfprintf_r+0x770>
    181c:	0604c163          	blt	x9,x0,187e <_vfprintf_r+0x790>
    1820:	01bd67b3          	or	x15,x26,x27
    1824:	f7fbfb93          	andi	x23,x23,-129
    1828:	ebb9                	c.bnez	x15,187e <_vfprintf_r+0x790>
    182a:	e099                	c.bnez	x9,1830 <_vfprintf_r+0x742>
    182c:	10a0106f          	jal	x0,2936 <_vfprintf_r+0x1848>
    1830:	03000793          	addi	x15,x0,48
    1834:	a8b1                	c.j	1890 <_vfprintf_r+0x7a2>
    1836:	020bf793          	andi	x15,x23,32
    183a:	835a                	c.mv	x6,x22
    183c:	010bee13          	ori	x28,x23,16
    1840:	02078ae3          	beq	x15,x0,2074 <_vfprintf_r+0xf86>
    1844:	8bf2                	c.mv	x23,x28
    1846:	47d2                	c.lwsp	x15,20(x2)
    1848:	079d                	c.addi	x15,7
    184a:	9be1                	c.andi	x15,-8
    184c:	00878693          	addi	x13,x15,8
    1850:	43d8                	c.lw	x14,4(x15)
    1852:	ca36                	c.swsp	x13,20(x2)
    1854:	8dba                	c.mv	x27,x14
    1856:	0007ad03          	lw	x26,0(x15)
    185a:	fc0751e3          	bge	x14,x0,181c <_vfprintf_r+0x72e>
    185e:	02d00713          	addi	x14,x0,45
    1862:	01a037b3          	sltu	x15,x0,x26
    1866:	41b00db3          	sub	x27,x0,x27
    186a:	0ae103a3          	sb	x14,167(x2)
    186e:	40fd8db3          	sub	x27,x27,x15
    1872:	41a00d33          	sub	x26,x0,x26
    1876:	0004c463          	blt	x9,x0,187e <_vfprintf_r+0x790>
    187a:	f7fbfb93          	andi	x23,x23,-129
    187e:	140d9963          	bne	x27,x0,19d0 <_vfprintf_r+0x8e2>
    1882:	47a5                	c.li	x15,9
    1884:	15a7e663          	bltu	x15,x26,19d0 <_vfprintf_r+0x8e2>
    1888:	030d0793          	addi	x15,x26,48
    188c:	0ff7f793          	andi	x15,x15,255
    1890:	18f107a3          	sb	x15,399(x2)
    1894:	8d26                	c.mv	x26,x9
    1896:	00904363          	blt	x0,x9,189c <_vfprintf_r+0x7ae>
    189a:	4d05                	c.li	x26,1
    189c:	0a714783          	lbu	x15,167(x2)
    18a0:	4d85                	c.li	x27,1
    18a2:	18f10a93          	addi	x21,x2,399
    18a6:	c3c9                	c.beqz	x15,1928 <_vfprintf_r+0x83a>
    18a8:	0d05                	c.addi	x26,1
    18aa:	c802                	c.swsp	x0,16(x2)
    18ac:	d002                	c.swsp	x0,32(x2)
    18ae:	ce02                	c.swsp	x0,28(x2)
    18b0:	4b01                	c.li	x22,0
    18b2:	b2d9                	c.j	1278 <_vfprintf_r+0x18a>
    18b4:	47d2                	c.lwsp	x15,20(x2)
    18b6:	0007ab03          	lw	x22,0(x15)
    18ba:	0791                	c.addi	x15,4
    18bc:	720b5a63          	bge	x22,x0,1ff0 <_vfprintf_r+0xf02>
    18c0:	41600b33          	sub	x22,x0,x22
    18c4:	ca3e                	c.swsp	x15,20(x2)
    18c6:	004beb93          	ori	x23,x23,4
    18ca:	000c4883          	lbu	x17,0(x24)
    18ce:	b289                	c.j	1210 <_vfprintf_r+0x122>
    18d0:	008beb93          	ori	x23,x23,8
    18d4:	000c4883          	lbu	x17,0(x24)
    18d8:	ba25                	c.j	1210 <_vfprintf_r+0x122>
    18da:	020bf793          	andi	x15,x23,32
    18de:	835a                	c.mv	x6,x22
    18e0:	010be713          	ori	x14,x23,16
    18e4:	78078063          	beq	x15,x0,2064 <_vfprintf_r+0xf76>
    18e8:	47d2                	c.lwsp	x15,20(x2)
    18ea:	00778693          	addi	x13,x15,7
    18ee:	9ae1                	c.andi	x13,-8
    18f0:	00868793          	addi	x15,x13,8
    18f4:	ca3e                	c.swsp	x15,20(x2)
    18f6:	42d0                	c.lw	x12,4(x13)
    18f8:	429c                	c.lw	x15,0(x13)
    18fa:	0a0103a3          	sb	x0,167(x2)
    18fe:	bff77b93          	andi	x23,x14,-1025
    1902:	0204c863          	blt	x9,x0,1932 <_vfprintf_r+0x844>
    1906:	00c7e6b3          	or	x13,x15,x12
    190a:	b7f77b93          	andi	x23,x14,-1153
    190e:	e295                	c.bnez	x13,1932 <_vfprintf_r+0x844>
    1910:	e08d                	c.bnez	x9,1932 <_vfprintf_r+0x844>
    1912:	00177d13          	andi	x26,x14,1
    1916:	160d04e3          	beq	x26,x0,227e <_vfprintf_r+0x1190>
    191a:	03000793          	addi	x15,x0,48
    191e:	18f107a3          	sb	x15,399(x2)
    1922:	8dea                	c.mv	x27,x26
    1924:	18f10a93          	addi	x21,x2,399
    1928:	c802                	c.swsp	x0,16(x2)
    192a:	d002                	c.swsp	x0,32(x2)
    192c:	ce02                	c.swsp	x0,28(x2)
    192e:	4b01                	c.li	x22,0
    1930:	b2a1                	c.j	1278 <_vfprintf_r+0x18a>
    1932:	19010a93          	addi	x21,x2,400
    1936:	01d61693          	slli	x13,x12,0x1d
    193a:	0077f713          	andi	x14,x15,7
    193e:	838d                	c.srli	x15,0x3
    1940:	85d6                	c.mv	x11,x21
    1942:	03070713          	addi	x14,x14,48
    1946:	8fd5                	c.or	x15,x13
    1948:	820d                	c.srli	x12,0x3
    194a:	00c7e6b3          	or	x13,x15,x12
    194e:	feea8fa3          	sb	x14,-1(x21)
    1952:	1afd                	c.addi	x21,-1
    1954:	f2ed                	c.bnez	x13,1936 <_vfprintf_r+0x848>
    1956:	001bf793          	andi	x15,x23,1
    195a:	c78d                	c.beqz	x15,1984 <_vfprintf_r+0x896>
    195c:	03000793          	addi	x15,x0,48
    1960:	02f70263          	beq	x14,x15,1984 <_vfprintf_r+0x896>
    1964:	15f9                	c.addi	x11,-2
    1966:	fefa8fa3          	sb	x15,-1(x21)
    196a:	0b1c                	c.addi4spn	x15,x2,400
    196c:	40b78db3          	sub	x27,x15,x11
    1970:	8d26                	c.mv	x26,x9
    1972:	01b4d363          	bge	x9,x27,1978 <_vfprintf_r+0x88a>
    1976:	8d6e                	c.mv	x26,x27
    1978:	8aae                	c.mv	x21,x11
    197a:	c802                	c.swsp	x0,16(x2)
    197c:	d002                	c.swsp	x0,32(x2)
    197e:	ce02                	c.swsp	x0,28(x2)
    1980:	4b01                	c.li	x22,0
    1982:	b8dd                	c.j	1278 <_vfprintf_r+0x18a>
    1984:	0b1c                	c.addi4spn	x15,x2,400
    1986:	41578db3          	sub	x27,x15,x21
    198a:	8d26                	c.mv	x26,x9
    198c:	f9b4dee3          	bge	x9,x27,1928 <_vfprintf_r+0x83a>
    1990:	8d6e                	c.mv	x26,x27
    1992:	c802                	c.swsp	x0,16(x2)
    1994:	d002                	c.swsp	x0,32(x2)
    1996:	ce02                	c.swsp	x0,28(x2)
    1998:	4b01                	c.li	x22,0
    199a:	b8f9                	c.j	1278 <_vfprintf_r+0x18a>
    199c:	020bf793          	andi	x15,x23,32
    19a0:	835a                	c.mv	x6,x22
    19a2:	010bee13          	ori	x28,x23,16
    19a6:	10079763          	bne	x15,x0,1ab4 <_vfprintf_r+0x9c6>
    19aa:	47d2                	c.lwsp	x15,20(x2)
    19ac:	00478693          	addi	x13,x15,4
    19b0:	47d2                	c.lwsp	x15,20(x2)
    19b2:	0a0103a3          	sb	x0,167(x2)
    19b6:	0007ad03          	lw	x26,0(x15)
    19ba:	4d81                	c.li	x27,0
    19bc:	6c04c2e3          	blt	x9,x0,2880 <_vfprintf_r+0x1792>
    19c0:	f7fe7b93          	andi	x23,x28,-129
    19c4:	680d0a63          	beq	x26,x0,2058 <_vfprintf_r+0xf6a>
    19c8:	ca36                	c.swsp	x13,20(x2)
    19ca:	47a5                	c.li	x15,9
    19cc:	eba7fee3          	bgeu	x15,x26,1888 <_vfprintf_r+0x79a>
    19d0:	ccccd737          	lui	x14,0xccccd
    19d4:	883a                	c.mv	x16,x14
    19d6:	ccc80813          	addi	x16,x16,-820
    19da:	ccd70713          	addi	x14,x14,-819 # cccccccd <__heap_end+0xcc8ccccd>
    19de:	400bff13          	andi	x30,x23,1024
    19e2:	4581                	c.li	x11,0
    19e4:	0b10                	c.addi4spn	x12,x2,400
    19e6:	0ff00c93          	addi	x25,x0,255
    19ea:	8b1a                	c.mv	x22,x6
    19ec:	a8b9                	c.j	1a4a <_vfprintf_r+0x95c>
    19ee:	57a2                	c.lwsp	x15,40(x2)
    19f0:	0007c783          	lbu	x15,0(x15)
    19f4:	16b78ee3          	beq	x15,x11,2370 <_vfprintf_r+0x1282>
    19f8:	8e6a                	c.mv	x28,x26
    19fa:	856e                	c.mv	x10,x27
    19fc:	8656                	c.mv	x12,x21
    19fe:	01bd07b3          	add	x15,x26,x27
    1a02:	01a7b6b3          	sltu	x13,x15,x26
    1a06:	97b6                	c.add	x15,x13
    1a08:	02e7b6b3          	mulhu	x13,x15,x14
    1a0c:	0026de93          	srli	x29,x13,0x2
    1a10:	9af1                	c.andi	x13,-4
    1a12:	96f6                	c.add	x13,x29
    1a14:	8f95                	c.sub	x15,x13
    1a16:	40fd07b3          	sub	x15,x26,x15
    1a1a:	00fd36b3          	sltu	x13,x26,x15
    1a1e:	40dd86b3          	sub	x13,x27,x13
    1a22:	03078fb3          	mul	x31,x15,x16
    1a26:	02e686b3          	mul	x13,x13,x14
    1a2a:	02e7beb3          	mulhu	x29,x15,x14
    1a2e:	96fe                	c.add	x13,x31
    1a30:	02e787b3          	mul	x15,x15,x14
    1a34:	96f6                	c.add	x13,x29
    1a36:	01f69e93          	slli	x29,x13,0x1f
    1a3a:	0016dd93          	srli	x27,x13,0x1
    1a3e:	8385                	c.srli	x15,0x1
    1a40:	00feed33          	or	x26,x29,x15
    1a44:	e119                	c.bnez	x10,1a4a <_vfprintf_r+0x95c>
    1a46:	46a0106f          	jal	x0,2eb0 <_vfprintf_r+0x1dc2>
    1a4a:	01bd07b3          	add	x15,x26,x27
    1a4e:	01a7b6b3          	sltu	x13,x15,x26
    1a52:	96be                	c.add	x13,x15
    1a54:	02e6b533          	mulhu	x10,x13,x14
    1a58:	0585                	c.addi	x11,1
    1a5a:	fff60a93          	addi	x21,x12,-1
    1a5e:	00255e13          	srli	x28,x10,0x2
    1a62:	9971                	c.andi	x10,-4
    1a64:	9572                	c.add	x10,x28
    1a66:	8e89                	c.sub	x13,x10
    1a68:	40dd06b3          	sub	x13,x26,x13
    1a6c:	00dd3533          	sltu	x10,x26,x13
    1a70:	40ad8533          	sub	x10,x27,x10
    1a74:	02e6be33          	mulhu	x28,x13,x14
    1a78:	02e50533          	mul	x10,x10,x14
    1a7c:	02e686b3          	mul	x13,x13,x14
    1a80:	9572                	c.add	x10,x28
    1a82:	057e                	c.slli	x10,0x1f
    1a84:	8285                	c.srli	x13,0x1
    1a86:	8ec9                	c.or	x13,x10
    1a88:	00269513          	slli	x10,x13,0x2
    1a8c:	96aa                	c.add	x13,x10
    1a8e:	0686                	c.slli	x13,0x1
    1a90:	40dd06b3          	sub	x13,x26,x13
    1a94:	03068693          	addi	x13,x13,48
    1a98:	fed60fa3          	sb	x13,-1(x12)
    1a9c:	f40f19e3          	bne	x30,x0,19ee <_vfprintf_r+0x900>
    1aa0:	8e6a                	c.mv	x28,x26
    1aa2:	856e                	c.mv	x10,x27
    1aa4:	8656                	c.mv	x12,x21
    1aa6:	bfb1                	c.j	1a02 <_vfprintf_r+0x914>
    1aa8:	020bf793          	andi	x15,x23,32
    1aac:	835a                	c.mv	x6,x22
    1aae:	56078c63          	beq	x15,x0,2026 <_vfprintf_r+0xf38>
    1ab2:	8e5e                	c.mv	x28,x23
    1ab4:	47d2                	c.lwsp	x15,20(x2)
    1ab6:	079d                	c.addi	x15,7
    1ab8:	9be1                	c.andi	x15,-8
    1aba:	00878713          	addi	x14,x15,8
    1abe:	0a0103a3          	sb	x0,167(x2)
    1ac2:	ca3a                	c.swsp	x14,20(x2)
    1ac4:	0007ad03          	lw	x26,0(x15)
    1ac8:	0047ad83          	lw	x27,4(x15)
    1acc:	8bf2                	c.mv	x23,x28
    1ace:	da04c8e3          	blt	x9,x0,187e <_vfprintf_r+0x790>
    1ad2:	01bd67b3          	or	x15,x26,x27
    1ad6:	f7fe7b93          	andi	x23,x28,-129
    1ada:	da0792e3          	bne	x15,x0,187e <_vfprintf_r+0x790>
    1ade:	58049063          	bne	x9,x0,205e <_vfprintf_r+0xf70>
    1ae2:	4d81                	c.li	x27,0
    1ae4:	4d01                	c.li	x26,0
    1ae6:	19010a93          	addi	x21,x2,400
    1aea:	c802                	c.swsp	x0,16(x2)
    1aec:	d002                	c.swsp	x0,32(x2)
    1aee:	ce02                	c.swsp	x0,28(x2)
    1af0:	4b01                	c.li	x22,0
    1af2:	f86ff06f          	jal	x0,1278 <_vfprintf_r+0x18a>
    1af6:	000c4883          	lbu	x17,0(x24)
    1afa:	06800793          	addi	x15,x0,104
    1afe:	6cf88b63          	beq	x17,x15,21d4 <_vfprintf_r+0x10e6>
    1b02:	040beb93          	ori	x23,x23,64
    1b06:	f0aff06f          	jal	x0,1210 <_vfprintf_r+0x122>
    1b0a:	46d2                	c.lwsp	x13,20(x2)
    1b0c:	020bf793          	andi	x15,x23,32
    1b10:	00468713          	addi	x14,x13,4
    1b14:	4e079763          	bne	x15,x0,2002 <_vfprintf_r+0xf14>
    1b18:	010bf793          	andi	x15,x23,16
    1b1c:	1a0793e3          	bne	x15,x0,24c2 <_vfprintf_r+0x13d4>
    1b20:	040bf793          	andi	x15,x23,64
    1b24:	6a079ee3          	bne	x15,x0,29e0 <_vfprintf_r+0x18f2>
    1b28:	200bfe13          	andi	x28,x23,512
    1b2c:	180e0be3          	beq	x28,x0,24c2 <_vfprintf_r+0x13d4>
    1b30:	47d2                	c.lwsp	x15,20(x2)
    1b32:	439c                	c.lw	x15,0(x15)
    1b34:	46b2                	c.lwsp	x13,12(x2)
    1b36:	00d78023          	sb	x13,0(x15)
    1b3a:	ca3a                	c.swsp	x14,20(x2)
    1b3c:	8ae2                	c.mv	x21,x24
    1b3e:	feaff06f          	jal	x0,1328 <_vfprintf_r+0x23a>
    1b42:	000c4883          	lbu	x17,0(x24)
    1b46:	06c00793          	addi	x15,x0,108
    1b4a:	66f88e63          	beq	x17,x15,21c6 <_vfprintf_r+0x10d8>
    1b4e:	010beb93          	ori	x23,x23,16
    1b52:	ebeff06f          	jal	x0,1210 <_vfprintf_r+0x122>
    1b56:	67a1                	c.lui	x15,0x8
    1b58:	83078793          	addi	x15,x15,-2000 # 7830 <_isatty_r+0x28>
    1b5c:	4752                	c.lwsp	x14,20(x2)
    1b5e:	0af11423          	sh	x15,168(x2)
    1b62:	0a0103a3          	sb	x0,167(x2)
    1b66:	00470793          	addi	x15,x14,4
    1b6a:	835a                	c.mv	x6,x22
    1b6c:	4318                	c.lw	x14,0(x14)
    1b6e:	4681                	c.li	x13,0
    1b70:	5204c163          	blt	x9,x0,2092 <_vfprintf_r+0xfa4>
    1b74:	f7fbf813          	andi	x16,x23,-129
    1b78:	00286813          	ori	x16,x16,2
    1b7c:	14071ae3          	bne	x14,x0,24d0 <_vfprintf_r+0x13e2>
    1b80:	5e0480e3          	beq	x9,x0,2960 <_vfprintf_r+0x1872>
    1b84:	03000713          	addi	x14,x0,48
    1b88:	ca3e                	c.swsp	x15,20(x2)
    1b8a:	8bc2                	c.mv	x23,x16
    1b8c:	18e107a3          	sb	x14,399(x2)
    1b90:	8d26                	c.mv	x26,x9
    1b92:	c802                	c.swsp	x0,16(x2)
    1b94:	4d85                	c.li	x27,1
    1b96:	d002                	c.swsp	x0,32(x2)
    1b98:	ce02                	c.swsp	x0,28(x2)
    1b9a:	4b01                	c.li	x22,0
    1b9c:	4f81                	c.li	x31,0
    1b9e:	07800893          	addi	x17,x0,120
    1ba2:	18f10a93          	addi	x21,x2,399
    1ba6:	aba1                	c.j	20fe <_vfprintf_r+0x1010>
    1ba8:	020bf793          	andi	x15,x23,32
    1bac:	835a                	c.mv	x6,x22
    1bae:	4e079063          	bne	x15,x0,208e <_vfprintf_r+0xfa0>
    1bb2:	46d2                	c.lwsp	x13,20(x2)
    1bb4:	010bf713          	andi	x14,x23,16
    1bb8:	429c                	c.lw	x15,0(x13)
    1bba:	0691                	c.addi	x13,4
    1bbc:	c319                	c.beqz	x14,1bc2 <_vfprintf_r+0xad4>
    1bbe:	4cc0106f          	jal	x0,308a <_vfprintf_r+0x1f9c>
    1bc2:	040bf713          	andi	x14,x23,64
    1bc6:	180709e3          	beq	x14,x0,2558 <_vfprintf_r+0x146a>
    1bca:	07c2                	c.slli	x15,0x10
    1bcc:	83c1                	c.srli	x15,0x10
    1bce:	ca36                	c.swsp	x13,20(x2)
    1bd0:	875e                	c.mv	x14,x23
    1bd2:	4601                	c.li	x12,0
    1bd4:	b31d                	c.j	18fa <_vfprintf_r+0x80c>
    1bd6:	4c92                	c.lwsp	x25,4(x2)
    1bd8:	8566                	c.mv	x10,x25
    1bda:	5c0050ef          	jal	x1,719a <_localeconv_r>
    1bde:	415c                	c.lw	x15,4(x10)
    1be0:	853e                	c.mv	x10,x15
    1be2:	dc3e                	c.swsp	x15,56(x2)
    1be4:	bfcff0ef          	jal	x1,fe0 <strlen>
    1be8:	87aa                	c.mv	x15,x10
    1bea:	8566                	c.mv	x10,x25
    1bec:	c0be                	c.swsp	x15,64(x2)
    1bee:	8cbe                	c.mv	x25,x15
    1bf0:	5aa050ef          	jal	x1,719a <_localeconv_r>
    1bf4:	4518                	c.lw	x14,8(x10)
    1bf6:	d43a                	c.swsp	x14,40(x2)
    1bf8:	000c4883          	lbu	x17,0(x24)
    1bfc:	e00c8a63          	beq	x25,x0,1210 <_vfprintf_r+0x122>
    1c00:	e0070863          	beq	x14,x0,1210 <_vfprintf_r+0x122>
    1c04:	00074783          	lbu	x15,0(x14)
    1c08:	e0078463          	beq	x15,x0,1210 <_vfprintf_r+0x122>
    1c0c:	400beb93          	ori	x23,x23,1024
    1c10:	e00ff06f          	jal	x0,1210 <_vfprintf_r+0x122>
    1c14:	001beb93          	ori	x23,x23,1
    1c18:	000c4883          	lbu	x17,0(x24)
    1c1c:	df4ff06f          	jal	x0,1210 <_vfprintf_r+0x122>
    1c20:	0a714783          	lbu	x15,167(x2)
    1c24:	000c4883          	lbu	x17,0(x24)
    1c28:	de079463          	bne	x15,x0,1210 <_vfprintf_r+0x122>
    1c2c:	02000793          	addi	x15,x0,32
    1c30:	0af103a3          	sb	x15,167(x2)
    1c34:	ddcff06f          	jal	x0,1210 <_vfprintf_r+0x122>
    1c38:	080beb93          	ori	x23,x23,128
    1c3c:	000c4883          	lbu	x17,0(x24)
    1c40:	dd0ff06f          	jal	x0,1210 <_vfprintf_r+0x122>
    1c44:	02b00793          	addi	x15,x0,43
    1c48:	0af103a3          	sb	x15,167(x2)
    1c4c:	000c4883          	lbu	x17,0(x24)
    1c50:	dc0ff06f          	jal	x0,1210 <_vfprintf_r+0x122>
    1c54:	000c4883          	lbu	x17,0(x24)
    1c58:	02a00793          	addi	x15,x0,42
    1c5c:	001c0693          	addi	x13,x24,1
    1c60:	00f89463          	bne	x17,x15,1c68 <_vfprintf_r+0xb7a>
    1c64:	6240106f          	jal	x0,3288 <_vfprintf_r+0x219a>
    1c68:	4625                	c.li	x12,9
    1c6a:	fd088793          	addi	x15,x17,-48
    1c6e:	4481                	c.li	x9,0
    1c70:	02f66063          	bltu	x12,x15,1c90 <_vfprintf_r+0xba2>
    1c74:	00249713          	slli	x14,x9,0x2
    1c78:	94ba                	c.add	x9,x14
    1c7a:	0486                	c.slli	x9,0x1
    1c7c:	0006c883          	lbu	x17,0(x13)
    1c80:	94be                	c.add	x9,x15
    1c82:	fd088793          	addi	x15,x17,-48
    1c86:	0685                	c.addi	x13,1
    1c88:	fef676e3          	bgeu	x12,x15,1c74 <_vfprintf_r+0xb86>
    1c8c:	4804cb63          	blt	x9,x0,2122 <_vfprintf_r+0x1034>
    1c90:	8c36                	c.mv	x24,x13
    1c92:	d80ff06f          	jal	x0,1212 <_vfprintf_r+0x124>
    1c96:	41a306b3          	sub	x13,x6,x26
    1c9a:	e2d05963          	bge	x0,x13,12cc <_vfprintf_r+0x1de>
    1c9e:	4f41                	c.li	x30,16
    1ca0:	45ae                	c.lwsp	x11,200(x2)
    1ca2:	0000cc97          	auipc	x25,0xc
    1ca6:	b52c8c93          	addi	x25,x25,-1198 # d7f4 <zeroes.0>
    1caa:	06df5163          	bge	x30,x13,1d0c <_vfprintf_r+0xc1e>
    1cae:	8766                	c.mv	x14,x25
    1cb0:	87a2                	c.mv	x15,x8
    1cb2:	8cd6                	c.mv	x25,x21
    1cb4:	82fa                	c.mv	x5,x30
    1cb6:	8aa6                	c.mv	x21,x9
    1cb8:	4f9d                	c.li	x31,7
    1cba:	d81a                	c.swsp	x6,48(x2)
    1cbc:	8436                	c.mv	x8,x13
    1cbe:	de46                	c.swsp	x17,60(x2)
    1cc0:	84ba                	c.mv	x9,x14
    1cc2:	a021                	c.j	1cca <_vfprintf_r+0xbdc>
    1cc4:	1441                	c.addi	x8,-16
    1cc6:	0282db63          	bge	x5,x8,1cfc <_vfprintf_r+0xc0e>
    1cca:	0641                	c.addi	x12,16
    1ccc:	0585                	c.addi	x11,1
    1cce:	c384                	c.sw	x9,0(x15)
    1cd0:	01e7a223          	sw	x30,4(x15)
    1cd4:	c7b2                	c.swsp	x12,204(x2)
    1cd6:	c5ae                	c.swsp	x11,200(x2)
    1cd8:	07a1                	c.addi	x15,8
    1cda:	febfd5e3          	bge	x31,x11,1cc4 <_vfprintf_r+0xbd6>
    1cde:	01d0                	c.addi4spn	x12,x2,196
    1ce0:	45a2                	c.lwsp	x11,8(x2)
    1ce2:	4512                	c.lwsp	x10,4(x2)
    1ce4:	796040ef          	jal	x1,647a <__sprint_r>
    1ce8:	e135                	c.bnez	x10,1d4c <_vfprintf_r+0xc5e>
    1cea:	42c1                	c.li	x5,16
    1cec:	1441                	c.addi	x8,-16
    1cee:	463e                	c.lwsp	x12,204(x2)
    1cf0:	45ae                	c.lwsp	x11,200(x2)
    1cf2:	87d2                	c.mv	x15,x20
    1cf4:	4f9d                	c.li	x31,7
    1cf6:	8f16                	c.mv	x30,x5
    1cf8:	fc82c9e3          	blt	x5,x8,1cca <_vfprintf_r+0xbdc>
    1cfc:	86a2                	c.mv	x13,x8
    1cfe:	843e                	c.mv	x8,x15
    1d00:	87a6                	c.mv	x15,x9
    1d02:	5342                	c.lwsp	x6,48(x2)
    1d04:	84d6                	c.mv	x9,x21
    1d06:	58f2                	c.lwsp	x17,60(x2)
    1d08:	8ae6                	c.mv	x21,x25
    1d0a:	8cbe                	c.mv	x25,x15
    1d0c:	9636                	c.add	x12,x13
    1d0e:	0585                	c.addi	x11,1
    1d10:	01942023          	sw	x25,0(x8)
    1d14:	c054                	c.sw	x13,4(x8)
    1d16:	c7b2                	c.swsp	x12,204(x2)
    1d18:	c5ae                	c.swsp	x11,200(x2)
    1d1a:	479d                	c.li	x15,7
    1d1c:	0421                	c.addi	x8,8
    1d1e:	dab7d763          	bge	x15,x11,12cc <_vfprintf_r+0x1de>
    1d22:	01d0                	c.addi4spn	x12,x2,196
    1d24:	45a2                	c.lwsp	x11,8(x2)
    1d26:	4512                	c.lwsp	x10,4(x2)
    1d28:	de46                	c.swsp	x17,60(x2)
    1d2a:	d81a                	c.swsp	x6,48(x2)
    1d2c:	74e040ef          	jal	x1,647a <__sprint_r>
    1d30:	ed11                	c.bnez	x10,1d4c <_vfprintf_r+0xc5e>
    1d32:	463e                	c.lwsp	x12,204(x2)
    1d34:	8452                	c.mv	x8,x20
    1d36:	5342                	c.lwsp	x6,48(x2)
    1d38:	58f2                	c.lwsp	x17,60(x2)
    1d3a:	d92ff06f          	jal	x0,12cc <_vfprintf_r+0x1de>
    1d3e:	01d0                	c.addi4spn	x12,x2,196
    1d40:	45a2                	c.lwsp	x11,8(x2)
    1d42:	4512                	c.lwsp	x10,4(x2)
    1d44:	736040ef          	jal	x1,647a <__sprint_r>
    1d48:	dc050763          	beq	x10,x0,1316 <_vfprintf_r+0x228>
    1d4c:	43c2                	c.lwsp	x7,16(x2)
    1d4e:	4ca2                	c.lwsp	x25,8(x2)
    1d50:	00038663          	beq	x7,x0,1d5c <_vfprintf_r+0xc6e>
    1d54:	859e                	c.mv	x11,x7
    1d56:	4512                	c.lwsp	x10,4(x2)
    1d58:	344020ef          	jal	x1,409c <_free_r>
    1d5c:	00ccd783          	lhu	x15,12(x25)
    1d60:	1c412483          	lw	x9,452(x2)
    1d64:	1c012903          	lw	x18,448(x2)
    1d68:	0407f793          	andi	x15,x15,64
    1d6c:	1bc12983          	lw	x19,444(x2)
    1d70:	1b812a03          	lw	x20,440(x2)
    1d74:	1b412a83          	lw	x21,436(x2)
    1d78:	1b012b03          	lw	x22,432(x2)
    1d7c:	1ac12b83          	lw	x23,428(x2)
    1d80:	1a812c03          	lw	x24,424(x2)
    1d84:	1a012d03          	lw	x26,416(x2)
    1d88:	19c12d83          	lw	x27,412(x2)
    1d8c:	e2079263          	bne	x15,x0,13b0 <_vfprintf_r+0x2c2>
    1d90:	1cc12083          	lw	x1,460(x2)
    1d94:	1c812403          	lw	x8,456(x2)
    1d98:	4532                	c.lwsp	x10,12(x2)
    1d9a:	1a412c83          	lw	x25,420(x2)
    1d9e:	6179                	c.addi16sp	x2,464
    1da0:	8082                	c.jr	x1
    1da2:	01d0                	c.addi4spn	x12,x2,196
    1da4:	45a2                	c.lwsp	x11,8(x2)
    1da6:	4512                	c.lwsp	x10,4(x2)
    1da8:	de46                	c.swsp	x17,60(x2)
    1daa:	d81a                	c.swsp	x6,48(x2)
    1dac:	6ce040ef          	jal	x1,647a <__sprint_r>
    1db0:	fd51                	c.bnez	x10,1d4c <_vfprintf_r+0xc5e>
    1db2:	463e                	c.lwsp	x12,204(x2)
    1db4:	8452                	c.mv	x8,x20
    1db6:	58f2                	c.lwsp	x17,60(x2)
    1db8:	5342                	c.lwsp	x6,48(x2)
    1dba:	d0aff06f          	jal	x0,12c4 <_vfprintf_r+0x1d6>
    1dbe:	55ba                	c.lwsp	x11,172(x2)
    1dc0:	5cb05c63          	bge	x0,x11,2398 <_vfprintf_r+0x12aa>
    1dc4:	47e2                	c.lwsp	x15,24(x2)
    1dc6:	84da                	c.mv	x9,x22
    1dc8:	3567c963          	blt	x15,x22,211a <_vfprintf_r+0x102c>
    1dcc:	00905e63          	bge	x0,x9,1de8 <_vfprintf_r+0xcfa>
    1dd0:	47ae                	c.lwsp	x15,200(x2)
    1dd2:	9626                	c.add	x12,x9
    1dd4:	0785                	c.addi	x15,1
    1dd6:	01542023          	sw	x21,0(x8)
    1dda:	c044                	c.sw	x9,4(x8)
    1ddc:	c7b2                	c.swsp	x12,204(x2)
    1dde:	c5be                	c.swsp	x15,200(x2)
    1de0:	469d                	c.li	x13,7
    1de2:	0421                	c.addi	x8,8
    1de4:	36f6c1e3          	blt	x13,x15,2946 <_vfprintf_r+0x1858>
    1de8:	fff4c793          	xori	x15,x9,-1
    1dec:	87fd                	c.srai	x15,0x1f
    1dee:	8cfd                	c.and	x9,x15
    1df0:	409b04b3          	sub	x9,x22,x9
    1df4:	40904863          	blt	x0,x9,2204 <_vfprintf_r+0x1116>
    1df8:	400bf793          	andi	x15,x23,1024
    1dfc:	016a8cb3          	add	x25,x21,x22
    1e00:	020793e3          	bne	x15,x0,2626 <_vfprintf_r+0x1538>
    1e04:	54ba                	c.lwsp	x9,172(x2)
    1e06:	4762                	c.lwsp	x14,24(x2)
    1e08:	00e4c663          	blt	x9,x14,1e14 <_vfprintf_r+0xd26>
    1e0c:	001bf793          	andi	x15,x23,1
    1e10:	380782e3          	beq	x15,x0,2994 <_vfprintf_r+0x18a6>
    1e14:	47ae                	c.lwsp	x15,200(x2)
    1e16:	5712                	c.lwsp	x14,36(x2)
    1e18:	56b2                	c.lwsp	x13,44(x2)
    1e1a:	963a                	c.add	x12,x14
    1e1c:	0785                	c.addi	x15,1
    1e1e:	c014                	c.sw	x13,0(x8)
    1e20:	c058                	c.sw	x14,4(x8)
    1e22:	c7b2                	c.swsp	x12,204(x2)
    1e24:	c5be                	c.swsp	x15,200(x2)
    1e26:	469d                	c.li	x13,7
    1e28:	0421                	c.addi	x8,8
    1e2a:	00f6d463          	bge	x13,x15,1e32 <_vfprintf_r+0xd44>
    1e2e:	17e0106f          	jal	x0,2fac <_vfprintf_r+0x1ebe>
    1e32:	47e2                	c.lwsp	x15,24(x2)
    1e34:	9abe                	c.add	x21,x15
    1e36:	419a8ab3          	sub	x21,x21,x25
    1e3a:	409784b3          	sub	x9,x15,x9
    1e3e:	0154d363          	bge	x9,x21,1e44 <_vfprintf_r+0xd56>
    1e42:	8aa6                	c.mv	x21,x9
    1e44:	03505163          	bge	x0,x21,1e66 <_vfprintf_r+0xd78>
    1e48:	47ae                	c.lwsp	x15,200(x2)
    1e4a:	9656                	c.add	x12,x21
    1e4c:	0785                	c.addi	x15,1
    1e4e:	01942023          	sw	x25,0(x8)
    1e52:	01542223          	sw	x21,4(x8)
    1e56:	c7b2                	c.swsp	x12,204(x2)
    1e58:	c5be                	c.swsp	x15,200(x2)
    1e5a:	469d                	c.li	x13,7
    1e5c:	0421                	c.addi	x8,8
    1e5e:	00f6d463          	bge	x13,x15,1e66 <_vfprintf_r+0xd78>
    1e62:	1cc0106f          	jal	x0,302e <_vfprintf_r+0x1f40>
    1e66:	fffac793          	xori	x15,x21,-1
    1e6a:	87fd                	c.srai	x15,0x1f
    1e6c:	00fafab3          	and	x21,x21,x15
    1e70:	415484b3          	sub	x9,x9,x21
    1e74:	c8905163          	bge	x0,x9,12f6 <_vfprintf_r+0x208>
    1e78:	4ac1                	c.li	x21,16
    1e7a:	46ae                	c.lwsp	x13,200(x2)
    1e7c:	0000cc97          	auipc	x25,0xc
    1e80:	978c8c93          	addi	x25,x25,-1672 # d7f4 <zeroes.0>
    1e84:	5c9ad763          	bge	x21,x9,2452 <_vfprintf_r+0x1364>
    1e88:	87a2                	c.mv	x15,x8
    1e8a:	8856                	c.mv	x16,x21
    1e8c:	8466                	c.mv	x8,x25
    1e8e:	4d9d                	c.li	x27,7
    1e90:	8ca6                	c.mv	x25,x9
    1e92:	4b12                	c.lwsp	x22,4(x2)
    1e94:	849a                	c.mv	x9,x6
    1e96:	a021                	c.j	1e9e <_vfprintf_r+0xdb0>
    1e98:	1cc1                	c.addi	x25,-16
    1e9a:	5b985863          	bge	x16,x25,244a <_vfprintf_r+0x135c>
    1e9e:	0641                	c.addi	x12,16
    1ea0:	0685                	c.addi	x13,1
    1ea2:	c380                	c.sw	x8,0(x15)
    1ea4:	0157a223          	sw	x21,4(x15)
    1ea8:	c7b2                	c.swsp	x12,204(x2)
    1eaa:	c5b6                	c.swsp	x13,200(x2)
    1eac:	07a1                	c.addi	x15,8
    1eae:	feddd5e3          	bge	x27,x13,1e98 <_vfprintf_r+0xdaa>
    1eb2:	01d0                	c.addi4spn	x12,x2,196
    1eb4:	45a2                	c.lwsp	x11,8(x2)
    1eb6:	855a                	c.mv	x10,x22
    1eb8:	5c2040ef          	jal	x1,647a <__sprint_r>
    1ebc:	e80518e3          	bne	x10,x0,1d4c <_vfprintf_r+0xc5e>
    1ec0:	463e                	c.lwsp	x12,204(x2)
    1ec2:	46ae                	c.lwsp	x13,200(x2)
    1ec4:	87d2                	c.mv	x15,x20
    1ec6:	4841                	c.li	x16,16
    1ec8:	bfc1                	c.j	1e98 <_vfprintf_r+0xdaa>
    1eca:	46ae                	c.lwsp	x13,200(x2)
    1ecc:	4fc1                	c.li	x31,16
    1ece:	8536                	c.mv	x10,x13
    1ed0:	0000c697          	auipc	x13,0xc
    1ed4:	91468693          	addi	x13,x13,-1772 # d7e4 <blanks.1>
    1ed8:	04ffde63          	bge	x31,x15,1f34 <_vfprintf_r+0xe46>
    1edc:	8722                	c.mv	x14,x8
    1ede:	c2a6                	c.swsp	x9,68(x2)
    1ee0:	83fe                	c.mv	x7,x31
    1ee2:	429d                	c.li	x5,7
    1ee4:	d81a                	c.swsp	x6,48(x2)
    1ee6:	843e                	c.mv	x8,x15
    1ee8:	de46                	c.swsp	x17,60(x2)
    1eea:	84b6                	c.mv	x9,x13
    1eec:	a021                	c.j	1ef4 <_vfprintf_r+0xe06>
    1eee:	1441                	c.addi	x8,-16
    1ef0:	0283dc63          	bge	x7,x8,1f28 <_vfprintf_r+0xe3a>
    1ef4:	05c1                	c.addi	x11,16
    1ef6:	0505                	c.addi	x10,1
    1ef8:	c304                	c.sw	x9,0(x14)
    1efa:	01f72223          	sw	x31,4(x14)
    1efe:	c7ae                	c.swsp	x11,204(x2)
    1f00:	c5aa                	c.swsp	x10,200(x2)
    1f02:	0721                	c.addi	x14,8
    1f04:	fea2d5e3          	bge	x5,x10,1eee <_vfprintf_r+0xe00>
    1f08:	01d0                	c.addi4spn	x12,x2,196
    1f0a:	45a2                	c.lwsp	x11,8(x2)
    1f0c:	4512                	c.lwsp	x10,4(x2)
    1f0e:	56c040ef          	jal	x1,647a <__sprint_r>
    1f12:	e2051de3          	bne	x10,x0,1d4c <_vfprintf_r+0xc5e>
    1f16:	43c1                	c.li	x7,16
    1f18:	1441                	c.addi	x8,-16
    1f1a:	45be                	c.lwsp	x11,204(x2)
    1f1c:	452e                	c.lwsp	x10,200(x2)
    1f1e:	8752                	c.mv	x14,x20
    1f20:	429d                	c.li	x5,7
    1f22:	8f9e                	c.mv	x31,x7
    1f24:	fc83c8e3          	blt	x7,x8,1ef4 <_vfprintf_r+0xe06>
    1f28:	87a2                	c.mv	x15,x8
    1f2a:	86a6                	c.mv	x13,x9
    1f2c:	5342                	c.lwsp	x6,48(x2)
    1f2e:	843a                	c.mv	x8,x14
    1f30:	58f2                	c.lwsp	x17,60(x2)
    1f32:	4496                	c.lwsp	x9,68(x2)
    1f34:	00b78633          	add	x12,x15,x11
    1f38:	0505                	c.addi	x10,1
    1f3a:	c05c                	c.sw	x15,4(x8)
    1f3c:	c7b2                	c.swsp	x12,204(x2)
    1f3e:	c5aa                	c.swsp	x10,200(x2)
    1f40:	c014                	c.sw	x13,0(x8)
    1f42:	479d                	c.li	x15,7
    1f44:	4aa7c163          	blt	x15,x10,23e6 <_vfprintf_r+0x12f8>
    1f48:	0a714783          	lbu	x15,167(x2)
    1f4c:	0421                	c.addi	x8,8
    1f4e:	e7d5                	c.bnez	x15,1ffa <_vfprintf_r+0xf0c>
    1f50:	b60c8e63          	beq	x25,x0,12cc <_vfprintf_r+0x1de>
    1f54:	4c81                	c.li	x25,0
    1f56:	b56ff06f          	jal	x0,12ac <_vfprintf_r+0x1be>
    1f5a:	00bbf7b3          	and	x15,x23,x11
    1f5e:	d6079163          	bne	x15,x0,14c0 <_vfprintf_r+0x3d2>
    1f62:	01542023          	sw	x21,0(x8)
    1f66:	c04c                	c.sw	x11,4(x8)
    1f68:	c7ee                	c.swsp	x27,204(x2)
    1f6a:	c5a6                	c.swsp	x9,200(x2)
    1f6c:	479d                	c.li	x15,7
    1f6e:	dc97d363          	bge	x15,x9,1534 <_vfprintf_r+0x446>
    1f72:	01d0                	c.addi4spn	x12,x2,196
    1f74:	45a2                	c.lwsp	x11,8(x2)
    1f76:	4512                	c.lwsp	x10,4(x2)
    1f78:	ce1a                	c.swsp	x6,28(x2)
    1f7a:	500040ef          	jal	x1,647a <__sprint_r>
    1f7e:	dc0517e3          	bne	x10,x0,1d4c <_vfprintf_r+0xc5e>
    1f82:	4dbe                	c.lwsp	x27,204(x2)
    1f84:	44ae                	c.lwsp	x9,200(x2)
    1f86:	86d2                	c.mv	x13,x20
    1f88:	4372                	c.lwsp	x6,28(x2)
    1f8a:	daaff06f          	jal	x0,1534 <_vfprintf_r+0x446>
    1f8e:	4785                	c.li	x15,1
    1f90:	4762                	c.lwsp	x14,24(x2)
    1f92:	dae7d163          	bge	x15,x14,1534 <_vfprintf_r+0x446>
    1f96:	47c5                	c.li	x15,17
    1f98:	0000cc97          	auipc	x25,0xc
    1f9c:	85cc8c93          	addi	x25,x25,-1956 # d7f4 <zeroes.0>
    1fa0:	54e7da63          	bge	x15,x14,24f4 <_vfprintf_r+0x1406>
    1fa4:	8b66                	c.mv	x22,x25
    1fa6:	4ac1                	c.li	x21,16
    1fa8:	8cde                	c.mv	x25,x23
    1faa:	481d                	c.li	x16,7
    1fac:	8b9a                	c.mv	x23,x6
    1fae:	a021                	c.j	1fb6 <_vfprintf_r+0xec8>
    1fb0:	1441                	c.addi	x8,-16
    1fb2:	528ade63          	bge	x21,x8,24ee <_vfprintf_r+0x1400>
    1fb6:	0dc1                	c.addi	x27,16
    1fb8:	0485                	c.addi	x9,1
    1fba:	0166a023          	sw	x22,0(x13)
    1fbe:	0156a223          	sw	x21,4(x13)
    1fc2:	c7ee                	c.swsp	x27,204(x2)
    1fc4:	c5a6                	c.swsp	x9,200(x2)
    1fc6:	06a1                	c.addi	x13,8
    1fc8:	fe9854e3          	bge	x16,x9,1fb0 <_vfprintf_r+0xec2>
    1fcc:	01d0                	c.addi4spn	x12,x2,196
    1fce:	45a2                	c.lwsp	x11,8(x2)
    1fd0:	4512                	c.lwsp	x10,4(x2)
    1fd2:	4a8040ef          	jal	x1,647a <__sprint_r>
    1fd6:	d6051be3          	bne	x10,x0,1d4c <_vfprintf_r+0xc5e>
    1fda:	4dbe                	c.lwsp	x27,204(x2)
    1fdc:	44ae                	c.lwsp	x9,200(x2)
    1fde:	86d2                	c.mv	x13,x20
    1fe0:	481d                	c.li	x16,7
    1fe2:	b7f9                	c.j	1fb0 <_vfprintf_r+0xec2>
    1fe4:	001bf793          	andi	x15,x23,1
    1fe8:	b0078763          	beq	x15,x0,12f6 <_vfprintf_r+0x208>
    1fec:	f6cff06f          	jal	x0,1758 <_vfprintf_r+0x66a>
    1ff0:	ca3e                	c.swsp	x15,20(x2)
    1ff2:	000c4883          	lbu	x17,0(x24)
    1ff6:	a1aff06f          	jal	x0,1210 <_vfprintf_r+0x122>
    1ffa:	87e6                	c.mv	x15,x25
    1ffc:	4c81                	c.li	x25,0
    1ffe:	a90ff06f          	jal	x0,128e <_vfprintf_r+0x1a0>
    2002:	4632                	c.lwsp	x12,12(x2)
    2004:	429c                	c.lw	x15,0(x13)
    2006:	41f65693          	srai	x13,x12,0x1f
    200a:	c390                	c.sw	x12,0(x15)
    200c:	c3d4                	c.sw	x13,4(x15)
    200e:	ca3a                	c.swsp	x14,20(x2)
    2010:	b635                	c.j	1b3c <_vfprintf_r+0xa4e>
    2012:	4752                	c.lwsp	x14,20(x2)
    2014:	431c                	c.lw	x15,0(x14)
    2016:	0711                	c.addi	x14,4
    2018:	4390                	c.lw	x12,0(x15)
    201a:	ca3a                	c.swsp	x14,20(x2)
    201c:	43d4                	c.lw	x13,4(x15)
    201e:	4798                	c.lw	x14,8(x15)
    2020:	47dc                	c.lw	x15,12(x15)
    2022:	bc4ff06f          	jal	x0,13e6 <_vfprintf_r+0x2f8>
    2026:	46d2                	c.lwsp	x13,20(x2)
    2028:	010bf793          	andi	x15,x23,16
    202c:	4298                	c.lw	x14,0(x13)
    202e:	0691                	c.addi	x13,4
    2030:	c399                	c.beqz	x15,2036 <_vfprintf_r+0xf48>
    2032:	05e0106f          	jal	x0,3090 <_vfprintf_r+0x1fa2>
    2036:	040bf793          	andi	x15,x23,64
    203a:	52078a63          	beq	x15,x0,256e <_vfprintf_r+0x1480>
    203e:	01071d13          	slli	x26,x14,0x10
    2042:	0a0103a3          	sb	x0,167(x2)
    2046:	010d5d13          	srli	x26,x26,0x10
    204a:	4d81                	c.li	x27,0
    204c:	9604cee3          	blt	x9,x0,19c8 <_vfprintf_r+0x8da>
    2050:	f7fbfb93          	andi	x23,x23,-129
    2054:	960d1ae3          	bne	x26,x0,19c8 <_vfprintf_r+0x8da>
    2058:	ca36                	c.swsp	x13,20(x2)
    205a:	22048263          	beq	x9,x0,227e <_vfprintf_r+0x1190>
    205e:	4d01                	c.li	x26,0
    2060:	829ff06f          	jal	x0,1888 <_vfprintf_r+0x79a>
    2064:	47d2                	c.lwsp	x15,20(x2)
    2066:	00478693          	addi	x13,x15,4
    206a:	47d2                	c.lwsp	x15,20(x2)
    206c:	439c                	c.lw	x15,0(x15)
    206e:	4601                	c.li	x12,0
    2070:	ca36                	c.swsp	x13,20(x2)
    2072:	b061                	c.j	18fa <_vfprintf_r+0x80c>
    2074:	47d2                	c.lwsp	x15,20(x2)
    2076:	00478693          	addi	x13,x15,4
    207a:	47d2                	c.lwsp	x15,20(x2)
    207c:	0007ad03          	lw	x26,0(x15)
    2080:	41fd5d93          	srai	x27,x26,0x1f
    2084:	ca36                	c.swsp	x13,20(x2)
    2086:	8bf2                	c.mv	x23,x28
    2088:	876e                	c.mv	x14,x27
    208a:	f8eff06f          	jal	x0,1818 <_vfprintf_r+0x72a>
    208e:	875e                	c.mv	x14,x23
    2090:	b8a1                	c.j	18e8 <_vfprintf_r+0x7fa>
    2092:	00f77693          	andi	x13,x14,15
    2096:	0000b597          	auipc	x11,0xb
    209a:	2be58593          	addi	x11,x11,702 # d354 <__clzsi2+0x31a>
    209e:	96ae                	c.add	x13,x11
    20a0:	0006c683          	lbu	x13,0(x13)
    20a4:	18d107a3          	sb	x13,399(x2)
    20a8:	8311                	c.srli	x14,0x4
    20aa:	002beb93          	ori	x23,x23,2
    20ae:	4681                	c.li	x13,0
    20b0:	e319                	c.bnez	x14,20b6 <_vfprintf_r+0xfc8>
    20b2:	1fe0106f          	jal	x0,32b0 <_vfprintf_r+0x21c2>
    20b6:	ca3e                	c.swsp	x15,20(x2)
    20b8:	4609                	c.li	x12,2
    20ba:	07800893          	addi	x17,x0,120
    20be:	18f10a93          	addi	x21,x2,399
    20c2:	00f77793          	andi	x15,x14,15
    20c6:	01c69513          	slli	x10,x13,0x1c
    20ca:	97ae                	c.add	x15,x11
    20cc:	8311                	c.srli	x14,0x4
    20ce:	0007c783          	lbu	x15,0(x15)
    20d2:	8f49                	c.or	x14,x10
    20d4:	8291                	c.srli	x13,0x4
    20d6:	fefa8fa3          	sb	x15,-1(x21)
    20da:	00d767b3          	or	x15,x14,x13
    20de:	1afd                	c.addi	x21,-1
    20e0:	f3ed                	c.bnez	x15,20c2 <_vfprintf_r+0xfd4>
    20e2:	0b1c                	c.addi4spn	x15,x2,400
    20e4:	41578db3          	sub	x27,x15,x21
    20e8:	8d26                	c.mv	x26,x9
    20ea:	01b4d363          	bge	x9,x27,20f0 <_vfprintf_r+0x1002>
    20ee:	8d6e                	c.mv	x26,x27
    20f0:	c802                	c.swsp	x0,16(x2)
    20f2:	d002                	c.swsp	x0,32(x2)
    20f4:	ce02                	c.swsp	x0,28(x2)
    20f6:	4b01                	c.li	x22,0
    20f8:	4f81                	c.li	x31,0
    20fa:	96060f63          	beq	x12,x0,1278 <_vfprintf_r+0x18a>
    20fe:	463e                	c.lwsp	x12,204(x2)
    2100:	452e                	c.lwsp	x10,200(x2)
    2102:	084bfc93          	andi	x25,x23,132
    2106:	0d09                	c.addi	x26,2
    2108:	85b2                	c.mv	x11,x12
    210a:	86aa                	c.mv	x13,x10
    210c:	180c8c63          	beq	x25,x0,22a4 <_vfprintf_r+0x11b6>
    2110:	4789                	c.li	x15,2
    2112:	960f9e63          	bne	x31,x0,128e <_vfprintf_r+0x1a0>
    2116:	996ff06f          	jal	x0,12ac <_vfprintf_r+0x1be>
    211a:	84be                	c.mv	x9,x15
    211c:	ca904ae3          	blt	x0,x9,1dd0 <_vfprintf_r+0xce2>
    2120:	b1e1                	c.j	1de8 <_vfprintf_r+0xcfa>
    2122:	54fd                	c.li	x9,-1
    2124:	8c36                	c.mv	x24,x13
    2126:	8ecff06f          	jal	x0,1212 <_vfprintf_r+0x124>
    212a:	835a                	c.mv	x6,x22
    212c:	0000b597          	auipc	x11,0xb
    2130:	23c58593          	addi	x11,x11,572 # d368 <__clzsi2+0x32e>
    2134:	020bf793          	andi	x15,x23,32
    2138:	1c078063          	beq	x15,x0,22f8 <_vfprintf_r+0x120a>
    213c:	47d2                	c.lwsp	x15,20(x2)
    213e:	079d                	c.addi	x15,7
    2140:	9be1                	c.andi	x15,-8
    2142:	00878713          	addi	x14,x15,8
    2146:	ca3a                	c.swsp	x14,20(x2)
    2148:	43d4                	c.lw	x13,4(x15)
    214a:	4398                	c.lw	x14,0(x15)
    214c:	001bf793          	andi	x15,x23,1
    2150:	16078863          	beq	x15,x0,22c0 <_vfprintf_r+0x11d2>
    2154:	00d767b3          	or	x15,x14,x13
    2158:	2a078d63          	beq	x15,x0,2412 <_vfprintf_r+0x1324>
    215c:	03000793          	addi	x15,x0,48
    2160:	0b1104a3          	sb	x17,169(x2)
    2164:	0a0103a3          	sb	x0,167(x2)
    2168:	0af10423          	sb	x15,168(x2)
    216c:	1e04c663          	blt	x9,x0,2358 <_vfprintf_r+0x126a>
    2170:	b7fbfe13          	andi	x28,x23,-1153
    2174:	002e6b93          	ori	x23,x28,2
    2178:	00f77793          	andi	x15,x14,15
    217c:	97ae                	c.add	x15,x11
    217e:	0007c783          	lbu	x15,0(x15)
    2182:	002bf613          	andi	x12,x23,2
    2186:	01c69513          	slli	x10,x13,0x1c
    218a:	8311                	c.srli	x14,0x4
    218c:	8f49                	c.or	x14,x10
    218e:	8291                	c.srli	x13,0x4
    2190:	18f107a3          	sb	x15,399(x2)
    2194:	00d767b3          	or	x15,x14,x13
    2198:	f39d                	c.bnez	x15,20be <_vfprintf_r+0xfd0>
    219a:	18f10a93          	addi	x21,x2,399
    219e:	b791                	c.j	20e2 <_vfprintf_r+0xff4>
    21a0:	835a                	c.mv	x6,x22
    21a2:	0000b597          	auipc	x11,0xb
    21a6:	1b258593          	addi	x11,x11,434 # d354 <__clzsi2+0x31a>
    21aa:	b769                	c.j	2134 <_vfprintf_r+0x1046>
    21ac:	01d0                	c.addi4spn	x12,x2,196
    21ae:	45a2                	c.lwsp	x11,8(x2)
    21b0:	4512                	c.lwsp	x10,4(x2)
    21b2:	ce1a                	c.swsp	x6,28(x2)
    21b4:	2c6040ef          	jal	x1,647a <__sprint_r>
    21b8:	b8051ae3          	bne	x10,x0,1d4c <_vfprintf_r+0xc5e>
    21bc:	463e                	c.lwsp	x12,204(x2)
    21be:	8452                	c.mv	x8,x20
    21c0:	4372                	c.lwsp	x6,28(x2)
    21c2:	db0ff06f          	jal	x0,1772 <_vfprintf_r+0x684>
    21c6:	001c4883          	lbu	x17,1(x24)
    21ca:	020beb93          	ori	x23,x23,32
    21ce:	0c05                	c.addi	x24,1
    21d0:	840ff06f          	jal	x0,1210 <_vfprintf_r+0x122>
    21d4:	001c4883          	lbu	x17,1(x24)
    21d8:	200beb93          	ori	x23,x23,512
    21dc:	0c05                	c.addi	x24,1
    21de:	832ff06f          	jal	x0,1210 <_vfprintf_r+0x122>
    21e2:	4799                	c.li	x15,6
    21e4:	8d26                	c.mv	x26,x9
    21e6:	7a97e563          	bltu	x15,x9,2990 <_vfprintf_r+0x18a2>
    21ea:	ca5a                	c.swsp	x22,20(x2)
    21ec:	c802                	c.swsp	x0,16(x2)
    21ee:	8dea                	c.mv	x27,x26
    21f0:	4481                	c.li	x9,0
    21f2:	d002                	c.swsp	x0,32(x2)
    21f4:	ce02                	c.swsp	x0,28(x2)
    21f6:	4b01                	c.li	x22,0
    21f8:	0000ba97          	auipc	x21,0xb
    21fc:	184a8a93          	addi	x21,x21,388 # d37c <__clzsi2+0x342>
    2200:	878ff06f          	jal	x0,1278 <_vfprintf_r+0x18a>
    2204:	46c1                	c.li	x13,16
    2206:	45ae                	c.lwsp	x11,200(x2)
    2208:	0000bc97          	auipc	x25,0xb
    220c:	5ecc8c93          	addi	x25,x25,1516 # d7f4 <zeroes.0>
    2210:	3e96d363          	bge	x13,x9,25f6 <_vfprintf_r+0x1508>
    2214:	87a2                	c.mv	x15,x8
    2216:	88b6                	c.mv	x17,x13
    2218:	8426                	c.mv	x8,x9
    221a:	4d9d                	c.li	x27,7
    221c:	84e6                	c.mv	x9,x25
    221e:	8cd6                	c.mv	x25,x21
    2220:	8a9a                	c.mv	x21,x6
    2222:	a021                	c.j	222a <_vfprintf_r+0x113c>
    2224:	1441                	c.addi	x8,-16
    2226:	3c88d363          	bge	x17,x8,25ec <_vfprintf_r+0x14fe>
    222a:	0641                	c.addi	x12,16
    222c:	0585                	c.addi	x11,1
    222e:	c384                	c.sw	x9,0(x15)
    2230:	c3d4                	c.sw	x13,4(x15)
    2232:	c7b2                	c.swsp	x12,204(x2)
    2234:	c5ae                	c.swsp	x11,200(x2)
    2236:	07a1                	c.addi	x15,8
    2238:	febdd6e3          	bge	x27,x11,2224 <_vfprintf_r+0x1136>
    223c:	01d0                	c.addi4spn	x12,x2,196
    223e:	45a2                	c.lwsp	x11,8(x2)
    2240:	4512                	c.lwsp	x10,4(x2)
    2242:	238040ef          	jal	x1,647a <__sprint_r>
    2246:	b00513e3          	bne	x10,x0,1d4c <_vfprintf_r+0xc5e>
    224a:	48c1                	c.li	x17,16
    224c:	463e                	c.lwsp	x12,204(x2)
    224e:	45ae                	c.lwsp	x11,200(x2)
    2250:	87d2                	c.mv	x15,x20
    2252:	86c6                	c.mv	x13,x17
    2254:	bfc1                	c.j	2224 <_vfprintf_r+0x1136>
    2256:	8556                	c.mv	x10,x21
    2258:	ca46                	c.swsp	x17,20(x2)
    225a:	c81a                	c.swsp	x6,16(x2)
    225c:	d85fe0ef          	jal	x1,fe0 <strlen>
    2260:	fff54713          	xori	x14,x10,-1
    2264:	877d                	c.srai	x14,0x1f
    2266:	0a714783          	lbu	x15,167(x2)
    226a:	8daa                	c.mv	x27,x10
    226c:	00e57d33          	and	x26,x10,x14
    2270:	4342                	c.lwsp	x6,16(x2)
    2272:	48d2                	c.lwsp	x17,20(x2)
    2274:	bc078063          	beq	x15,x0,1634 <_vfprintf_r+0x546>
    2278:	0d05                	c.addi	x26,1
    227a:	bbaff06f          	jal	x0,1634 <_vfprintf_r+0x546>
    227e:	4d81                	c.li	x27,0
    2280:	19010a93          	addi	x21,x2,400
    2284:	c802                	c.swsp	x0,16(x2)
    2286:	d002                	c.swsp	x0,32(x2)
    2288:	ce02                	c.swsp	x0,28(x2)
    228a:	4b01                	c.li	x22,0
    228c:	fedfe06f          	jal	x0,1278 <_vfprintf_r+0x18a>
    2290:	4b01                	c.li	x22,0
    2292:	4d81                	c.li	x27,0
    2294:	d002                	c.swsp	x0,32(x2)
    2296:	19010a93          	addi	x21,x2,400
    229a:	07800893          	addi	x17,x0,120
    229e:	4f81                	c.li	x31,0
    22a0:	c802                	c.swsp	x0,16(x2)
    22a2:	4d09                	c.li	x26,2
    22a4:	41a307b3          	sub	x15,x6,x26
    22a8:	00f04a63          	blt	x0,x15,22bc <_vfprintf_r+0x11ce>
    22ac:	4c81                	c.li	x25,0
    22ae:	000f9463          	bne	x31,x0,22b6 <_vfprintf_r+0x11c8>
    22b2:	ffbfe06f          	jal	x0,12ac <_vfprintf_r+0x1be>
    22b6:	4789                	c.li	x15,2
    22b8:	fd7fe06f          	jal	x0,128e <_vfprintf_r+0x1a0>
    22bc:	4c89                	c.li	x25,2
    22be:	b139                	c.j	1ecc <_vfprintf_r+0xdde>
    22c0:	0a0103a3          	sb	x0,167(x2)
    22c4:	0804cc63          	blt	x9,x0,235c <_vfprintf_r+0x126e>
    22c8:	00d767b3          	or	x15,x14,x13
    22cc:	b7fbfb93          	andi	x23,x23,-1153
    22d0:	ea0794e3          	bne	x15,x0,2178 <_vfprintf_r+0x108a>
    22d4:	800487e3          	beq	x9,x0,1ae2 <_vfprintf_r+0x9f4>
    22d8:	0005c783          	lbu	x15,0(x11)
    22dc:	18f107a3          	sb	x15,399(x2)
    22e0:	8d26                	c.mv	x26,x9
    22e2:	6e905d63          	bge	x0,x9,29dc <_vfprintf_r+0x18ee>
    22e6:	c802                	c.swsp	x0,16(x2)
    22e8:	4d85                	c.li	x27,1
    22ea:	d002                	c.swsp	x0,32(x2)
    22ec:	ce02                	c.swsp	x0,28(x2)
    22ee:	4b01                	c.li	x22,0
    22f0:	18f10a93          	addi	x21,x2,399
    22f4:	f85fe06f          	jal	x0,1278 <_vfprintf_r+0x18a>
    22f8:	46d2                	c.lwsp	x13,20(x2)
    22fa:	4298                	c.lw	x14,0(x13)
    22fc:	0691                	c.addi	x13,4
    22fe:	010bf793          	andi	x15,x23,16
    2302:	ca36                	c.swsp	x13,20(x2)
    2304:	eba1                	c.bnez	x15,2354 <_vfprintf_r+0x1266>
    2306:	040bf793          	andi	x15,x23,64
    230a:	c3a9                	c.beqz	x15,234c <_vfprintf_r+0x125e>
    230c:	0742                	c.slli	x14,0x10
    230e:	8341                	c.srli	x14,0x10
    2310:	4681                	c.li	x13,0
    2312:	bd2d                	c.j	214c <_vfprintf_r+0x105e>
    2314:	01d0                	c.addi4spn	x12,x2,196
    2316:	45a2                	c.lwsp	x11,8(x2)
    2318:	4512                	c.lwsp	x10,4(x2)
    231a:	ce1a                	c.swsp	x6,28(x2)
    231c:	15e040ef          	jal	x1,647a <__sprint_r>
    2320:	a20516e3          	bne	x10,x0,1d4c <_vfprintf_r+0xc5e>
    2324:	4dbe                	c.lwsp	x27,204(x2)
    2326:	44ae                	c.lwsp	x9,200(x2)
    2328:	86d2                	c.mv	x13,x20
    232a:	4372                	c.lwsp	x6,28(x2)
    232c:	9a6ff06f          	jal	x0,14d2 <_vfprintf_r+0x3e4>
    2330:	01d0                	c.addi4spn	x12,x2,196
    2332:	45a2                	c.lwsp	x11,8(x2)
    2334:	4512                	c.lwsp	x10,4(x2)
    2336:	ce1a                	c.swsp	x6,28(x2)
    2338:	142040ef          	jal	x1,647a <__sprint_r>
    233c:	a00518e3          	bne	x10,x0,1d4c <_vfprintf_r+0xc5e>
    2340:	4dbe                	c.lwsp	x27,204(x2)
    2342:	44ae                	c.lwsp	x9,200(x2)
    2344:	86d2                	c.mv	x13,x20
    2346:	4372                	c.lwsp	x6,28(x2)
    2348:	9a2ff06f          	jal	x0,14ea <_vfprintf_r+0x3fc>
    234c:	200bf793          	andi	x15,x23,512
    2350:	64079f63          	bne	x15,x0,29ae <_vfprintf_r+0x18c0>
    2354:	4681                	c.li	x13,0
    2356:	bbdd                	c.j	214c <_vfprintf_r+0x105e>
    2358:	002beb93          	ori	x23,x23,2
    235c:	00f77793          	andi	x15,x14,15
    2360:	97ae                	c.add	x15,x11
    2362:	002bf613          	andi	x12,x23,2
    2366:	0007c783          	lbu	x15,0(x15)
    236a:	bffbfb93          	andi	x23,x23,-1025
    236e:	bd21                	c.j	2186 <_vfprintf_r+0x1098>
    2370:	e9958463          	beq	x11,x25,19f8 <_vfprintf_r+0x90a>
    2374:	420d9563          	bne	x27,x0,279e <_vfprintf_r+0x16b0>
    2378:	47a5                	c.li	x15,9
    237a:	43a7e263          	bltu	x15,x26,279e <_vfprintf_r+0x16b0>
    237e:	0b1c                	c.addi4spn	x15,x2,400
    2380:	cc2e                	c.swsp	x11,24(x2)
    2382:	41578db3          	sub	x27,x15,x21
    2386:	835a                	c.mv	x6,x22
    2388:	8d26                	c.mv	x26,x9
    238a:	01b4d363          	bge	x9,x27,2390 <_vfprintf_r+0x12a2>
    238e:	8d6e                	c.mv	x26,x27
    2390:	0a714783          	lbu	x15,167(x2)
    2394:	d12ff06f          	jal	x0,18a6 <_vfprintf_r+0x7b8>
    2398:	47ae                	c.lwsp	x15,200(x2)
    239a:	4685                	c.li	x13,1
    239c:	0605                	c.addi	x12,1
    239e:	0785                	c.addi	x15,1
    23a0:	0000b517          	auipc	x10,0xb
    23a4:	fe450513          	addi	x10,x10,-28 # d384 <__clzsi2+0x34a>
    23a8:	c054                	c.sw	x13,4(x8)
    23aa:	c008                	c.sw	x10,0(x8)
    23ac:	c7b2                	c.swsp	x12,204(x2)
    23ae:	c5be                	c.swsp	x15,200(x2)
    23b0:	469d                	c.li	x13,7
    23b2:	0421                	c.addi	x8,8
    23b4:	56f6c463          	blt	x13,x15,291c <_vfprintf_r+0x182e>
    23b8:	16059263          	bne	x11,x0,251c <_vfprintf_r+0x142e>
    23bc:	001bf793          	andi	x15,x23,1
    23c0:	4762                	c.lwsp	x14,24(x2)
    23c2:	8fd9                	c.or	x15,x14
    23c4:	e399                	c.bnez	x15,23ca <_vfprintf_r+0x12dc>
    23c6:	f31fe06f          	jal	x0,12f6 <_vfprintf_r+0x208>
    23ca:	5792                	c.lwsp	x15,36(x2)
    23cc:	46ae                	c.lwsp	x13,200(x2)
    23ce:	963e                	c.add	x12,x15
    23d0:	0685                	c.addi	x13,1
    23d2:	5732                	c.lwsp	x14,44(x2)
    23d4:	c05c                	c.sw	x15,4(x8)
    23d6:	c7b2                	c.swsp	x12,204(x2)
    23d8:	c018                	c.sw	x14,0(x8)
    23da:	c5b6                	c.swsp	x13,200(x2)
    23dc:	479d                	c.li	x15,7
    23de:	64d7c163          	blt	x15,x13,2a20 <_vfprintf_r+0x1932>
    23e2:	0421                	c.addi	x8,8
    23e4:	aa99                	c.j	253a <_vfprintf_r+0x144c>
    23e6:	01d0                	c.addi4spn	x12,x2,196
    23e8:	45a2                	c.lwsp	x11,8(x2)
    23ea:	4512                	c.lwsp	x10,4(x2)
    23ec:	de46                	c.swsp	x17,60(x2)
    23ee:	d81a                	c.swsp	x6,48(x2)
    23f0:	08a040ef          	jal	x1,647a <__sprint_r>
    23f4:	94051ce3          	bne	x10,x0,1d4c <_vfprintf_r+0xc5e>
    23f8:	0a714783          	lbu	x15,167(x2)
    23fc:	463e                	c.lwsp	x12,204(x2)
    23fe:	5342                	c.lwsp	x6,48(x2)
    2400:	58f2                	c.lwsp	x17,60(x2)
    2402:	10078663          	beq	x15,x0,250e <_vfprintf_r+0x1420>
    2406:	87e6                	c.mv	x15,x25
    2408:	452e                	c.lwsp	x10,200(x2)
    240a:	4c81                	c.li	x25,0
    240c:	8452                	c.mv	x8,x20
    240e:	e81fe06f          	jal	x0,128e <_vfprintf_r+0x1a0>
    2412:	0a0103a3          	sb	x0,167(x2)
    2416:	3604ca63          	blt	x9,x0,278a <_vfprintf_r+0x169c>
    241a:	b7fbfb93          	andi	x23,x23,-1153
    241e:	bd5d                	c.j	22d4 <_vfprintf_r+0x11e6>
    2420:	4512                	c.lwsp	x10,4(x2)
    2422:	eb2fe0ef          	jal	x1,ad4 <__sinit>
    2426:	47a2                	c.lwsp	x15,8(x2)
    2428:	d01fe06f          	jal	x0,1128 <_vfprintf_r+0x3a>
    242c:	01d0                	c.addi4spn	x12,x2,196
    242e:	45a2                	c.lwsp	x11,8(x2)
    2430:	4512                	c.lwsp	x10,4(x2)
    2432:	ce1a                	c.swsp	x6,28(x2)
    2434:	046040ef          	jal	x1,647a <__sprint_r>
    2438:	90051ae3          	bne	x10,x0,1d4c <_vfprintf_r+0xc5e>
    243c:	463e                	c.lwsp	x12,204(x2)
    243e:	8452                	c.mv	x8,x20
    2440:	4372                	c.lwsp	x6,28(x2)
    2442:	b0eff06f          	jal	x0,1750 <_vfprintf_r+0x662>
    2446:	43c2                	c.lwsp	x7,16(x2)
    2448:	b221                	c.j	1d50 <_vfprintf_r+0xc62>
    244a:	8326                	c.mv	x6,x9
    244c:	84e6                	c.mv	x9,x25
    244e:	8ca2                	c.mv	x25,x8
    2450:	843e                	c.mv	x8,x15
    2452:	9626                	c.add	x12,x9
    2454:	0685                	c.addi	x13,1
    2456:	c7b2                	c.swsp	x12,204(x2)
    2458:	c5b6                	c.swsp	x13,200(x2)
    245a:	01942023          	sw	x25,0(x8)
    245e:	c044                	c.sw	x9,4(x8)
    2460:	479d                	c.li	x15,7
    2462:	00d7c463          	blt	x15,x13,246a <_vfprintf_r+0x137c>
    2466:	e8ffe06f          	jal	x0,12f4 <_vfprintf_r+0x206>
    246a:	8e8ff06f          	jal	x0,1552 <_vfprintf_r+0x464>
    246e:	47ce                	c.lwsp	x15,208(x2)
    2470:	46de                	c.lwsp	x13,212(x2)
    2472:	476e                	c.lwsp	x14,216(x2)
    2474:	c93e                	c.swsp	x15,144(x2)
    2476:	010c                	c.addi4spn	x11,x2,128
    2478:	47fe                	c.lwsp	x15,220(x2)
    247a:	0908                	c.addi4spn	x10,x2,144
    247c:	c102                	c.swsp	x0,128(x2)
    247e:	c302                	c.swsp	x0,132(x2)
    2480:	c502                	c.swsp	x0,136(x2)
    2482:	c702                	c.swsp	x0,140(x2)
    2484:	cb36                	c.swsp	x13,148(x2)
    2486:	cd3a                	c.swsp	x14,152(x2)
    2488:	cf3e                	c.swsp	x15,156(x2)
    248a:	11f080ef          	jal	x1,ada8 <__letf2>
    248e:	f7fbfb93          	andi	x23,x23,-129
    2492:	4342                	c.lwsp	x6,16(x2)
    2494:	48f2                	c.lwsp	x17,28(x2)
    2496:	32054ae3          	blt	x10,x0,2fca <_vfprintf_r+0x1edc>
    249a:	04700713          	addi	x14,x0,71
    249e:	0a714783          	lbu	x15,167(x2)
    24a2:	0000ba97          	auipc	x21,0xb
    24a6:	ea2a8a93          	addi	x21,x21,-350 # d344 <__clzsi2+0x30a>
    24aa:	01175663          	bge	x14,x17,24b6 <_vfprintf_r+0x13c8>
    24ae:	0000ba97          	auipc	x21,0xb
    24b2:	e9aa8a93          	addi	x21,x21,-358 # d348 <__clzsi2+0x30e>
    24b6:	160797e3          	bne	x15,x0,2e24 <_vfprintf_r+0x1d36>
    24ba:	4d8d                	c.li	x27,3
    24bc:	8d6e                	c.mv	x26,x27
    24be:	978ff06f          	jal	x0,1636 <_vfprintf_r+0x548>
    24c2:	47d2                	c.lwsp	x15,20(x2)
    24c4:	439c                	c.lw	x15,0(x15)
    24c6:	46b2                	c.lwsp	x13,12(x2)
    24c8:	c394                	c.sw	x13,0(x15)
    24ca:	ca3a                	c.swsp	x14,20(x2)
    24cc:	e70ff06f          	jal	x0,1b3c <_vfprintf_r+0xa4e>
    24d0:	00f77613          	andi	x12,x14,15
    24d4:	0000b597          	auipc	x11,0xb
    24d8:	e8058593          	addi	x11,x11,-384 # d354 <__clzsi2+0x31a>
    24dc:	962e                	c.add	x12,x11
    24de:	ca3e                	c.swsp	x15,20(x2)
    24e0:	8bc2                	c.mv	x23,x16
    24e2:	00064783          	lbu	x15,0(x12)
    24e6:	07800893          	addi	x17,x0,120
    24ea:	4609                	c.li	x12,2
    24ec:	b969                	c.j	2186 <_vfprintf_r+0x1098>
    24ee:	835e                	c.mv	x6,x23
    24f0:	8be6                	c.mv	x23,x25
    24f2:	8cda                	c.mv	x25,x22
    24f4:	9da2                	c.add	x27,x8
    24f6:	0485                	c.addi	x9,1
    24f8:	c7ee                	c.swsp	x27,204(x2)
    24fa:	c5a6                	c.swsp	x9,200(x2)
    24fc:	0196a023          	sw	x25,0(x13)
    2500:	c2c0                	c.sw	x8,4(x13)
    2502:	479d                	c.li	x15,7
    2504:	0097c463          	blt	x15,x9,250c <_vfprintf_r+0x141e>
    2508:	82aff06f          	jal	x0,1532 <_vfprintf_r+0x444>
    250c:	b49d                	c.j	1f72 <_vfprintf_r+0xe84>
    250e:	480c8d63          	beq	x25,x0,29a8 <_vfprintf_r+0x18ba>
    2512:	452e                	c.lwsp	x10,200(x2)
    2514:	4c81                	c.li	x25,0
    2516:	8452                	c.mv	x8,x20
    2518:	d95fe06f          	jal	x0,12ac <_vfprintf_r+0x1be>
    251c:	5792                	c.lwsp	x15,36(x2)
    251e:	46ae                	c.lwsp	x13,200(x2)
    2520:	963e                	c.add	x12,x15
    2522:	0685                	c.addi	x13,1
    2524:	5732                	c.lwsp	x14,44(x2)
    2526:	c05c                	c.sw	x15,4(x8)
    2528:	c018                	c.sw	x14,0(x8)
    252a:	c7b2                	c.swsp	x12,204(x2)
    252c:	c5b6                	c.swsp	x13,200(x2)
    252e:	479d                	c.li	x15,7
    2530:	0421                	c.addi	x8,8
    2532:	4ed7c763          	blt	x15,x13,2a20 <_vfprintf_r+0x1932>
    2536:	3605c0e3          	blt	x11,x0,3096 <_vfprintf_r+0x1fa8>
    253a:	47e2                	c.lwsp	x15,24(x2)
    253c:	963e                	c.add	x12,x15
    253e:	0685                	c.addi	x13,1
    2540:	c05c                	c.sw	x15,4(x8)
    2542:	c7b2                	c.swsp	x12,204(x2)
    2544:	c5b6                	c.swsp	x13,200(x2)
    2546:	01542023          	sw	x21,0(x8)
    254a:	479d                	c.li	x15,7
    254c:	00d7c463          	blt	x15,x13,2554 <_vfprintf_r+0x1466>
    2550:	da5fe06f          	jal	x0,12f4 <_vfprintf_r+0x206>
    2554:	ffffe06f          	jal	x0,1552 <_vfprintf_r+0x464>
    2558:	200bf713          	andi	x14,x23,512
    255c:	46070563          	beq	x14,x0,29c6 <_vfprintf_r+0x18d8>
    2560:	0ff7f793          	andi	x15,x15,255
    2564:	ca36                	c.swsp	x13,20(x2)
    2566:	875e                	c.mv	x14,x23
    2568:	4601                	c.li	x12,0
    256a:	b90ff06f          	jal	x0,18fa <_vfprintf_r+0x80c>
    256e:	200bf793          	andi	x15,x23,512
    2572:	0a0103a3          	sb	x0,167(x2)
    2576:	44079163          	bne	x15,x0,29b8 <_vfprintf_r+0x18ca>
    257a:	8d3a                	c.mv	x26,x14
    257c:	4d81                	c.li	x27,0
    257e:	c404c563          	blt	x9,x0,19c8 <_vfprintf_r+0x8da>
    2582:	f7fbfb93          	andi	x23,x23,-129
    2586:	c4071163          	bne	x14,x0,19c8 <_vfprintf_r+0x8da>
    258a:	ca36                	c.swsp	x13,20(x2)
    258c:	d4048c63          	beq	x9,x0,1ae4 <_vfprintf_r+0x9f6>
    2590:	4d01                	c.li	x26,0
    2592:	af6ff06f          	jal	x0,1888 <_vfprintf_r+0x79a>
    2596:	200bf793          	andi	x15,x23,512
    259a:	42078b63          	beq	x15,x0,29d0 <_vfprintf_r+0x18e2>
    259e:	0d62                	c.slli	x26,0x18
    25a0:	418d5d13          	srai	x26,x26,0x18
    25a4:	41fd5d93          	srai	x27,x26,0x1f
    25a8:	ca36                	c.swsp	x13,20(x2)
    25aa:	876e                	c.mv	x14,x27
    25ac:	a6cff06f          	jal	x0,1818 <_vfprintf_r+0x72a>
    25b0:	4dfe                	c.lwsp	x27,220(x2)
    25b2:	800007b7          	lui	x15,0x80000
    25b6:	00fdfb33          	and	x22,x27,x15
    25ba:	f7fbfb93          	andi	x23,x23,-129
    25be:	420b0963          	beq	x22,x0,29f0 <_vfprintf_r+0x1902>
    25c2:	02d00793          	addi	x15,x0,45
    25c6:	0af103a3          	sb	x15,167(x2)
    25ca:	c802                	c.swsp	x0,16(x2)
    25cc:	04700793          	addi	x15,x0,71
    25d0:	d002                	c.swsp	x0,32(x2)
    25d2:	ce02                	c.swsp	x0,28(x2)
    25d4:	4d8d                	c.li	x27,3
    25d6:	4481                	c.li	x9,0
    25d8:	4b01                	c.li	x22,0
    25da:	3d17d2e3          	bge	x15,x17,319e <_vfprintf_r+0x20b0>
    25de:	0000ba97          	auipc	x21,0xb
    25e2:	d72a8a93          	addi	x21,x21,-654 # d350 <__clzsi2+0x316>
    25e6:	4d11                	c.li	x26,4
    25e8:	c91fe06f          	jal	x0,1278 <_vfprintf_r+0x18a>
    25ec:	8356                	c.mv	x6,x21
    25ee:	8ae6                	c.mv	x21,x25
    25f0:	8ca6                	c.mv	x25,x9
    25f2:	84a2                	c.mv	x9,x8
    25f4:	843e                	c.mv	x8,x15
    25f6:	9626                	c.add	x12,x9
    25f8:	0585                	c.addi	x11,1
    25fa:	01942023          	sw	x25,0(x8)
    25fe:	c044                	c.sw	x9,4(x8)
    2600:	c7b2                	c.swsp	x12,204(x2)
    2602:	c5ae                	c.swsp	x11,200(x2)
    2604:	479d                	c.li	x15,7
    2606:	0421                	c.addi	x8,8
    2608:	feb7d863          	bge	x15,x11,1df8 <_vfprintf_r+0xd0a>
    260c:	01d0                	c.addi4spn	x12,x2,196
    260e:	45a2                	c.lwsp	x11,8(x2)
    2610:	4512                	c.lwsp	x10,4(x2)
    2612:	d81a                	c.swsp	x6,48(x2)
    2614:	667030ef          	jal	x1,647a <__sprint_r>
    2618:	f2051a63          	bne	x10,x0,1d4c <_vfprintf_r+0xc5e>
    261c:	463e                	c.lwsp	x12,204(x2)
    261e:	8452                	c.mv	x8,x20
    2620:	5342                	c.lwsp	x6,48(x2)
    2622:	fd6ff06f          	jal	x0,1df8 <_vfprintf_r+0xd0a>
    2626:	47e2                	c.lwsp	x15,24(x2)
    2628:	8522                	c.mv	x10,x8
    262a:	c2de                	c.swsp	x23,68(x2)
    262c:	c4ea                	c.swsp	x26,72(x2)
    262e:	c6d6                	c.swsp	x21,76(x2)
    2630:	d862                	c.swsp	x24,48(x2)
    2632:	de1a                	c.swsp	x6,60(x2)
    2634:	4472                	c.lwsp	x8,28(x2)
    2636:	00fa8b33          	add	x22,x21,x15
    263a:	8be6                	c.mv	x23,x25
    263c:	469d                	c.li	x13,7
    263e:	47c1                	c.li	x15,16
    2640:	0000b497          	auipc	x9,0xb
    2644:	1b448493          	addi	x9,x9,436 # d7f4 <zeroes.0>
    2648:	4c86                	c.lwsp	x25,64(x2)
    264a:	5d22                	c.lwsp	x26,40(x2)
    264c:	4da2                	c.lwsp	x27,8(x2)
    264e:	5a82                	c.lwsp	x21,32(x2)
    2650:	06805563          	bge	x0,x8,26ba <_vfprintf_r+0x15cc>
    2654:	0f505e63          	bge	x0,x21,2750 <_vfprintf_r+0x1662>
    2658:	1afd                	c.addi	x21,-1
    265a:	472e                	c.lwsp	x14,200(x2)
    265c:	9666                	c.add	x12,x25
    265e:	0705                	c.addi	x14,1
    2660:	55e2                	c.lwsp	x11,56(x2)
    2662:	c10c                	c.sw	x11,0(x10)
    2664:	01952223          	sw	x25,4(x10)
    2668:	c7b2                	c.swsp	x12,204(x2)
    266a:	c5ba                	c.swsp	x14,200(x2)
    266c:	0521                	c.addi	x10,8
    266e:	0ee6c463          	blt	x13,x14,2756 <_vfprintf_r+0x1668>
    2672:	000d4583          	lbu	x11,0(x26)
    2676:	417b0c33          	sub	x24,x22,x23
    267a:	0185d363          	bge	x11,x24,2680 <_vfprintf_r+0x1592>
    267e:	8c2e                	c.mv	x24,x11
    2680:	03805063          	bge	x0,x24,26a0 <_vfprintf_r+0x15b2>
    2684:	45ae                	c.lwsp	x11,200(x2)
    2686:	9662                	c.add	x12,x24
    2688:	0585                	c.addi	x11,1
    268a:	c7b2                	c.swsp	x12,204(x2)
    268c:	01752023          	sw	x23,0(x10)
    2690:	01852223          	sw	x24,4(x10)
    2694:	c5ae                	c.swsp	x11,200(x2)
    2696:	0cb6cc63          	blt	x13,x11,276e <_vfprintf_r+0x1680>
    269a:	0521                	c.addi	x10,8
    269c:	000d4583          	lbu	x11,0(x26)
    26a0:	fffc4e93          	xori	x29,x24,-1
    26a4:	41fede93          	srai	x29,x29,0x1f
    26a8:	01dc7733          	and	x14,x24,x29
    26ac:	40e58c33          	sub	x24,x11,x14
    26b0:	03804663          	blt	x0,x24,26dc <_vfprintf_r+0x15ee>
    26b4:	9bae                	c.add	x23,x11
    26b6:	f8804fe3          	blt	x0,x8,2654 <_vfprintf_r+0x1566>
    26ba:	f9504fe3          	blt	x0,x21,2658 <_vfprintf_r+0x156a>
    26be:	4ab6                	c.lwsp	x21,76(x2)
    26c0:	47e2                	c.lwsp	x15,24(x2)
    26c2:	8cde                	c.mv	x25,x23
    26c4:	d46a                	c.swsp	x26,40(x2)
    26c6:	97d6                	c.add	x15,x21
    26c8:	5c42                	c.lwsp	x24,48(x2)
    26ca:	5372                	c.lwsp	x6,60(x2)
    26cc:	842a                	c.mv	x8,x10
    26ce:	4b96                	c.lwsp	x23,68(x2)
    26d0:	4d26                	c.lwsp	x26,72(x2)
    26d2:	f397f963          	bgeu	x15,x25,1e04 <_vfprintf_r+0xd16>
    26d6:	8cbe                	c.mv	x25,x15
    26d8:	f2cff06f          	jal	x0,1e04 <_vfprintf_r+0xd16>
    26dc:	45ae                	c.lwsp	x11,200(x2)
    26de:	0000be97          	auipc	x29,0xb
    26e2:	116e8e93          	addi	x29,x29,278 # d7f4 <zeroes.0>
    26e6:	0587d663          	bge	x15,x24,2732 <_vfprintf_r+0x1644>
    26ea:	ce22                	c.swsp	x8,28(x2)
    26ec:	8462                	c.mv	x8,x24
    26ee:	8c5a                	c.mv	x24,x22
    26f0:	8b76                	c.mv	x22,x29
    26f2:	a021                	c.j	26fa <_vfprintf_r+0x160c>
    26f4:	1441                	c.addi	x8,-16
    26f6:	0287da63          	bge	x15,x8,272a <_vfprintf_r+0x163c>
    26fa:	0641                	c.addi	x12,16
    26fc:	0585                	c.addi	x11,1
    26fe:	c104                	c.sw	x9,0(x10)
    2700:	c15c                	c.sw	x15,4(x10)
    2702:	c7b2                	c.swsp	x12,204(x2)
    2704:	c5ae                	c.swsp	x11,200(x2)
    2706:	0521                	c.addi	x10,8
    2708:	feb6d6e3          	bge	x13,x11,26f4 <_vfprintf_r+0x1606>
    270c:	01d0                	c.addi4spn	x12,x2,196
    270e:	85ee                	c.mv	x11,x27
    2710:	4512                	c.lwsp	x10,4(x2)
    2712:	569030ef          	jal	x1,647a <__sprint_r>
    2716:	78051963          	bne	x10,x0,2ea8 <_vfprintf_r+0x1dba>
    271a:	47c1                	c.li	x15,16
    271c:	1441                	c.addi	x8,-16
    271e:	463e                	c.lwsp	x12,204(x2)
    2720:	45ae                	c.lwsp	x11,200(x2)
    2722:	8552                	c.mv	x10,x20
    2724:	469d                	c.li	x13,7
    2726:	fc87cae3          	blt	x15,x8,26fa <_vfprintf_r+0x160c>
    272a:	8eda                	c.mv	x29,x22
    272c:	8b62                	c.mv	x22,x24
    272e:	8c22                	c.mv	x24,x8
    2730:	4472                	c.lwsp	x8,28(x2)
    2732:	9662                	c.add	x12,x24
    2734:	0585                	c.addi	x11,1
    2736:	c7b2                	c.swsp	x12,204(x2)
    2738:	c5ae                	c.swsp	x11,200(x2)
    273a:	01d52023          	sw	x29,0(x10)
    273e:	01852223          	sw	x24,4(x10)
    2742:	76b6ce63          	blt	x13,x11,2ebe <_vfprintf_r+0x1dd0>
    2746:	000d4583          	lbu	x11,0(x26)
    274a:	0521                	c.addi	x10,8
    274c:	9bae                	c.add	x23,x11
    274e:	b7a5                	c.j	26b6 <_vfprintf_r+0x15c8>
    2750:	1d7d                	c.addi	x26,-1
    2752:	147d                	c.addi	x8,-1
    2754:	b719                	c.j	265a <_vfprintf_r+0x156c>
    2756:	01d0                	c.addi4spn	x12,x2,196
    2758:	85ee                	c.mv	x11,x27
    275a:	4512                	c.lwsp	x10,4(x2)
    275c:	51f030ef          	jal	x1,647a <__sprint_r>
    2760:	74051463          	bne	x10,x0,2ea8 <_vfprintf_r+0x1dba>
    2764:	463e                	c.lwsp	x12,204(x2)
    2766:	8552                	c.mv	x10,x20
    2768:	47c1                	c.li	x15,16
    276a:	469d                	c.li	x13,7
    276c:	b719                	c.j	2672 <_vfprintf_r+0x1584>
    276e:	01d0                	c.addi4spn	x12,x2,196
    2770:	85ee                	c.mv	x11,x27
    2772:	4512                	c.lwsp	x10,4(x2)
    2774:	507030ef          	jal	x1,647a <__sprint_r>
    2778:	72051863          	bne	x10,x0,2ea8 <_vfprintf_r+0x1dba>
    277c:	000d4583          	lbu	x11,0(x26)
    2780:	463e                	c.lwsp	x12,204(x2)
    2782:	8552                	c.mv	x10,x20
    2784:	47c1                	c.li	x15,16
    2786:	469d                	c.li	x13,7
    2788:	bf21                	c.j	26a0 <_vfprintf_r+0x15b2>
    278a:	0005c783          	lbu	x15,0(x11)
    278e:	18f107a3          	sb	x15,399(x2)
    2792:	bffbfb93          	andi	x23,x23,-1025
    2796:	4601                	c.li	x12,0
    2798:	18f10a93          	addi	x21,x2,399
    279c:	b299                	c.j	20e2 <_vfprintf_r+0xff4>
    279e:	4606                	c.lwsp	x12,64(x2)
    27a0:	40ca86b3          	sub	x13,x21,x12
    27a4:	8536                	c.mv	x10,x13
    27a6:	55e2                	c.lwsp	x11,56(x2)
    27a8:	ce7a                	c.swsp	x30,28(x2)
    27aa:	cc46                	c.swsp	x17,24(x2)
    27ac:	c836                	c.swsp	x13,16(x2)
    27ae:	457030ef          	jal	x1,6404 <strncpy>
    27b2:	01bd07b3          	add	x15,x26,x27
    27b6:	01a7b5b3          	sltu	x11,x15,x26
    27ba:	ccccd637          	lui	x12,0xccccd
    27be:	ccd60613          	addi	x12,x12,-819 # cccccccd <__heap_end+0xcc8ccccd>
    27c2:	97ae                	c.add	x15,x11
    27c4:	02c7b533          	mulhu	x10,x15,x12
    27c8:	ccccd337          	lui	x6,0xccccd
    27cc:	ccc30313          	addi	x6,x6,-820 # cccccccc <__heap_end+0xcc8ccccc>
    27d0:	5722                	c.lwsp	x14,40(x2)
    27d2:	00174583          	lbu	x11,1(x14)
    27d6:	00b035b3          	sltu	x11,x0,x11
    27da:	46c2                	c.lwsp	x13,16(x2)
    27dc:	972e                	c.add	x14,x11
    27de:	d43a                	c.swsp	x14,40(x2)
    27e0:	fff68a93          	addi	x21,x13,-1
    27e4:	00255e13          	srli	x28,x10,0x2
    27e8:	9971                	c.andi	x10,-4
    27ea:	9572                	c.add	x10,x28
    27ec:	8f89                	c.sub	x15,x10
    27ee:	40fd07b3          	sub	x15,x26,x15
    27f2:	00fd3533          	sltu	x10,x26,x15
    27f6:	40ad8533          	sub	x10,x27,x10
    27fa:	02678333          	mul	x6,x15,x6
    27fe:	4585                	c.li	x11,1
    2800:	48e2                	c.lwsp	x17,24(x2)
    2802:	4f72                	c.lwsp	x30,28(x2)
    2804:	02c50533          	mul	x10,x10,x12
    2808:	02c7be33          	mulhu	x28,x15,x12
    280c:	951a                	c.add	x10,x6
    280e:	02c787b3          	mul	x15,x15,x12
    2812:	9572                	c.add	x10,x28
    2814:	01f51313          	slli	x6,x10,0x1f
    2818:	00155d93          	srli	x27,x10,0x1
    281c:	8385                	c.srli	x15,0x1
    281e:	00f36d33          	or	x26,x6,x15
    2822:	01bd07b3          	add	x15,x26,x27
    2826:	01a7b533          	sltu	x10,x15,x26
    282a:	97aa                	c.add	x15,x10
    282c:	02c7b533          	mulhu	x10,x15,x12
    2830:	00255313          	srli	x6,x10,0x2
    2834:	9971                	c.andi	x10,-4
    2836:	951a                	c.add	x10,x6
    2838:	8f89                	c.sub	x15,x10
    283a:	40fd07b3          	sub	x15,x26,x15
    283e:	00fd3533          	sltu	x10,x26,x15
    2842:	40ad8533          	sub	x10,x27,x10
    2846:	02c7b333          	mulhu	x6,x15,x12
    284a:	02c50533          	mul	x10,x10,x12
    284e:	02c787b3          	mul	x15,x15,x12
    2852:	00650633          	add	x12,x10,x6
    2856:	067e                	c.slli	x12,0x1f
    2858:	8385                	c.srli	x15,0x1
    285a:	8fd1                	c.or	x15,x12
    285c:	00279613          	slli	x12,x15,0x2
    2860:	97b2                	c.add	x15,x12
    2862:	0786                	c.slli	x15,0x1
    2864:	40fd07b3          	sub	x15,x26,x15
    2868:	03078793          	addi	x15,x15,48 # 80000030 <__heap_end+0x7fc00030>
    286c:	fef68fa3          	sb	x15,-1(x13)
    2870:	ccccd7b7          	lui	x15,0xccccd
    2874:	ccd78713          	addi	x14,x15,-819 # cccccccd <__heap_end+0xcc8ccccd>
    2878:	ccc78813          	addi	x16,x15,-820
    287c:	972ff06f          	jal	x0,19ee <_vfprintf_r+0x900>
    2880:	ca36                	c.swsp	x13,20(x2)
    2882:	8bf2                	c.mv	x23,x28
    2884:	ffffe06f          	jal	x0,1882 <_vfprintf_r+0x794>
    2888:	09010d93          	addi	x27,x2,144
    288c:	191c                	c.addi4spn	x15,x2,176
    288e:	85ee                	c.mv	x11,x27
    2890:	0bc10813          	addi	x16,x2,188
    2894:	1178                	c.addi4spn	x14,x2,172
    2896:	86a6                	c.mv	x13,x9
    2898:	4609                	c.li	x12,2
    289a:	4512                	c.lwsp	x10,4(x2)
    289c:	c6c6                	c.swsp	x17,76(x2)
    289e:	c49a                	c.swsp	x6,72(x2)
    28a0:	c91e                	c.swsp	x7,144(x2)
    28a2:	c29e                	c.swsp	x7,68(x2)
    28a4:	cb16                	c.swsp	x5,148(x2)
    28a6:	d016                	c.swsp	x5,32(x2)
    28a8:	cd7e                	c.swsp	x31,152(x2)
    28aa:	ce7e                	c.swsp	x31,28(x2)
    28ac:	cf7a                	c.swsp	x30,156(x2)
    28ae:	cc7a                	c.swsp	x30,24(x2)
    28b0:	3b9000ef          	jal	x1,3468 <_ldtoa_r>
    28b4:	001bf793          	andi	x15,x23,1
    28b8:	8aaa                	c.mv	x21,x10
    28ba:	4f62                	c.lwsp	x30,24(x2)
    28bc:	4ff2                	c.lwsp	x31,28(x2)
    28be:	5282                	c.lwsp	x5,32(x2)
    28c0:	4396                	c.lwsp	x7,68(x2)
    28c2:	4326                	c.lwsp	x6,72(x2)
    28c4:	48b6                	c.lwsp	x17,76(x2)
    28c6:	7a079863          	bne	x15,x0,3076 <_vfprintf_r+0x1f88>
    28ca:	577a                	c.lwsp	x14,188(x2)
    28cc:	8f09                	c.sub	x14,x10
    28ce:	5b3a                	c.lwsp	x22,172(x2)
    28d0:	57f5                	c.li	x15,-3
    28d2:	cc3a                	c.swsp	x14,24(x2)
    28d4:	72fb4c63          	blt	x22,x15,300c <_vfprintf_r+0x1f1e>
    28d8:	6164cf63          	blt	x9,x22,2ef6 <_vfprintf_r+0x1e08>
    28dc:	76eb4b63          	blt	x22,x14,3052 <_vfprintf_r+0x1f64>
    28e0:	8dda                	c.mv	x27,x22
    28e2:	400bfe13          	andi	x28,x23,1024
    28e6:	000e0463          	beq	x28,x0,28ee <_vfprintf_r+0x1800>
    28ea:	0d6041e3          	blt	x0,x22,31ac <_vfprintf_r+0x20be>
    28ee:	fffdc713          	xori	x14,x27,-1
    28f2:	877d                	c.srai	x14,0x1f
    28f4:	00edfd33          	and	x26,x27,x14
    28f8:	06700893          	addi	x17,x0,103
    28fc:	5bf2                	c.lwsp	x23,60(x2)
    28fe:	d002                	c.swsp	x0,32(x2)
    2900:	ce02                	c.swsp	x0,28(x2)
    2902:	57c2                	c.lwsp	x15,48(x2)
    2904:	002bf613          	andi	x12,x23,2
    2908:	58078963          	beq	x15,x0,2e9a <_vfprintf_r+0x1dac>
    290c:	02d00f93          	addi	x31,x0,45
    2910:	0bf103a3          	sb	x31,167(x2)
    2914:	0d05                	c.addi	x26,1
    2916:	4481                	c.li	x9,0
    2918:	fe2ff06f          	jal	x0,20fa <_vfprintf_r+0x100c>
    291c:	01d0                	c.addi4spn	x12,x2,196
    291e:	45a2                	c.lwsp	x11,8(x2)
    2920:	4512                	c.lwsp	x10,4(x2)
    2922:	ce1a                	c.swsp	x6,28(x2)
    2924:	357030ef          	jal	x1,647a <__sprint_r>
    2928:	c2051263          	bne	x10,x0,1d4c <_vfprintf_r+0xc5e>
    292c:	55ba                	c.lwsp	x11,172(x2)
    292e:	463e                	c.lwsp	x12,204(x2)
    2930:	8452                	c.mv	x8,x20
    2932:	4372                	c.lwsp	x6,28(x2)
    2934:	b451                	c.j	23b8 <_vfprintf_r+0x12ca>
    2936:	0a714783          	lbu	x15,167(x2)
    293a:	4d01                	c.li	x26,0
    293c:	4d81                	c.li	x27,0
    293e:	19010a93          	addi	x21,x2,400
    2942:	f65fe06f          	jal	x0,18a6 <_vfprintf_r+0x7b8>
    2946:	01d0                	c.addi4spn	x12,x2,196
    2948:	45a2                	c.lwsp	x11,8(x2)
    294a:	4512                	c.lwsp	x10,4(x2)
    294c:	d81a                	c.swsp	x6,48(x2)
    294e:	32d030ef          	jal	x1,647a <__sprint_r>
    2952:	be051d63          	bne	x10,x0,1d4c <_vfprintf_r+0xc5e>
    2956:	463e                	c.lwsp	x12,204(x2)
    2958:	8452                	c.mv	x8,x20
    295a:	5342                	c.lwsp	x6,48(x2)
    295c:	c8cff06f          	jal	x0,1de8 <_vfprintf_r+0xcfa>
    2960:	004bf713          	andi	x14,x23,4
    2964:	463e                	c.lwsp	x12,204(x2)
    2966:	452e                	c.lwsp	x10,200(x2)
    2968:	ce3a                	c.swsp	x14,28(x2)
    296a:	ca3e                	c.swsp	x15,20(x2)
    296c:	85b2                	c.mv	x11,x12
    296e:	86aa                	c.mv	x13,x10
    2970:	8bc2                	c.mv	x23,x16
    2972:	90070fe3          	beq	x14,x0,2290 <_vfprintf_r+0x11a2>
    2976:	4d81                	c.li	x27,0
    2978:	d002                	c.swsp	x0,32(x2)
    297a:	ce02                	c.swsp	x0,28(x2)
    297c:	4b01                	c.li	x22,0
    297e:	c802                	c.swsp	x0,16(x2)
    2980:	4d09                	c.li	x26,2
    2982:	19010a93          	addi	x21,x2,400
    2986:	07800893          	addi	x17,x0,120
    298a:	4c91                	c.li	x25,4
    298c:	921fe06f          	jal	x0,12ac <_vfprintf_r+0x1be>
    2990:	8d3e                	c.mv	x26,x15
    2992:	b8a1                	c.j	21ea <_vfprintf_r+0x10fc>
    2994:	9aba                	c.add	x21,x14
    2996:	419a8ab3          	sub	x21,x21,x25
    299a:	409704b3          	sub	x9,x14,x9
    299e:	cd54d463          	bge	x9,x21,1e66 <_vfprintf_r+0xd78>
    29a2:	8aa6                	c.mv	x21,x9
    29a4:	cc2ff06f          	jal	x0,1e66 <_vfprintf_r+0xd78>
    29a8:	8452                	c.mv	x8,x20
    29aa:	923fe06f          	jal	x0,12cc <_vfprintf_r+0x1de>
    29ae:	0ff77713          	andi	x14,x14,255
    29b2:	4681                	c.li	x13,0
    29b4:	f98ff06f          	jal	x0,214c <_vfprintf_r+0x105e>
    29b8:	0ff77d13          	andi	x26,x14,255
    29bc:	4d81                	c.li	x27,0
    29be:	e804d963          	bge	x9,x0,2050 <_vfprintf_r+0xf62>
    29c2:	806ff06f          	jal	x0,19c8 <_vfprintf_r+0x8da>
    29c6:	ca36                	c.swsp	x13,20(x2)
    29c8:	875e                	c.mv	x14,x23
    29ca:	4601                	c.li	x12,0
    29cc:	f2ffe06f          	jal	x0,18fa <_vfprintf_r+0x80c>
    29d0:	41fd5d93          	srai	x27,x26,0x1f
    29d4:	ca36                	c.swsp	x13,20(x2)
    29d6:	876e                	c.mv	x14,x27
    29d8:	e41fe06f          	jal	x0,1818 <_vfprintf_r+0x72a>
    29dc:	4d05                	c.li	x26,1
    29de:	b221                	c.j	22e6 <_vfprintf_r+0x11f8>
    29e0:	47d2                	c.lwsp	x15,20(x2)
    29e2:	439c                	c.lw	x15,0(x15)
    29e4:	46b2                	c.lwsp	x13,12(x2)
    29e6:	00d79023          	sh	x13,0(x15)
    29ea:	ca3a                	c.swsp	x14,20(x2)
    29ec:	950ff06f          	jal	x0,1b3c <_vfprintf_r+0xa4e>
    29f0:	04700713          	addi	x14,x0,71
    29f4:	0a714783          	lbu	x15,167(x2)
    29f8:	0000ba97          	auipc	x21,0xb
    29fc:	954a8a93          	addi	x21,x21,-1708 # d34c <__clzsi2+0x312>
    2a00:	01175663          	bge	x14,x17,2a0c <_vfprintf_r+0x191e>
    2a04:	0000ba97          	auipc	x21,0xb
    2a08:	94ca8a93          	addi	x21,x21,-1716 # d350 <__clzsi2+0x316>
    2a0c:	08079ae3          	bne	x15,x0,32a0 <_vfprintf_r+0x21b2>
    2a10:	4d8d                	c.li	x27,3
    2a12:	8d6e                	c.mv	x26,x27
    2a14:	4481                	c.li	x9,0
    2a16:	d002                	c.swsp	x0,32(x2)
    2a18:	ce02                	c.swsp	x0,28(x2)
    2a1a:	c802                	c.swsp	x0,16(x2)
    2a1c:	85dfe06f          	jal	x0,1278 <_vfprintf_r+0x18a>
    2a20:	01d0                	c.addi4spn	x12,x2,196
    2a22:	45a2                	c.lwsp	x11,8(x2)
    2a24:	4512                	c.lwsp	x10,4(x2)
    2a26:	ce1a                	c.swsp	x6,28(x2)
    2a28:	253030ef          	jal	x1,647a <__sprint_r>
    2a2c:	b2051063          	bne	x10,x0,1d4c <_vfprintf_r+0xc5e>
    2a30:	55ba                	c.lwsp	x11,172(x2)
    2a32:	463e                	c.lwsp	x12,204(x2)
    2a34:	46ae                	c.lwsp	x13,200(x2)
    2a36:	8452                	c.mv	x8,x20
    2a38:	4372                	c.lwsp	x6,28(x2)
    2a3a:	bcf5                	c.j	2536 <_vfprintf_r+0x1448>
    2a3c:	05800793          	addi	x15,x0,88
    2a40:	03000713          	addi	x14,x0,48
    2a44:	0af104a3          	sb	x15,169(x2)
    2a48:	0ae10423          	sb	x14,168(x2)
    2a4c:	06300793          	addi	x15,x0,99
    2a50:	c802                	c.swsp	x0,16(x2)
    2a52:	002beb93          	ori	x23,x23,2
    2a56:	12c10a93          	addi	x21,x2,300
    2a5a:	0097c463          	blt	x15,x9,2a62 <_vfprintf_r+0x1974>
    2a5e:	9e9fe06f          	jal	x0,1446 <_vfprintf_r+0x358>
    2a62:	00148593          	addi	x11,x9,1
    2a66:	4512                	c.lwsp	x10,4(x2)
    2a68:	cc46                	c.swsp	x17,24(x2)
    2a6a:	c81a                	c.swsp	x6,16(x2)
    2a6c:	68d000ef          	jal	x1,38f8 <_malloc_r>
    2a70:	8aaa                	c.mv	x21,x10
    2a72:	4342                	c.lwsp	x6,16(x2)
    2a74:	48e2                	c.lwsp	x17,24(x2)
    2a76:	040506e3          	beq	x10,x0,32c2 <_vfprintf_r+0x21d4>
    2a7a:	c82a                	c.swsp	x10,16(x2)
    2a7c:	9cbfe06f          	jal	x0,1446 <_vfprintf_r+0x358>
    2a80:	00148793          	addi	x15,x9,1
    2a84:	cc3e                	c.swsp	x15,24(x2)
    2a86:	4609                	c.li	x12,2
    2a88:	4b62                	c.lwsp	x22,24(x2)
    2a8a:	09010d93          	addi	x27,x2,144
    2a8e:	1178                	c.addi4spn	x14,x2,172
    2a90:	86da                	c.mv	x13,x22
    2a92:	85ee                	c.mv	x11,x27
    2a94:	0bc10813          	addi	x16,x2,188
    2a98:	191c                	c.addi4spn	x15,x2,176
    2a9a:	4512                	c.lwsp	x10,4(x2)
    2a9c:	c8c6                	c.swsp	x17,80(x2)
    2a9e:	c69a                	c.swsp	x6,76(x2)
    2aa0:	c91e                	c.swsp	x7,144(x2)
    2aa2:	c49e                	c.swsp	x7,72(x2)
    2aa4:	cb16                	c.swsp	x5,148(x2)
    2aa6:	c296                	c.swsp	x5,68(x2)
    2aa8:	cd7e                	c.swsp	x31,152(x2)
    2aaa:	d07e                	c.swsp	x31,32(x2)
    2aac:	cf7a                	c.swsp	x30,156(x2)
    2aae:	ce7a                	c.swsp	x30,28(x2)
    2ab0:	1b9000ef          	jal	x1,3468 <_ldtoa_r>
    2ab4:	48c6                	c.lwsp	x17,80(x2)
    2ab6:	fdf8f713          	andi	x14,x17,-33
    2aba:	04600693          	addi	x13,x0,70
    2abe:	8aaa                	c.mv	x21,x10
    2ac0:	01650d33          	add	x26,x10,x22
    2ac4:	4f72                	c.lwsp	x30,28(x2)
    2ac6:	5f82                	c.lwsp	x31,32(x2)
    2ac8:	4296                	c.lwsp	x5,68(x2)
    2aca:	43a6                	c.lwsp	x7,72(x2)
    2acc:	4336                	c.lwsp	x6,76(x2)
    2ace:	46d70363          	beq	x14,x13,2f34 <_vfprintf_r+0x1e46>
    2ad2:	856e                	c.mv	x10,x27
    2ad4:	010c                	c.addi4spn	x11,x2,128
    2ad6:	d046                	c.swsp	x17,32(x2)
    2ad8:	ce1a                	c.swsp	x6,28(x2)
    2ada:	c91e                	c.swsp	x7,144(x2)
    2adc:	cb16                	c.swsp	x5,148(x2)
    2ade:	cd7e                	c.swsp	x31,152(x2)
    2ae0:	cf7a                	c.swsp	x30,156(x2)
    2ae2:	c102                	c.swsp	x0,128(x2)
    2ae4:	c302                	c.swsp	x0,132(x2)
    2ae6:	c502                	c.swsp	x0,136(x2)
    2ae8:	c702                	c.swsp	x0,140(x2)
    2aea:	0f2080ef          	jal	x1,abdc <__eqtf2>
    2aee:	4372                	c.lwsp	x6,28(x2)
    2af0:	5882                	c.lwsp	x17,32(x2)
    2af2:	72050763          	beq	x10,x0,3220 <_vfprintf_r+0x2132>
    2af6:	55fa                	c.lwsp	x11,188(x2)
    2af8:	04500713          	addi	x14,x0,69
    2afc:	71a5ff63          	bgeu	x11,x26,321a <_vfprintf_r+0x212c>
    2b00:	03000613          	addi	x12,x0,48
    2b04:	00158793          	addi	x15,x11,1
    2b08:	df3e                	c.swsp	x15,188(x2)
    2b0a:	00c58023          	sb	x12,0(x11)
    2b0e:	55fa                	c.lwsp	x11,188(x2)
    2b10:	ffa5eae3          	bltu	x11,x26,2b04 <_vfprintf_r+0x1a16>
    2b14:	415586b3          	sub	x13,x11,x21
    2b18:	04700793          	addi	x15,x0,71
    2b1c:	cc36                	c.swsp	x13,24(x2)
    2b1e:	5b3a                	c.lwsp	x22,172(x2)
    2b20:	3cf70663          	beq	x14,x15,2eec <_vfprintf_r+0x1dfe>
    2b24:	04600793          	addi	x15,x0,70
    2b28:	44f70e63          	beq	x14,x15,2f84 <_vfprintf_r+0x1e96>
    2b2c:	fffb0793          	addi	x15,x22,-1
    2b30:	0b110a23          	sb	x17,180(x2)
    2b34:	d73e                	c.swsp	x15,172(x2)
    2b36:	4e07c163          	blt	x15,x0,3018 <_vfprintf_r+0x1f2a>
    2b3a:	02b00713          	addi	x14,x0,43
    2b3e:	0ae10aa3          	sb	x14,181(x2)
    2b42:	4725                	c.li	x14,9
    2b44:	26f74963          	blt	x14,x15,2db6 <_vfprintf_r+0x1cc8>
    2b48:	03000713          	addi	x14,x0,48
    2b4c:	0ae10b23          	sb	x14,182(x2)
    2b50:	0b710713          	addi	x14,x2,183
    2b54:	0b14                	c.addi4spn	x13,x2,400
    2b56:	03078793          	addi	x15,x15,48
    2b5a:	40d706b3          	sub	x13,x14,x13
    2b5e:	00f70023          	sb	x15,0(x14)
    2b62:	0dd68793          	addi	x15,x13,221
    2b66:	da3e                	c.swsp	x15,52(x2)
    2b68:	4762                	c.lwsp	x14,24(x2)
    2b6a:	56d2                	c.lwsp	x13,52(x2)
    2b6c:	4785                	c.li	x15,1
    2b6e:	00d70db3          	add	x27,x14,x13
    2b72:	5ce7dd63          	bge	x15,x14,314c <_vfprintf_r+0x205e>
    2b76:	5792                	c.lwsp	x15,36(x2)
    2b78:	9dbe                	c.add	x27,x15
    2b7a:	fffdc713          	xori	x14,x27,-1
    2b7e:	bffbfe13          	andi	x28,x23,-1025
    2b82:	877d                	c.srai	x14,0x1f
    2b84:	100e6b93          	ori	x23,x28,256
    2b88:	00edfd33          	and	x26,x27,x14
    2b8c:	d002                	c.swsp	x0,32(x2)
    2b8e:	ce02                	c.swsp	x0,28(x2)
    2b90:	4b01                	c.li	x22,0
    2b92:	bb85                	c.j	2902 <_vfprintf_r+0x1814>
    2b94:	09010d93          	addi	x27,x2,144
    2b98:	08010c93          	addi	x25,x2,128
    2b9c:	856e                	c.mv	x10,x27
    2b9e:	85e6                	c.mv	x11,x25
    2ba0:	1170                	c.addi4spn	x12,x2,172
    2ba2:	c2c6                	c.swsp	x17,68(x2)
    2ba4:	de1a                	c.swsp	x6,60(x2)
    2ba6:	c11e                	c.swsp	x7,128(x2)
    2ba8:	c316                	c.swsp	x5,132(x2)
    2baa:	c57e                	c.swsp	x31,136(x2)
    2bac:	c77a                	c.swsp	x30,140(x2)
    2bae:	75a030ef          	jal	x1,6308 <frexpl>
    2bb2:	0000b797          	auipc	x15,0xb
    2bb6:	c5e78793          	addi	x15,x15,-930 # d810 <zeroes.0+0x1c>
    2bba:	4390                	c.lw	x12,0(x15)
    2bbc:	456a                	c.lwsp	x10,152(x2)
    2bbe:	43d4                	c.lw	x13,4(x15)
    2bc0:	4798                	c.lw	x14,8(x15)
    2bc2:	4f4a                	c.lwsp	x30,144(x2)
    2bc4:	485a                	c.lwsp	x16,148(x2)
    2bc6:	4ffa                	c.lwsp	x31,156(x2)
    2bc8:	47dc                	c.lw	x15,12(x15)
    2bca:	c52a                	c.swsp	x10,136(x2)
    2bcc:	d8b2                	c.swsp	x12,112(x2)
    2bce:	85e6                	c.mv	x11,x25
    2bd0:	1890                	c.addi4spn	x12,x2,112
    2bd2:	856e                	c.mv	x10,x27
    2bd4:	c17a                	c.swsp	x30,128(x2)
    2bd6:	c342                	c.swsp	x16,132(x2)
    2bd8:	c77e                	c.swsp	x31,140(x2)
    2bda:	dab6                	c.swsp	x13,116(x2)
    2bdc:	dcba                	c.swsp	x14,120(x2)
    2bde:	debe                	c.swsp	x15,124(x2)
    2be0:	2dc080ef          	jal	x1,aebc <__multf3>
    2be4:	4f4a                	c.lwsp	x30,144(x2)
    2be6:	485a                	c.lwsp	x16,148(x2)
    2be8:	466a                	c.lwsp	x12,152(x2)
    2bea:	46fa                	c.lwsp	x13,156(x2)
    2bec:	85e6                	c.mv	x11,x25
    2bee:	856e                	c.mv	x10,x27
    2bf0:	da7a                	c.swsp	x30,52(x2)
    2bf2:	d042                	c.swsp	x16,32(x2)
    2bf4:	ce32                	c.swsp	x12,28(x2)
    2bf6:	cc36                	c.swsp	x13,24(x2)
    2bf8:	c102                	c.swsp	x0,128(x2)
    2bfa:	c302                	c.swsp	x0,132(x2)
    2bfc:	c502                	c.swsp	x0,136(x2)
    2bfe:	c702                	c.swsp	x0,140(x2)
    2c00:	7dd070ef          	jal	x1,abdc <__eqtf2>
    2c04:	46e2                	c.lwsp	x13,24(x2)
    2c06:	4672                	c.lwsp	x12,28(x2)
    2c08:	5802                	c.lwsp	x16,32(x2)
    2c0a:	5f52                	c.lwsp	x30,52(x2)
    2c0c:	5372                	c.lwsp	x6,60(x2)
    2c0e:	4896                	c.lwsp	x17,68(x2)
    2c10:	e119                	c.bnez	x10,2c16 <_vfprintf_r+0x1b28>
    2c12:	4785                	c.li	x15,1
    2c14:	d73e                	c.swsp	x15,172(x2)
    2c16:	0000a717          	auipc	x14,0xa
    2c1a:	75270713          	addi	x14,x14,1874 # d368 <__clzsi2+0x32e>
    2c1e:	06100793          	addi	x15,x0,97
    2c22:	cc3a                	c.swsp	x14,24(x2)
    2c24:	00f89763          	bne	x17,x15,2c32 <_vfprintf_r+0x1b44>
    2c28:	0000a797          	auipc	x15,0xa
    2c2c:	72c78793          	addi	x15,x15,1836 # d354 <__clzsi2+0x31a>
    2c30:	cc3e                	c.swsp	x15,24(x2)
    2c32:	0000b797          	auipc	x15,0xb
    2c36:	bee78793          	addi	x15,x15,-1042 # d820 <zeroes.0+0x2c>
    2c3a:	4398                	c.lw	x14,0(x15)
    2c3c:	ce3a                	c.swsp	x14,28(x2)
    2c3e:	43d8                	c.lw	x14,4(x15)
    2c40:	d03a                	c.swsp	x14,32(x2)
    2c42:	4798                	c.lw	x14,8(x15)
    2c44:	47dc                	c.lw	x15,12(x15)
    2c46:	c2e2                	c.swsp	x24,68(x2)
    2c48:	c6a2                	c.swsp	x8,76(x2)
    2c4a:	cade                	c.swsp	x23,84(x2)
    2c4c:	8456                	c.mv	x8,x21
    2c4e:	ccd6                	c.swsp	x21,88(x2)
    2c50:	14fd                	c.addi	x9,-1
    2c52:	da3a                	c.swsp	x14,52(x2)
    2c54:	de3e                	c.swsp	x15,60(x2)
    2c56:	c49a                	c.swsp	x6,72(x2)
    2c58:	c8c6                	c.swsp	x17,80(x2)
    2c5a:	8afa                	c.mv	x21,x30
    2c5c:	8b42                	c.mv	x22,x16
    2c5e:	8bb2                	c.mv	x23,x12
    2c60:	8c36                	c.mv	x24,x13
    2c62:	a015                	c.j	2c86 <_vfprintf_r+0x1b98>
    2c64:	85e6                	c.mv	x11,x25
    2c66:	856e                	c.mv	x10,x27
    2c68:	c956                	c.swsp	x21,144(x2)
    2c6a:	cb5a                	c.swsp	x22,148(x2)
    2c6c:	cd5e                	c.swsp	x23,152(x2)
    2c6e:	cf62                	c.swsp	x24,156(x2)
    2c70:	c102                	c.swsp	x0,128(x2)
    2c72:	c302                	c.swsp	x0,132(x2)
    2c74:	c502                	c.swsp	x0,136(x2)
    2c76:	c702                	c.swsp	x0,140(x2)
    2c78:	00f48d33          	add	x26,x9,x15
    2c7c:	761070ef          	jal	x1,abdc <__eqtf2>
    2c80:	5a050263          	beq	x10,x0,3224 <_vfprintf_r+0x2136>
    2c84:	84ea                	c.mv	x9,x26
    2c86:	47f2                	c.lwsp	x15,28(x2)
    2c88:	d8be                	c.swsp	x15,112(x2)
    2c8a:	5782                	c.lwsp	x15,32(x2)
    2c8c:	dabe                	c.swsp	x15,116(x2)
    2c8e:	57d2                	c.lwsp	x15,52(x2)
    2c90:	1890                	c.addi4spn	x12,x2,112
    2c92:	85e6                	c.mv	x11,x25
    2c94:	dcbe                	c.swsp	x15,120(x2)
    2c96:	856e                	c.mv	x10,x27
    2c98:	57f2                	c.lwsp	x15,60(x2)
    2c9a:	debe                	c.swsp	x15,124(x2)
    2c9c:	c156                	c.swsp	x21,128(x2)
    2c9e:	c35a                	c.swsp	x22,132(x2)
    2ca0:	c55e                	c.swsp	x23,136(x2)
    2ca2:	c762                	c.swsp	x24,140(x2)
    2ca4:	218080ef          	jal	x1,aebc <__multf3>
    2ca8:	856e                	c.mv	x10,x27
    2caa:	0880a0ef          	jal	x1,cd32 <__fixtfsi>
    2cae:	8d2a                	c.mv	x26,x10
    2cb0:	85ea                	c.mv	x11,x26
    2cb2:	856e                	c.mv	x10,x27
    2cb4:	4c4a                	c.lwsp	x24,144(x2)
    2cb6:	4bda                	c.lwsp	x23,148(x2)
    2cb8:	4b6a                	c.lwsp	x22,152(x2)
    2cba:	4afa                	c.lwsp	x21,156(x2)
    2cbc:	1180a0ef          	jal	x1,cdd4 <__floatsitf>
    2cc0:	454a                	c.lwsp	x10,144(x2)
    2cc2:	45da                	c.lwsp	x11,148(x2)
    2cc4:	466a                	c.lwsp	x12,152(x2)
    2cc6:	46fa                	c.lwsp	x13,156(x2)
    2cc8:	d0aa                	c.swsp	x10,96(x2)
    2cca:	d2ae                	c.swsp	x11,100(x2)
    2ccc:	d4b2                	c.swsp	x12,104(x2)
    2cce:	188c                	c.addi4spn	x11,x2,112
    2cd0:	1090                	c.addi4spn	x12,x2,96
    2cd2:	8566                	c.mv	x10,x25
    2cd4:	d8e2                	c.swsp	x24,112(x2)
    2cd6:	dade                	c.swsp	x23,116(x2)
    2cd8:	dcda                	c.swsp	x22,120(x2)
    2cda:	ded6                	c.swsp	x21,124(x2)
    2cdc:	d6b6                	c.swsp	x13,108(x2)
    2cde:	689080ef          	jal	x1,bb66 <__subtf3>
    2ce2:	47e2                	c.lwsp	x15,24(x2)
    2ce4:	01a786b3          	add	x13,x15,x26
    2ce8:	82a2                	c.mv	x5,x8
    2cea:	0006c583          	lbu	x11,0(x13)
    2cee:	0405                	c.addi	x8,1
    2cf0:	4a8a                	c.lwsp	x21,128(x2)
    2cf2:	4b1a                	c.lwsp	x22,132(x2)
    2cf4:	4baa                	c.lwsp	x23,136(x2)
    2cf6:	4c3a                	c.lwsp	x24,140(x2)
    2cf8:	57fd                	c.li	x15,-1
    2cfa:	feb40fa3          	sb	x11,-1(x8)
    2cfe:	f6f493e3          	bne	x9,x15,2c64 <_vfprintf_r+0x1b76>
    2d02:	0000b517          	auipc	x10,0xb
    2d06:	b2e50513          	addi	x10,x10,-1234 # d830 <zeroes.0+0x3c>
    2d0a:	4326                	c.lwsp	x6,72(x2)
    2d0c:	48c6                	c.lwsp	x17,80(x2)
    2d0e:	8f56                	c.mv	x30,x21
    2d10:	865e                	c.mv	x12,x23
    2d12:	86e2                	c.mv	x13,x24
    2d14:	00452f83          	lw	x31,4(x10)
    2d18:	00852383          	lw	x7,8(x10)
    2d1c:	455c                	c.lw	x15,12(x10)
    2d1e:	4104                	c.lw	x9,0(x10)
    2d20:	da16                	c.swsp	x5,52(x2)
    2d22:	d01a                	c.swsp	x6,32(x2)
    2d24:	ce46                	c.swsp	x17,28(x2)
    2d26:	ceea                	c.swsp	x26,92(x2)
    2d28:	4ae6                	c.lwsp	x21,88(x2)
    2d2a:	4bd6                	c.lwsp	x23,84(x2)
    2d2c:	4c16                	c.lwsp	x24,68(x2)
    2d2e:	8d22                	c.mv	x26,x8
    2d30:	c97a                	c.swsp	x30,144(x2)
    2d32:	4436                	c.lwsp	x8,76(x2)
    2d34:	ccfa                	c.swsp	x30,88(x2)
    2d36:	cb5a                	c.swsp	x22,148(x2)
    2d38:	cada                	c.swsp	x22,84(x2)
    2d3a:	cd32                	c.swsp	x12,152(x2)
    2d3c:	c8b2                	c.swsp	x12,80(x2)
    2d3e:	cf36                	c.swsp	x13,156(x2)
    2d40:	c6b6                	c.swsp	x13,76(x2)
    2d42:	c126                	c.swsp	x9,128(x2)
    2d44:	c37e                	c.swsp	x31,132(x2)
    2d46:	c4fe                	c.swsp	x31,72(x2)
    2d48:	c51e                	c.swsp	x7,136(x2)
    2d4a:	c29e                	c.swsp	x7,68(x2)
    2d4c:	c73e                	c.swsp	x15,140(x2)
    2d4e:	de3e                	c.swsp	x15,60(x2)
    2d50:	85e6                	c.mv	x11,x25
    2d52:	856e                	c.mv	x10,x27
    2d54:	733070ef          	jal	x1,ac86 <__getf2>
    2d58:	48f2                	c.lwsp	x17,28(x2)
    2d5a:	5302                	c.lwsp	x6,32(x2)
    2d5c:	52d2                	c.lwsp	x5,52(x2)
    2d5e:	0ca04c63          	blt	x0,x10,2e36 <_vfprintf_r+0x1d48>
    2d62:	85e6                	c.mv	x11,x25
    2d64:	856e                	c.mv	x10,x27
    2d66:	da46                	c.swsp	x17,52(x2)
    2d68:	ce16                	c.swsp	x5,28(x2)
    2d6a:	673070ef          	jal	x1,abdc <__eqtf2>
    2d6e:	5302                	c.lwsp	x6,32(x2)
    2d70:	58d2                	c.lwsp	x17,52(x2)
    2d72:	e509                	c.bnez	x10,2d7c <_vfprintf_r+0x1c8e>
    2d74:	4776                	c.lwsp	x14,92(x2)
    2d76:	8b05                	c.andi	x14,1
    2d78:	42f2                	c.lwsp	x5,28(x2)
    2d7a:	ef55                	c.bnez	x14,2e36 <_vfprintf_r+0x1d48>
    2d7c:	86ea                	c.mv	x13,x26
    2d7e:	573a                	c.lwsp	x14,172(x2)
    2d80:	415686b3          	sub	x13,x13,x21
    2d84:	fff70793          	addi	x15,x14,-1
    2d88:	cc36                	c.swsp	x13,24(x2)
    2d8a:	d73e                	c.swsp	x15,172(x2)
    2d8c:	06100613          	addi	x12,x0,97
    2d90:	07000693          	addi	x13,x0,112
    2d94:	00c88663          	beq	x17,x12,2da0 <_vfprintf_r+0x1cb2>
    2d98:	05000693          	addi	x13,x0,80
    2d9c:	04100893          	addi	x17,x0,65
    2da0:	0ad10a23          	sb	x13,180(x2)
    2da4:	0c07c963          	blt	x15,x0,2e76 <_vfprintf_r+0x1d88>
    2da8:	02b00713          	addi	x14,x0,43
    2dac:	0ae10aa3          	sb	x14,181(x2)
    2db0:	4725                	c.li	x14,9
    2db2:	0cf75b63          	bge	x14,x15,2e88 <_vfprintf_r+0x1d9a>
    2db6:	0c310813          	addi	x16,x2,195
    2dba:	ccccd537          	lui	x10,0xccccd
    2dbe:	8642                	c.mv	x12,x16
    2dc0:	ccd50513          	addi	x10,x10,-819 # cccccccd <__heap_end+0xcc8ccccd>
    2dc4:	06300f13          	addi	x30,x0,99
    2dc8:	02a7b733          	mulhu	x14,x15,x10
    2dcc:	8e3e                	c.mv	x28,x15
    2dce:	86b2                	c.mv	x13,x12
    2dd0:	167d                	c.addi	x12,-1
    2dd2:	830d                	c.srli	x14,0x3
    2dd4:	00271593          	slli	x11,x14,0x2
    2dd8:	95ba                	c.add	x11,x14
    2dda:	0586                	c.slli	x11,0x1
    2ddc:	8f8d                	c.sub	x15,x11
    2dde:	03078793          	addi	x15,x15,48
    2de2:	fef68fa3          	sb	x15,-1(x13)
    2de6:	87ba                	c.mv	x15,x14
    2de8:	ffcf40e3          	blt	x30,x28,2dc8 <_vfprintf_r+0x1cda>
    2dec:	03070793          	addi	x15,x14,48
    2df0:	fef60fa3          	sb	x15,-1(x12)
    2df4:	ffe68793          	addi	x15,x13,-2
    2df8:	4707f063          	bgeu	x15,x16,3258 <_vfprintf_r+0x216a>
    2dfc:	0b610713          	addi	x14,x2,182
    2e00:	0705                	c.addi	x14,1
    2e02:	0007c603          	lbu	x12,0(x15)
    2e06:	0785                	c.addi	x15,1
    2e08:	fec70fa3          	sb	x12,-1(x14)
    2e0c:	ff079ae3          	bne	x15,x16,2e00 <_vfprintf_r+0x1d12>
    2e10:	0b1c                	c.addi4spn	x15,x2,400
    2e12:	40d786b3          	sub	x13,x15,x13
    2e16:	f3768793          	addi	x15,x13,-201
    2e1a:	da3e                	c.swsp	x15,52(x2)
    2e1c:	b3b1                	c.j	2b68 <_vfprintf_r+0x1a7a>
    2e1e:	cc26                	c.swsp	x9,24(x2)
    2e20:	460d                	c.li	x12,3
    2e22:	b19d                	c.j	2a88 <_vfprintf_r+0x199a>
    2e24:	c802                	c.swsp	x0,16(x2)
    2e26:	4d8d                	c.li	x27,3
    2e28:	4481                	c.li	x9,0
    2e2a:	d002                	c.swsp	x0,32(x2)
    2e2c:	ce02                	c.swsp	x0,28(x2)
    2e2e:	4b01                	c.li	x22,0
    2e30:	4d11                	c.li	x26,4
    2e32:	c46fe06f          	jal	x0,1278 <_vfprintf_r+0x18a>
    2e36:	df16                	c.swsp	x5,188(x2)
    2e38:	47e2                	c.lwsp	x15,24(x2)
    2e3a:	fffd4683          	lbu	x13,-1(x26)
    2e3e:	00f7c603          	lbu	x12,15(x15)
    2e42:	876a                	c.mv	x14,x26
    2e44:	00c69e63          	bne	x13,x12,2e60 <_vfprintf_r+0x1d72>
    2e48:	03000593          	addi	x11,x0,48
    2e4c:	feb70fa3          	sb	x11,-1(x14)
    2e50:	577a                	c.lwsp	x14,188(x2)
    2e52:	fff70793          	addi	x15,x14,-1
    2e56:	df3e                	c.swsp	x15,188(x2)
    2e58:	fff74683          	lbu	x13,-1(x14)
    2e5c:	fec688e3          	beq	x13,x12,2e4c <_vfprintf_r+0x1d5e>
    2e60:	00168613          	addi	x12,x13,1
    2e64:	03900593          	addi	x11,x0,57
    2e68:	0ff67613          	andi	x12,x12,255
    2e6c:	02b68163          	beq	x13,x11,2e8e <_vfprintf_r+0x1da0>
    2e70:	fec70fa3          	sb	x12,-1(x14)
    2e74:	b721                	c.j	2d7c <_vfprintf_r+0x1c8e>
    2e76:	4785                	c.li	x15,1
    2e78:	02d00693          	addi	x13,x0,45
    2e7c:	8f99                	c.sub	x15,x14
    2e7e:	0ad10aa3          	sb	x13,181(x2)
    2e82:	4725                	c.li	x14,9
    2e84:	f2f749e3          	blt	x14,x15,2db6 <_vfprintf_r+0x1cc8>
    2e88:	0b610713          	addi	x14,x2,182
    2e8c:	b1e1                	c.j	2b54 <_vfprintf_r+0x1a66>
    2e8e:	47e2                	c.lwsp	x15,24(x2)
    2e90:	00a7c603          	lbu	x12,10(x15)
    2e94:	fec70fa3          	sb	x12,-1(x14)
    2e98:	b5d5                	c.j	2d7c <_vfprintf_r+0x1c8e>
    2e9a:	0a714f83          	lbu	x31,167(x2)
    2e9e:	a60f9be3          	bne	x31,x0,2914 <_vfprintf_r+0x1826>
    2ea2:	4481                	c.li	x9,0
    2ea4:	a56ff06f          	jal	x0,20fa <_vfprintf_r+0x100c>
    2ea8:	43c2                	c.lwsp	x7,16(x2)
    2eaa:	8cee                	c.mv	x25,x27
    2eac:	ea5fe06f          	jal	x0,1d50 <_vfprintf_r+0xc62>
    2eb0:	47a5                	c.li	x15,9
    2eb2:	01c7f463          	bgeu	x15,x28,2eba <_vfprintf_r+0x1dcc>
    2eb6:	b95fe06f          	jal	x0,1a4a <_vfprintf_r+0x95c>
    2eba:	cc4ff06f          	jal	x0,237e <_vfprintf_r+0x1290>
    2ebe:	01d0                	c.addi4spn	x12,x2,196
    2ec0:	85ee                	c.mv	x11,x27
    2ec2:	4512                	c.lwsp	x10,4(x2)
    2ec4:	5b6030ef          	jal	x1,647a <__sprint_r>
    2ec8:	f165                	c.bnez	x10,2ea8 <_vfprintf_r+0x1dba>
    2eca:	000d4583          	lbu	x11,0(x26)
    2ece:	463e                	c.lwsp	x12,204(x2)
    2ed0:	8552                	c.mv	x10,x20
    2ed2:	47c1                	c.li	x15,16
    2ed4:	469d                	c.li	x13,7
    2ed6:	9bae                	c.add	x23,x11
    2ed8:	fdeff06f          	jal	x0,26b6 <_vfprintf_r+0x15c8>
    2edc:	415d07b3          	sub	x15,x26,x21
    2ee0:	04700693          	addi	x13,x0,71
    2ee4:	cc3e                	c.swsp	x15,24(x2)
    2ee6:	5b3a                	c.lwsp	x22,172(x2)
    2ee8:	08d71e63          	bne	x14,x13,2f84 <_vfprintf_r+0x1e96>
    2eec:	57f5                	c.li	x15,-3
    2eee:	10fb4f63          	blt	x22,x15,300c <_vfprintf_r+0x1f1e>
    2ef2:	0364d263          	bge	x9,x22,2f16 <_vfprintf_r+0x1e28>
    2ef6:	18f9                	c.addi	x17,-2
    2ef8:	fffb0793          	addi	x15,x22,-1
    2efc:	0b110a23          	sb	x17,180(x2)
    2f00:	d73e                	c.swsp	x15,172(x2)
    2f02:	c207dce3          	bge	x15,x0,2b3a <_vfprintf_r+0x1a4c>
    2f06:	4785                	c.li	x15,1
    2f08:	02d00713          	addi	x14,x0,45
    2f0c:	416787b3          	sub	x15,x15,x22
    2f10:	0ae10aa3          	sb	x14,181(x2)
    2f14:	b915                	c.j	2b48 <_vfprintf_r+0x1a5a>
    2f16:	47e2                	c.lwsp	x15,24(x2)
    2f18:	12fb4d63          	blt	x22,x15,3052 <_vfprintf_r+0x1f64>
    2f1c:	001bf793          	andi	x15,x23,1
    2f20:	8dda                	c.mv	x27,x22
    2f22:	9c0780e3          	beq	x15,x0,28e2 <_vfprintf_r+0x17f4>
    2f26:	5792                	c.lwsp	x15,36(x2)
    2f28:	00fb0db3          	add	x27,x22,x15
    2f2c:	ba5d                	c.j	28e2 <_vfprintf_r+0x17f4>
    2f2e:	07800793          	addi	x15,x0,120
    2f32:	b639                	c.j	2a40 <_vfprintf_r+0x1952>
    2f34:	000ac603          	lbu	x12,0(x21)
    2f38:	03000693          	addi	x13,x0,48
    2f3c:	20d60d63          	beq	x12,x13,3156 <_vfprintf_r+0x2068>
    2f40:	56ba                	c.lwsp	x13,172(x2)
    2f42:	08010c93          	addi	x25,x2,128
    2f46:	9d36                	c.add	x26,x13
    2f48:	85e6                	c.mv	x11,x25
    2f4a:	856e                	c.mv	x10,x27
    2f4c:	d03a                	c.swsp	x14,32(x2)
    2f4e:	ce46                	c.swsp	x17,28(x2)
    2f50:	cc1a                	c.swsp	x6,24(x2)
    2f52:	c91e                	c.swsp	x7,144(x2)
    2f54:	cb16                	c.swsp	x5,148(x2)
    2f56:	cd7e                	c.swsp	x31,152(x2)
    2f58:	cf7a                	c.swsp	x30,156(x2)
    2f5a:	c102                	c.swsp	x0,128(x2)
    2f5c:	c302                	c.swsp	x0,132(x2)
    2f5e:	c502                	c.swsp	x0,136(x2)
    2f60:	c702                	c.swsp	x0,140(x2)
    2f62:	47b070ef          	jal	x1,abdc <__eqtf2>
    2f66:	4362                	c.lwsp	x6,24(x2)
    2f68:	48f2                	c.lwsp	x17,28(x2)
    2f6a:	5702                	c.lwsp	x14,32(x2)
    2f6c:	d925                	c.beqz	x10,2edc <_vfprintf_r+0x1dee>
    2f6e:	55fa                	c.lwsp	x11,188(x2)
    2f70:	b9a5e8e3          	bltu	x11,x26,2b00 <_vfprintf_r+0x1a12>
    2f74:	415586b3          	sub	x13,x11,x21
    2f78:	04700793          	addi	x15,x0,71
    2f7c:	cc36                	c.swsp	x13,24(x2)
    2f7e:	5b3a                	c.lwsp	x22,172(x2)
    2f80:	f6f706e3          	beq	x14,x15,2eec <_vfprintf_r+0x1dfe>
    2f84:	001bf793          	andi	x15,x23,1
    2f88:	8fc5                	c.or	x15,x9
    2f8a:	2d605a63          	bge	x0,x22,325e <_vfprintf_r+0x2170>
    2f8e:	26079e63          	bne	x15,x0,320a <_vfprintf_r+0x211c>
    2f92:	8dda                	c.mv	x27,x22
    2f94:	06600893          	addi	x17,x0,102
    2f98:	400bfe13          	andi	x28,x23,1024
    2f9c:	200e1a63          	bne	x28,x0,31b0 <_vfprintf_r+0x20c2>
    2fa0:	fffdc713          	xori	x14,x27,-1
    2fa4:	877d                	c.srai	x14,0x1f
    2fa6:	00edfd33          	and	x26,x27,x14
    2faa:	ba89                	c.j	28fc <_vfprintf_r+0x180e>
    2fac:	01d0                	c.addi4spn	x12,x2,196
    2fae:	45a2                	c.lwsp	x11,8(x2)
    2fb0:	4512                	c.lwsp	x10,4(x2)
    2fb2:	ce1a                	c.swsp	x6,28(x2)
    2fb4:	4c6030ef          	jal	x1,647a <__sprint_r>
    2fb8:	c119                	c.beqz	x10,2fbe <_vfprintf_r+0x1ed0>
    2fba:	d93fe06f          	jal	x0,1d4c <_vfprintf_r+0xc5e>
    2fbe:	54ba                	c.lwsp	x9,172(x2)
    2fc0:	463e                	c.lwsp	x12,204(x2)
    2fc2:	8452                	c.mv	x8,x20
    2fc4:	4372                	c.lwsp	x6,28(x2)
    2fc6:	e6dfe06f          	jal	x0,1e32 <_vfprintf_r+0xd44>
    2fca:	02d00793          	addi	x15,x0,45
    2fce:	0af103a3          	sb	x15,167(x2)
    2fd2:	c802                	c.swsp	x0,16(x2)
    2fd4:	04700793          	addi	x15,x0,71
    2fd8:	d002                	c.swsp	x0,32(x2)
    2fda:	ce02                	c.swsp	x0,28(x2)
    2fdc:	4d8d                	c.li	x27,3
    2fde:	4481                	c.li	x9,0
    2fe0:	4b01                	c.li	x22,0
    2fe2:	1517d663          	bge	x15,x17,312e <_vfprintf_r+0x2040>
    2fe6:	0000aa97          	auipc	x21,0xa
    2fea:	362a8a93          	addi	x21,x21,866 # d348 <__clzsi2+0x30e>
    2fee:	4d11                	c.li	x26,4
    2ff0:	a88fe06f          	jal	x0,1278 <_vfprintf_r+0x18a>
    2ff4:	ca5a                	c.swsp	x22,20(x2)
    2ff6:	14078363          	beq	x15,x0,313c <_vfprintf_r+0x204e>
    2ffa:	00148d13          	addi	x26,x9,1
    2ffe:	8da6                	c.mv	x27,x9
    3000:	d002                	c.swsp	x0,32(x2)
    3002:	4481                	c.li	x9,0
    3004:	ce02                	c.swsp	x0,28(x2)
    3006:	4b01                	c.li	x22,0
    3008:	a70fe06f          	jal	x0,1278 <_vfprintf_r+0x18a>
    300c:	18f9                	c.addi	x17,-2
    300e:	fffb0793          	addi	x15,x22,-1
    3012:	0b110a23          	sb	x17,180(x2)
    3016:	d73e                	c.swsp	x15,172(x2)
    3018:	02d00713          	addi	x14,x0,45
    301c:	4785                	c.li	x15,1
    301e:	0ae10aa3          	sb	x14,181(x2)
    3022:	416787b3          	sub	x15,x15,x22
    3026:	4725                	c.li	x14,9
    3028:	d8f747e3          	blt	x14,x15,2db6 <_vfprintf_r+0x1cc8>
    302c:	be31                	c.j	2b48 <_vfprintf_r+0x1a5a>
    302e:	01d0                	c.addi4spn	x12,x2,196
    3030:	45a2                	c.lwsp	x11,8(x2)
    3032:	4512                	c.lwsp	x10,4(x2)
    3034:	ce1a                	c.swsp	x6,28(x2)
    3036:	444030ef          	jal	x1,647a <__sprint_r>
    303a:	c119                	c.beqz	x10,3040 <_vfprintf_r+0x1f52>
    303c:	d11fe06f          	jal	x0,1d4c <_vfprintf_r+0xc5e>
    3040:	54ba                	c.lwsp	x9,172(x2)
    3042:	47e2                	c.lwsp	x15,24(x2)
    3044:	409784b3          	sub	x9,x15,x9
    3048:	463e                	c.lwsp	x12,204(x2)
    304a:	8452                	c.mv	x8,x20
    304c:	4372                	c.lwsp	x6,28(x2)
    304e:	e19fe06f          	jal	x0,1e66 <_vfprintf_r+0xd78>
    3052:	47e2                	c.lwsp	x15,24(x2)
    3054:	5712                	c.lwsp	x14,36(x2)
    3056:	00e78db3          	add	x27,x15,x14
    305a:	06700893          	addi	x17,x0,103
    305e:	f3604de3          	blt	x0,x22,2f98 <_vfprintf_r+0x1eaa>
    3062:	416d8833          	sub	x16,x27,x22
    3066:	00180d93          	addi	x27,x16,1
    306a:	fffdc713          	xori	x14,x27,-1
    306e:	877d                	c.srai	x14,0x1f
    3070:	00edfd33          	and	x26,x27,x14
    3074:	b061                	c.j	28fc <_vfprintf_r+0x180e>
    3076:	00950d33          	add	x26,x10,x9
    307a:	04700713          	addi	x14,x0,71
    307e:	08010c93          	addi	x25,x2,128
    3082:	b5d9                	c.j	2f48 <_vfprintf_r+0x1e5a>
    3084:	8e5e                	c.mv	x28,x23
    3086:	ff5fe06f          	jal	x0,207a <_vfprintf_r+0xf8c>
    308a:	875e                	c.mv	x14,x23
    308c:	fdffe06f          	jal	x0,206a <_vfprintf_r+0xf7c>
    3090:	8e5e                	c.mv	x28,x23
    3092:	91ffe06f          	jal	x0,19b0 <_vfprintf_r+0x8c2>
    3096:	57c1                	c.li	x15,-16
    3098:	40b004b3          	sub	x9,x0,x11
    309c:	0000ac97          	auipc	x25,0xa
    30a0:	758c8c93          	addi	x25,x25,1880 # d7f4 <zeroes.0>
    30a4:	4dc1                	c.li	x27,16
    30a6:	481d                	c.li	x16,7
    30a8:	8b1a                	c.mv	x22,x6
    30aa:	00f5c663          	blt	x11,x15,30b6 <_vfprintf_r+0x1fc8>
    30ae:	a82d                	c.j	30e8 <_vfprintf_r+0x1ffa>
    30b0:	14c1                	c.addi	x9,-16
    30b2:	029dda63          	bge	x27,x9,30e6 <_vfprintf_r+0x1ff8>
    30b6:	0641                	c.addi	x12,16
    30b8:	0685                	c.addi	x13,1
    30ba:	01942023          	sw	x25,0(x8)
    30be:	01b42223          	sw	x27,4(x8)
    30c2:	c7b2                	c.swsp	x12,204(x2)
    30c4:	c5b6                	c.swsp	x13,200(x2)
    30c6:	0421                	c.addi	x8,8
    30c8:	fed854e3          	bge	x16,x13,30b0 <_vfprintf_r+0x1fc2>
    30cc:	01d0                	c.addi4spn	x12,x2,196
    30ce:	45a2                	c.lwsp	x11,8(x2)
    30d0:	4512                	c.lwsp	x10,4(x2)
    30d2:	3a8030ef          	jal	x1,647a <__sprint_r>
    30d6:	c119                	c.beqz	x10,30dc <_vfprintf_r+0x1fee>
    30d8:	c75fe06f          	jal	x0,1d4c <_vfprintf_r+0xc5e>
    30dc:	463e                	c.lwsp	x12,204(x2)
    30de:	46ae                	c.lwsp	x13,200(x2)
    30e0:	8452                	c.mv	x8,x20
    30e2:	481d                	c.li	x16,7
    30e4:	b7f1                	c.j	30b0 <_vfprintf_r+0x1fc2>
    30e6:	835a                	c.mv	x6,x22
    30e8:	9626                	c.add	x12,x9
    30ea:	0685                	c.addi	x13,1
    30ec:	c7b2                	c.swsp	x12,204(x2)
    30ee:	c5b6                	c.swsp	x13,200(x2)
    30f0:	01942023          	sw	x25,0(x8)
    30f4:	c044                	c.sw	x9,4(x8)
    30f6:	479d                	c.li	x15,7
    30f8:	aed7d563          	bge	x15,x13,23e2 <_vfprintf_r+0x12f4>
    30fc:	01d0                	c.addi4spn	x12,x2,196
    30fe:	45a2                	c.lwsp	x11,8(x2)
    3100:	4512                	c.lwsp	x10,4(x2)
    3102:	ce1a                	c.swsp	x6,28(x2)
    3104:	376030ef          	jal	x1,647a <__sprint_r>
    3108:	c119                	c.beqz	x10,310e <_vfprintf_r+0x2020>
    310a:	c43fe06f          	jal	x0,1d4c <_vfprintf_r+0xc5e>
    310e:	463e                	c.lwsp	x12,204(x2)
    3110:	46ae                	c.lwsp	x13,200(x2)
    3112:	8452                	c.mv	x8,x20
    3114:	4372                	c.lwsp	x6,28(x2)
    3116:	c24ff06f          	jal	x0,253a <_vfprintf_r+0x144c>
    311a:	c099                	c.beqz	x9,3120 <_vfprintf_r+0x2032>
    311c:	b2afe06f          	jal	x0,1446 <_vfprintf_r+0x358>
    3120:	84be                	c.mv	x9,x15
    3122:	b24fe06f          	jal	x0,1446 <_vfprintf_r+0x358>
    3126:	c802                	c.swsp	x0,16(x2)
    3128:	4499                	c.li	x9,6
    312a:	b1cfe06f          	jal	x0,1446 <_vfprintf_r+0x358>
    312e:	0000aa97          	auipc	x21,0xa
    3132:	216a8a93          	addi	x21,x21,534 # d344 <__clzsi2+0x30a>
    3136:	4d11                	c.li	x26,4
    3138:	940fe06f          	jal	x0,1278 <_vfprintf_r+0x18a>
    313c:	8da6                	c.mv	x27,x9
    313e:	8d26                	c.mv	x26,x9
    3140:	d002                	c.swsp	x0,32(x2)
    3142:	4481                	c.li	x9,0
    3144:	ce02                	c.swsp	x0,28(x2)
    3146:	4b01                	c.li	x22,0
    3148:	930fe06f          	jal	x0,1278 <_vfprintf_r+0x18a>
    314c:	00fbf7b3          	and	x15,x23,x15
    3150:	a20785e3          	beq	x15,x0,2b7a <_vfprintf_r+0x1a8c>
    3154:	b40d                	c.j	2b76 <_vfprintf_r+0x1a88>
    3156:	08010c93          	addi	x25,x2,128
    315a:	85e6                	c.mv	x11,x25
    315c:	856e                	c.mv	x10,x27
    315e:	caba                	c.swsp	x14,84(x2)
    3160:	c8c6                	c.swsp	x17,80(x2)
    3162:	c69a                	c.swsp	x6,76(x2)
    3164:	c91e                	c.swsp	x7,144(x2)
    3166:	c49e                	c.swsp	x7,72(x2)
    3168:	cb16                	c.swsp	x5,148(x2)
    316a:	c296                	c.swsp	x5,68(x2)
    316c:	cd7e                	c.swsp	x31,152(x2)
    316e:	d07e                	c.swsp	x31,32(x2)
    3170:	cf7a                	c.swsp	x30,156(x2)
    3172:	ce7a                	c.swsp	x30,28(x2)
    3174:	c102                	c.swsp	x0,128(x2)
    3176:	c302                	c.swsp	x0,132(x2)
    3178:	c502                	c.swsp	x0,136(x2)
    317a:	c702                	c.swsp	x0,140(x2)
    317c:	261070ef          	jal	x1,abdc <__eqtf2>
    3180:	4f72                	c.lwsp	x30,28(x2)
    3182:	5f82                	c.lwsp	x31,32(x2)
    3184:	4296                	c.lwsp	x5,68(x2)
    3186:	43a6                	c.lwsp	x7,72(x2)
    3188:	4336                	c.lwsp	x6,76(x2)
    318a:	48c6                	c.lwsp	x17,80(x2)
    318c:	4756                	c.lwsp	x14,84(x2)
    318e:	e161                	c.bnez	x10,324e <_vfprintf_r+0x2160>
    3190:	5b3a                	c.lwsp	x22,172(x2)
    3192:	016d07b3          	add	x15,x26,x22
    3196:	415787b3          	sub	x15,x15,x21
    319a:	cc3e                	c.swsp	x15,24(x2)
    319c:	b3e5                	c.j	2f84 <_vfprintf_r+0x1e96>
    319e:	0000aa97          	auipc	x21,0xa
    31a2:	1aea8a93          	addi	x21,x21,430 # d34c <__clzsi2+0x312>
    31a6:	4d11                	c.li	x26,4
    31a8:	8d0fe06f          	jal	x0,1278 <_vfprintf_r+0x18a>
    31ac:	06700893          	addi	x17,x0,103
    31b0:	56a2                	c.lwsp	x13,40(x2)
    31b2:	0006c783          	lbu	x15,0(x13)
    31b6:	0ff00713          	addi	x14,x0,255
    31ba:	10e78163          	beq	x15,x14,32bc <_vfprintf_r+0x21ce>
    31be:	4581                	c.li	x11,0
    31c0:	4601                	c.li	x12,0
    31c2:	0167db63          	bge	x15,x22,31d8 <_vfprintf_r+0x20ea>
    31c6:	40fb0b33          	sub	x22,x22,x15
    31ca:	0016c783          	lbu	x15,1(x13)
    31ce:	c79d                	c.beqz	x15,31fc <_vfprintf_r+0x210e>
    31d0:	0605                	c.addi	x12,1
    31d2:	0685                	c.addi	x13,1
    31d4:	fee797e3          	bne	x15,x14,31c2 <_vfprintf_r+0x20d4>
    31d8:	d436                	c.swsp	x13,40(x2)
    31da:	ce32                	c.swsp	x12,28(x2)
    31dc:	d02e                	c.swsp	x11,32(x2)
    31de:	4772                	c.lwsp	x14,28(x2)
    31e0:	5782                	c.lwsp	x15,32(x2)
    31e2:	97ba                	c.add	x15,x14
    31e4:	4706                	c.lwsp	x14,64(x2)
    31e6:	02e787b3          	mul	x15,x15,x14
    31ea:	5bf2                	c.lwsp	x23,60(x2)
    31ec:	9dbe                	c.add	x27,x15
    31ee:	fffdc713          	xori	x14,x27,-1
    31f2:	877d                	c.srai	x14,0x1f
    31f4:	00edfd33          	and	x26,x27,x14
    31f8:	f0aff06f          	jal	x0,2902 <_vfprintf_r+0x1814>
    31fc:	0585                	c.addi	x11,1
    31fe:	0006c783          	lbu	x15,0(x13)
    3202:	bfc9                	c.j	31d4 <_vfprintf_r+0x20e6>
    3204:	4ca2                	c.lwsp	x25,8(x2)
    3206:	b57fe06f          	jal	x0,1d5c <_vfprintf_r+0xc6e>
    320a:	5792                	c.lwsp	x15,36(x2)
    320c:	00f48833          	add	x16,x9,x15
    3210:	01680db3          	add	x27,x16,x22
    3214:	06600893          	addi	x17,x0,102
    3218:	b341                	c.j	2f98 <_vfprintf_r+0x1eaa>
    321a:	415587b3          	sub	x15,x11,x21
    321e:	cc3e                	c.swsp	x15,24(x2)
    3220:	5b3a                	c.lwsp	x22,172(x2)
    3222:	b229                	c.j	2b2c <_vfprintf_r+0x1a3e>
    3224:	8d22                	c.mv	x26,x8
    3226:	00148793          	addi	x15,x9,1
    322a:	4c16                	c.lwsp	x24,68(x2)
    322c:	4326                	c.lwsp	x6,72(x2)
    322e:	4436                	c.lwsp	x8,76(x2)
    3230:	48c6                	c.lwsp	x17,80(x2)
    3232:	4bd6                	c.lwsp	x23,84(x2)
    3234:	4ae6                	c.lwsp	x21,88(x2)
    3236:	00fd06b3          	add	x13,x26,x15
    323a:	03000713          	addi	x14,x0,48
    323e:	b204cfe3          	blt	x9,x0,2d7c <_vfprintf_r+0x1c8e>
    3242:	0d05                	c.addi	x26,1
    3244:	feed0fa3          	sb	x14,-1(x26)
    3248:	ffa69de3          	bne	x13,x26,3242 <_vfprintf_r+0x2154>
    324c:	be0d                	c.j	2d7e <_vfprintf_r+0x1c90>
    324e:	4685                	c.li	x13,1
    3250:	47e2                	c.lwsp	x15,24(x2)
    3252:	8e9d                	c.sub	x13,x15
    3254:	d736                	c.swsp	x13,172(x2)
    3256:	b9c5                	c.j	2f46 <_vfprintf_r+0x1e58>
    3258:	4789                	c.li	x15,2
    325a:	da3e                	c.swsp	x15,52(x2)
    325c:	b231                	c.j	2b68 <_vfprintf_r+0x1a7a>
    325e:	e799                	c.bnez	x15,326c <_vfprintf_r+0x217e>
    3260:	4d05                	c.li	x26,1
    3262:	8dea                	c.mv	x27,x26
    3264:	06600893          	addi	x17,x0,102
    3268:	e94ff06f          	jal	x0,28fc <_vfprintf_r+0x180e>
    326c:	5792                	c.lwsp	x15,36(x2)
    326e:	00178813          	addi	x16,x15,1
    3272:	00980db3          	add	x27,x16,x9
    3276:	fffdc713          	xori	x14,x27,-1
    327a:	877d                	c.srai	x14,0x1f
    327c:	00edfd33          	and	x26,x27,x14
    3280:	06600893          	addi	x17,x0,102
    3284:	e78ff06f          	jal	x0,28fc <_vfprintf_r+0x180e>
    3288:	47d2                	c.lwsp	x15,20(x2)
    328a:	4384                	c.lw	x9,0(x15)
    328c:	0791                	c.addi	x15,4
    328e:	0004d363          	bge	x9,x0,3294 <_vfprintf_r+0x21a6>
    3292:	54fd                	c.li	x9,-1
    3294:	001c4883          	lbu	x17,1(x24)
    3298:	ca3e                	c.swsp	x15,20(x2)
    329a:	8c36                	c.mv	x24,x13
    329c:	f75fd06f          	jal	x0,1210 <_vfprintf_r+0x122>
    32a0:	4481                	c.li	x9,0
    32a2:	d002                	c.swsp	x0,32(x2)
    32a4:	ce02                	c.swsp	x0,28(x2)
    32a6:	c802                	c.swsp	x0,16(x2)
    32a8:	4d8d                	c.li	x27,3
    32aa:	4d11                	c.li	x26,4
    32ac:	fcdfd06f          	jal	x0,1278 <_vfprintf_r+0x18a>
    32b0:	4d85                	c.li	x27,1
    32b2:	ca3e                	c.swsp	x15,20(x2)
    32b4:	8d6e                	c.mv	x26,x27
    32b6:	c802                	c.swsp	x0,16(x2)
    32b8:	8dffe06f          	jal	x0,1b96 <_vfprintf_r+0xaa8>
    32bc:	d002                	c.swsp	x0,32(x2)
    32be:	ce02                	c.swsp	x0,28(x2)
    32c0:	bf39                	c.j	31de <_vfprintf_r+0x20f0>
    32c2:	4ca2                	c.lwsp	x25,8(x2)
    32c4:	00ccd783          	lhu	x15,12(x25)
    32c8:	0407e793          	ori	x15,x15,64
    32cc:	00fc9623          	sh	x15,12(x25)
    32d0:	a8dfe06f          	jal	x0,1d5c <_vfprintf_r+0xc6e>

000032d4 <vfprintf>:
    32d4:	872a                	c.mv	x14,x10
    32d6:	f0c1a503          	lw	x10,-244(x3) # e494 <_impure_ptr>
    32da:	87ae                	c.mv	x15,x11
    32dc:	86b2                	c.mv	x13,x12
    32de:	85ba                	c.mv	x11,x14
    32e0:	863e                	c.mv	x12,x15
    32e2:	e0dfd06f          	jal	x0,10ee <_vfprintf_r>

000032e6 <__sbprintf>:
    32e6:	b8010113          	addi	x2,x2,-1152
    32ea:	00c59783          	lh	x15,12(x11)
    32ee:	00e5d703          	lhu	x14,14(x11)
    32f2:	46812c23          	sw	x8,1144(x2)
    32f6:	842e                	c.mv	x8,x11
    32f8:	65c1                	c.lui	x11,0x10
    32fa:	15f5                	c.addi	x11,-3 # fffd <__heap_start+0x184d>
    32fc:	8fed                	c.and	x15,x11
    32fe:	0742                	c.slli	x14,0x10
    3300:	8fd9                	c.or	x15,x14
    3302:	07010813          	addi	x16,x2,112
    3306:	40000713          	addi	x14,x0,1024
    330a:	06442e03          	lw	x28,100(x8)
    330e:	01c42303          	lw	x6,28(x8)
    3312:	02442883          	lw	x17,36(x8)
    3316:	002c                	c.addi4spn	x11,x2,8
    3318:	46912a23          	sw	x9,1140(x2)
    331c:	47212823          	sw	x18,1136(x2)
    3320:	46112e23          	sw	x1,1148(x2)
    3324:	d002                	c.swsp	x0,32(x2)
    3326:	ca3e                	c.swsp	x15,20(x2)
    3328:	d6f2                	c.swsp	x28,108(x2)
    332a:	d21a                	c.swsp	x6,36(x2)
    332c:	d646                	c.swsp	x17,44(x2)
    332e:	892a                	c.mv	x18,x10
    3330:	c442                	c.swsp	x16,8(x2)
    3332:	cc42                	c.swsp	x16,24(x2)
    3334:	c83a                	c.swsp	x14,16(x2)
    3336:	ce3a                	c.swsp	x14,28(x2)
    3338:	db7fd0ef          	jal	x1,10ee <_vfprintf_r>
    333c:	84aa                	c.mv	x9,x10
    333e:	02055963          	bge	x10,x0,3370 <__sbprintf+0x8a>
    3342:	01415783          	lhu	x15,20(x2)
    3346:	0407f793          	andi	x15,x15,64
    334a:	c799                	c.beqz	x15,3358 <__sbprintf+0x72>
    334c:	00c45783          	lhu	x15,12(x8)
    3350:	0407e793          	ori	x15,x15,64
    3354:	00f41623          	sh	x15,12(x8)
    3358:	47c12083          	lw	x1,1148(x2)
    335c:	47812403          	lw	x8,1144(x2)
    3360:	8526                	c.mv	x10,x9
    3362:	47012903          	lw	x18,1136(x2)
    3366:	47412483          	lw	x9,1140(x2)
    336a:	48010113          	addi	x2,x2,1152
    336e:	8082                	c.jr	x1
